
/home/jpz/xs-env/nexus-am/apps/eh1cmark/build/eh1cmark-riscv64-nutshell.elf:     file format elf64-littleriscv


Disassembly of section .text:

0000000080000000 <_start>:
    80000000:	00000413          	li	s0,0
    80000004:	00010117          	auipc	sp,0x10
    80000008:	ffc10113          	addi	sp,sp,-4 # 80010000 <_end>
    8000000c:	5b0030ef          	jal	ra,800035bc <_trm_init>

0000000080000010 <cmp_idx>:
    80000010:	00060a63          	beqz	a2,80000024 <cmp_idx+0x14>
    80000014:	00251503          	lh	a0,2(a0)
    80000018:	00259583          	lh	a1,2(a1)
    8000001c:	40b5053b          	subw	a0,a0,a1
    80000020:	00008067          	ret
    80000024:	00051783          	lh	a5,0(a0)
    80000028:	0087d713          	srli	a4,a5,0x8
    8000002c:	f007f293          	andi	t0,a5,-256
    80000030:	0ff77313          	andi	t1,a4,255
    80000034:	0062e3b3          	or	t2,t0,t1
    80000038:	00751023          	sh	t2,0(a0)
    8000003c:	00059603          	lh	a2,0(a1)
    80000040:	00251503          	lh	a0,2(a0)
    80000044:	00865693          	srli	a3,a2,0x8
    80000048:	f0067813          	andi	a6,a2,-256
    8000004c:	0ff6f893          	andi	a7,a3,255
    80000050:	01186e33          	or	t3,a6,a7
    80000054:	01c59023          	sh	t3,0(a1)
    80000058:	00259583          	lh	a1,2(a1)
    8000005c:	40b5053b          	subw	a0,a0,a1
    80000060:	00008067          	ret

0000000080000064 <copy_info>:
    80000064:	00059703          	lh	a4,0(a1)
    80000068:	00259783          	lh	a5,2(a1)
    8000006c:	00e51023          	sh	a4,0(a0)
    80000070:	00f51123          	sh	a5,2(a0)
    80000074:	00008067          	ret

0000000080000078 <core_list_insert_new>:
    80000078:	00063803          	ld	a6,0(a2)
    8000007c:	01080893          	addi	a7,a6,16
    80000080:	04e8f663          	bgeu	a7,a4,800000cc <core_list_insert_new+0x54>
    80000084:	0006b703          	ld	a4,0(a3)
    80000088:	00470313          	addi	t1,a4,4
    8000008c:	04f37063          	bgeu	t1,a5,800000cc <core_list_insert_new+0x54>
    80000090:	01163023          	sd	a7,0(a2)
    80000094:	00053783          	ld	a5,0(a0)
    80000098:	00059283          	lh	t0,0(a1)
    8000009c:	00259603          	lh	a2,2(a1)
    800000a0:	00f83023          	sd	a5,0(a6)
    800000a4:	01053023          	sd	a6,0(a0)
    800000a8:	00e83423          	sd	a4,8(a6)
    800000ac:	0006b383          	ld	t2,0(a3)
    800000b0:	00438513          	addi	a0,t2,4
    800000b4:	00a6b023          	sd	a0,0(a3)
    800000b8:	00883583          	ld	a1,8(a6)
    800000bc:	00080513          	mv	a0,a6
    800000c0:	00559023          	sh	t0,0(a1)
    800000c4:	00c59123          	sh	a2,2(a1)
    800000c8:	00008067          	ret
    800000cc:	00000813          	li	a6,0
    800000d0:	00080513          	mv	a0,a6
    800000d4:	00008067          	ret

00000000800000d8 <core_list_remove>:
    800000d8:	00050793          	mv	a5,a0
    800000dc:	00053503          	ld	a0,0(a0)
    800000e0:	0087b683          	ld	a3,8(a5)
    800000e4:	00853603          	ld	a2,8(a0)
    800000e8:	00053703          	ld	a4,0(a0)
    800000ec:	00c7b423          	sd	a2,8(a5)
    800000f0:	00d53423          	sd	a3,8(a0)
    800000f4:	00e7b023          	sd	a4,0(a5)
    800000f8:	00053023          	sd	zero,0(a0)
    800000fc:	00008067          	ret

0000000080000100 <core_list_undo_remove>:
    80000100:	0085b603          	ld	a2,8(a1)
    80000104:	00853683          	ld	a3,8(a0)
    80000108:	0005b703          	ld	a4,0(a1)
    8000010c:	00c53423          	sd	a2,8(a0)
    80000110:	00d5b423          	sd	a3,8(a1)
    80000114:	00e53023          	sd	a4,0(a0)
    80000118:	00a5b023          	sd	a0,0(a1)
    8000011c:	00008067          	ret

0000000080000120 <core_list_find>:
    80000120:	00259603          	lh	a2,2(a1)
    80000124:	02064263          	bltz	a2,80000148 <core_list_find+0x28>
    80000128:	00051863          	bnez	a0,80000138 <core_list_find+0x18>
    8000012c:	0480006f          	j	80000174 <core_list_find+0x54>
    80000130:	00053503          	ld	a0,0(a0)
    80000134:	02050c63          	beqz	a0,8000016c <core_list_find+0x4c>
    80000138:	00853303          	ld	t1,8(a0)
    8000013c:	00231383          	lh	t2,2(t1)
    80000140:	fec398e3          	bne	t2,a2,80000130 <core_list_find+0x10>
    80000144:	00008067          	ret
    80000148:	02050263          	beqz	a0,8000016c <core_list_find+0x4c>
    8000014c:	00059703          	lh	a4,0(a1)
    80000150:	00c0006f          	j	8000015c <core_list_find+0x3c>
    80000154:	00053503          	ld	a0,0(a0)
    80000158:	00050c63          	beqz	a0,80000170 <core_list_find+0x50>
    8000015c:	00853783          	ld	a5,8(a0)
    80000160:	0007c283          	lbu	t0,0(a5)
    80000164:	fee298e3          	bne	t0,a4,80000154 <core_list_find+0x34>
    80000168:	00008067          	ret
    8000016c:	00000513          	li	a0,0
    80000170:	00008067          	ret
    80000174:	00008067          	ret

0000000080000178 <core_list_reverse>:
    80000178:	02050063          	beqz	a0,80000198 <core_list_reverse+0x20>
    8000017c:	00000713          	li	a4,0
    80000180:	0080006f          	j	80000188 <core_list_reverse+0x10>
    80000184:	00078513          	mv	a0,a5
    80000188:	00053783          	ld	a5,0(a0)
    8000018c:	00e53023          	sd	a4,0(a0)
    80000190:	00050713          	mv	a4,a0
    80000194:	fe0798e3          	bnez	a5,80000184 <core_list_reverse+0xc>
    80000198:	00008067          	ret

000000008000019c <core_list_mergesort>:
    8000019c:	fa010113          	addi	sp,sp,-96
    800001a0:	04813823          	sd	s0,80(sp)
    800001a4:	03613023          	sd	s6,32(sp)
    800001a8:	01713c23          	sd	s7,24(sp)
    800001ac:	01913423          	sd	s9,8(sp)
    800001b0:	01a13023          	sd	s10,0(sp)
    800001b4:	04113c23          	sd	ra,88(sp)
    800001b8:	04913423          	sd	s1,72(sp)
    800001bc:	05213023          	sd	s2,64(sp)
    800001c0:	03313c23          	sd	s3,56(sp)
    800001c4:	03413823          	sd	s4,48(sp)
    800001c8:	03513423          	sd	s5,40(sp)
    800001cc:	01813823          	sd	s8,16(sp)
    800001d0:	00050413          	mv	s0,a0
    800001d4:	00058b13          	mv	s6,a1
    800001d8:	00060d13          	mv	s10,a2
    800001dc:	00100b93          	li	s7,1
    800001e0:	00100c93          	li	s9,1
    800001e4:	14040c63          	beqz	s0,8000033c <core_list_mergesort+0x1a0>
    800001e8:	00000c13          	li	s8,0
    800001ec:	00000493          	li	s1,0
    800001f0:	00000a93          	li	s5,0
    800001f4:	007bf713          	andi	a4,s7,7
    800001f8:	001c0c1b          	addiw	s8,s8,1
    800001fc:	00040793          	mv	a5,s0
    80000200:	00000913          	li	s2,0
    80000204:	08070663          	beqz	a4,80000290 <core_list_mergesort+0xf4>
    80000208:	00100693          	li	a3,1
    8000020c:	06d70a63          	beq	a4,a3,80000280 <core_list_mergesort+0xe4>
    80000210:	00200093          	li	ra,2
    80000214:	06170063          	beq	a4,ra,80000274 <core_list_mergesort+0xd8>
    80000218:	00300293          	li	t0,3
    8000021c:	04570663          	beq	a4,t0,80000268 <core_list_mergesort+0xcc>
    80000220:	00400313          	li	t1,4
    80000224:	02670c63          	beq	a4,t1,8000025c <core_list_mergesort+0xc0>
    80000228:	00500393          	li	t2,5
    8000022c:	02770263          	beq	a4,t2,80000250 <core_list_mergesort+0xb4>
    80000230:	00600513          	li	a0,6
    80000234:	00a70863          	beq	a4,a0,80000244 <core_list_mergesort+0xa8>
    80000238:	00043783          	ld	a5,0(s0)
    8000023c:	00100913          	li	s2,1
    80000240:	06078463          	beqz	a5,800002a8 <core_list_mergesort+0x10c>
    80000244:	0007b783          	ld	a5,0(a5)
    80000248:	0019091b          	addiw	s2,s2,1
    8000024c:	04078e63          	beqz	a5,800002a8 <core_list_mergesort+0x10c>
    80000250:	0007b783          	ld	a5,0(a5)
    80000254:	0019091b          	addiw	s2,s2,1
    80000258:	04078863          	beqz	a5,800002a8 <core_list_mergesort+0x10c>
    8000025c:	0007b783          	ld	a5,0(a5)
    80000260:	0019091b          	addiw	s2,s2,1
    80000264:	04078263          	beqz	a5,800002a8 <core_list_mergesort+0x10c>
    80000268:	0007b783          	ld	a5,0(a5)
    8000026c:	0019091b          	addiw	s2,s2,1
    80000270:	02078c63          	beqz	a5,800002a8 <core_list_mergesort+0x10c>
    80000274:	0007b783          	ld	a5,0(a5)
    80000278:	0019091b          	addiw	s2,s2,1
    8000027c:	02078663          	beqz	a5,800002a8 <core_list_mergesort+0x10c>
    80000280:	0007b783          	ld	a5,0(a5)
    80000284:	0019091b          	addiw	s2,s2,1
    80000288:	02078063          	beqz	a5,800002a8 <core_list_mergesort+0x10c>
    8000028c:	012b8e63          	beq	s7,s2,800002a8 <core_list_mergesort+0x10c>
    80000290:	0007b783          	ld	a5,0(a5)
    80000294:	0019091b          	addiw	s2,s2,1
    80000298:	00078863          	beqz	a5,800002a8 <core_list_mergesort+0x10c>
    8000029c:	0007b783          	ld	a5,0(a5)
    800002a0:	0019091b          	addiw	s2,s2,1
    800002a4:	fa0790e3          	bnez	a5,80000244 <core_list_mergesort+0xa8>
    800002a8:	00040a13          	mv	s4,s0
    800002ac:	000b8993          	mv	s3,s7
    800002b0:	00078413          	mv	s0,a5
    800002b4:	02090e63          	beqz	s2,800002f0 <core_list_mergesort+0x154>
    800002b8:	04098e63          	beqz	s3,80000314 <core_list_mergesort+0x178>
    800002bc:	04040c63          	beqz	s0,80000314 <core_list_mergesort+0x178>
    800002c0:	00843583          	ld	a1,8(s0)
    800002c4:	008a3503          	ld	a0,8(s4)
    800002c8:	000d0613          	mv	a2,s10
    800002cc:	000b00e7          	jalr	s6
    800002d0:	04a05263          	blez	a0,80000314 <core_list_mergesort+0x178>
    800002d4:	00040593          	mv	a1,s0
    800002d8:	00043403          	ld	s0,0(s0)
    800002dc:	fff9899b          	addiw	s3,s3,-1
    800002e0:	02048463          	beqz	s1,80000308 <core_list_mergesort+0x16c>
    800002e4:	00b4b023          	sd	a1,0(s1)
    800002e8:	00058493          	mv	s1,a1
    800002ec:	fc0916e3          	bnez	s2,800002b8 <core_list_mergesort+0x11c>
    800002f0:	02098a63          	beqz	s3,80000324 <core_list_mergesort+0x188>
    800002f4:	02040a63          	beqz	s0,80000328 <core_list_mergesort+0x18c>
    800002f8:	00040593          	mv	a1,s0
    800002fc:	fff9899b          	addiw	s3,s3,-1
    80000300:	00043403          	ld	s0,0(s0)
    80000304:	fe0490e3          	bnez	s1,800002e4 <core_list_mergesort+0x148>
    80000308:	00058a93          	mv	s5,a1
    8000030c:	00058493          	mv	s1,a1
    80000310:	fddff06f          	j	800002ec <core_list_mergesort+0x150>
    80000314:	000a0593          	mv	a1,s4
    80000318:	fff9091b          	addiw	s2,s2,-1
    8000031c:	000a3a03          	ld	s4,0(s4)
    80000320:	fc1ff06f          	j	800002e0 <core_list_mergesort+0x144>
    80000324:	ec0418e3          	bnez	s0,800001f4 <core_list_mergesort+0x58>
    80000328:	0004b023          	sd	zero,0(s1)
    8000032c:	019c0c63          	beq	s8,s9,80000344 <core_list_mergesort+0x1a8>
    80000330:	001b9b9b          	slliw	s7,s7,0x1
    80000334:	000a8413          	mv	s0,s5
    80000338:	eadff06f          	j	800001e4 <core_list_mergesort+0x48>
    8000033c:	00003023          	sd	zero,0(zero) # 0 <_start-0x80000000>
    80000340:	00100073          	ebreak
    80000344:	05813083          	ld	ra,88(sp)
    80000348:	05013403          	ld	s0,80(sp)
    8000034c:	04813483          	ld	s1,72(sp)
    80000350:	04013903          	ld	s2,64(sp)
    80000354:	03813983          	ld	s3,56(sp)
    80000358:	03013a03          	ld	s4,48(sp)
    8000035c:	02013b03          	ld	s6,32(sp)
    80000360:	01813b83          	ld	s7,24(sp)
    80000364:	01013c03          	ld	s8,16(sp)
    80000368:	00813c83          	ld	s9,8(sp)
    8000036c:	00013d03          	ld	s10,0(sp)
    80000370:	000a8513          	mv	a0,s5
    80000374:	02813a83          	ld	s5,40(sp)
    80000378:	06010113          	addi	sp,sp,96
    8000037c:	00008067          	ret

0000000080000380 <core_list_init>:
    80000380:	01400e93          	li	t4,20
    80000384:	03d552bb          	divuw	t0,a0,t4
    80000388:	ff010113          	addi	sp,sp,-16
    8000038c:	00813423          	sd	s0,8(sp)
    80000390:	0005b023          	sd	zero,0(a1)
    80000394:	00058513          	mv	a0,a1
    80000398:	02058793          	addi	a5,a1,32
    8000039c:	01058813          	addi	a6,a1,16
    800003a0:	ffff86b7          	lui	a3,0xffff8
    800003a4:	0806871b          	addiw	a4,a3,128
    800003a8:	ffe28e9b          	addiw	t4,t0,-2
    800003ac:	020e9593          	slli	a1,t4,0x20
    800003b0:	0205d313          	srli	t1,a1,0x20
    800003b4:	00431893          	slli	a7,t1,0x4
    800003b8:	011508b3          	add	a7,a0,a7
    800003bc:	01153423          	sd	a7,8(a0)
    800003c0:	00231393          	slli	t2,t1,0x2
    800003c4:	00089123          	sh	zero,2(a7)
    800003c8:	00e89023          	sh	a4,0(a7)
    800003cc:	000e8f9b          	sext.w	t6,t4
    800003d0:	007885b3          	add	a1,a7,t2
    800003d4:	00488413          	addi	s0,a7,4
    800003d8:	2f17fa63          	bgeu	a5,a7,800006cc <core_list_init+0x34c>
    800003dc:	00888713          	addi	a4,a7,8
    800003e0:	2eb77663          	bgeu	a4,a1,800006cc <core_list_init+0x34c>
    800003e4:	00053823          	sd	zero,16(a0)
    800003e8:	01053023          	sd	a6,0(a0)
    800003ec:	00853c23          	sd	s0,24(a0)
    800003f0:	fff6ce13          	not	t3,a3
    800003f4:	fff00f13          	li	t5,-1
    800003f8:	01e89223          	sh	t5,4(a7)
    800003fc:	01c89323          	sh	t3,6(a7)
    80000400:	240f8063          	beqz	t6,80000640 <core_list_init+0x2c0>
    80000404:	03061293          	slli	t0,a2,0x30
    80000408:	ffff83b7          	lui	t2,0xffff8
    8000040c:	003ff313          	andi	t1,t6,3
    80000410:	0302df13          	srli	t5,t0,0x30
    80000414:	00000693          	li	a3,0
    80000418:	fff3ce13          	not	t3,t2
    8000041c:	10030663          	beqz	t1,80000528 <core_list_init+0x1a8>
    80000420:	00100413          	li	s0,1
    80000424:	0a830463          	beq	t1,s0,800004cc <core_list_init+0x14c>
    80000428:	00200293          	li	t0,2
    8000042c:	04530463          	beq	t1,t0,80000474 <core_list_init+0xf4>
    80000430:	01078313          	addi	t1,a5,16
    80000434:	03137e63          	bgeu	t1,a7,80000470 <core_list_init+0xf0>
    80000438:	00470393          	addi	t2,a4,4
    8000043c:	02b3fa63          	bgeu	t2,a1,80000470 <core_list_init+0xf0>
    80000440:	003f1693          	slli	a3,t5,0x3
    80000444:	0107b023          	sd	a6,0(a5)
    80000448:	0786f413          	andi	s0,a3,120
    8000044c:	00f53023          	sd	a5,0(a0)
    80000450:	00841813          	slli	a6,s0,0x8
    80000454:	00e7b423          	sd	a4,8(a5)
    80000458:	010462b3          	or	t0,s0,a6
    8000045c:	00571023          	sh	t0,0(a4)
    80000460:	01c71123          	sh	t3,2(a4)
    80000464:	00078813          	mv	a6,a5
    80000468:	00038713          	mv	a4,t2
    8000046c:	00030793          	mv	a5,t1
    80000470:	00100693          	li	a3,1
    80000474:	01078393          	addi	t2,a5,16
    80000478:	0513f863          	bgeu	t2,a7,800004c8 <core_list_init+0x148>
    8000047c:	00470413          	addi	s0,a4,4
    80000480:	04b47463          	bgeu	s0,a1,800004c8 <core_list_init+0x148>
    80000484:	03069313          	slli	t1,a3,0x30
    80000488:	03035293          	srli	t0,t1,0x30
    8000048c:	005f4333          	xor	t1,t5,t0
    80000490:	00331313          	slli	t1,t1,0x3
    80000494:	07837313          	andi	t1,t1,120
    80000498:	0072f293          	andi	t0,t0,7
    8000049c:	0107b023          	sd	a6,0(a5)
    800004a0:	00536833          	or	a6,t1,t0
    800004a4:	00f53023          	sd	a5,0(a0)
    800004a8:	00881313          	slli	t1,a6,0x8
    800004ac:	00e7b423          	sd	a4,8(a5)
    800004b0:	006862b3          	or	t0,a6,t1
    800004b4:	00571023          	sh	t0,0(a4)
    800004b8:	01c71123          	sh	t3,2(a4)
    800004bc:	00078813          	mv	a6,a5
    800004c0:	00040713          	mv	a4,s0
    800004c4:	00038793          	mv	a5,t2
    800004c8:	0016869b          	addiw	a3,a3,1
    800004cc:	01078393          	addi	t2,a5,16
    800004d0:	0513f863          	bgeu	t2,a7,80000520 <core_list_init+0x1a0>
    800004d4:	00470413          	addi	s0,a4,4
    800004d8:	04b47463          	bgeu	s0,a1,80000520 <core_list_init+0x1a0>
    800004dc:	03069313          	slli	t1,a3,0x30
    800004e0:	03035293          	srli	t0,t1,0x30
    800004e4:	005f4333          	xor	t1,t5,t0
    800004e8:	00331313          	slli	t1,t1,0x3
    800004ec:	07837313          	andi	t1,t1,120
    800004f0:	0072f293          	andi	t0,t0,7
    800004f4:	0107b023          	sd	a6,0(a5)
    800004f8:	00536833          	or	a6,t1,t0
    800004fc:	00f53023          	sd	a5,0(a0)
    80000500:	00881313          	slli	t1,a6,0x8
    80000504:	00e7b423          	sd	a4,8(a5)
    80000508:	006862b3          	or	t0,a6,t1
    8000050c:	00571023          	sh	t0,0(a4)
    80000510:	01c71123          	sh	t3,2(a4)
    80000514:	00078813          	mv	a6,a5
    80000518:	00040713          	mv	a4,s0
    8000051c:	00038793          	mv	a5,t2
    80000520:	0016869b          	addiw	a3,a3,1
    80000524:	10df8e63          	beq	t6,a3,80000640 <core_list_init+0x2c0>
    80000528:	01078393          	addi	t2,a5,16
    8000052c:	0513f863          	bgeu	t2,a7,8000057c <core_list_init+0x1fc>
    80000530:	00470413          	addi	s0,a4,4
    80000534:	04b47463          	bgeu	s0,a1,8000057c <core_list_init+0x1fc>
    80000538:	03069313          	slli	t1,a3,0x30
    8000053c:	03035293          	srli	t0,t1,0x30
    80000540:	005f4333          	xor	t1,t5,t0
    80000544:	00331313          	slli	t1,t1,0x3
    80000548:	07837313          	andi	t1,t1,120
    8000054c:	0072f293          	andi	t0,t0,7
    80000550:	0107b023          	sd	a6,0(a5)
    80000554:	00536833          	or	a6,t1,t0
    80000558:	00f53023          	sd	a5,0(a0)
    8000055c:	00881313          	slli	t1,a6,0x8
    80000560:	00e7b423          	sd	a4,8(a5)
    80000564:	006862b3          	or	t0,a6,t1
    80000568:	00571023          	sh	t0,0(a4)
    8000056c:	01c71123          	sh	t3,2(a4)
    80000570:	00078813          	mv	a6,a5
    80000574:	00040713          	mv	a4,s0
    80000578:	00038793          	mv	a5,t2
    8000057c:	01078393          	addi	t2,a5,16
    80000580:	0016869b          	addiw	a3,a3,1
    80000584:	0513f863          	bgeu	t2,a7,800005d4 <core_list_init+0x254>
    80000588:	00470413          	addi	s0,a4,4
    8000058c:	04b47463          	bgeu	s0,a1,800005d4 <core_list_init+0x254>
    80000590:	03069313          	slli	t1,a3,0x30
    80000594:	03035293          	srli	t0,t1,0x30
    80000598:	005f4333          	xor	t1,t5,t0
    8000059c:	00331313          	slli	t1,t1,0x3
    800005a0:	07837313          	andi	t1,t1,120
    800005a4:	0072f293          	andi	t0,t0,7
    800005a8:	0107b023          	sd	a6,0(a5)
    800005ac:	00536833          	or	a6,t1,t0
    800005b0:	00f53023          	sd	a5,0(a0)
    800005b4:	00881313          	slli	t1,a6,0x8
    800005b8:	00e7b423          	sd	a4,8(a5)
    800005bc:	006862b3          	or	t0,a6,t1
    800005c0:	00571023          	sh	t0,0(a4)
    800005c4:	01c71123          	sh	t3,2(a4)
    800005c8:	00078813          	mv	a6,a5
    800005cc:	00040713          	mv	a4,s0
    800005d0:	00038793          	mv	a5,t2
    800005d4:	01078393          	addi	t2,a5,16
    800005d8:	0016869b          	addiw	a3,a3,1
    800005dc:	0513f863          	bgeu	t2,a7,8000062c <core_list_init+0x2ac>
    800005e0:	00470413          	addi	s0,a4,4
    800005e4:	04b47463          	bgeu	s0,a1,8000062c <core_list_init+0x2ac>
    800005e8:	03069313          	slli	t1,a3,0x30
    800005ec:	03035293          	srli	t0,t1,0x30
    800005f0:	005f4333          	xor	t1,t5,t0
    800005f4:	00331313          	slli	t1,t1,0x3
    800005f8:	07837313          	andi	t1,t1,120
    800005fc:	0072f293          	andi	t0,t0,7
    80000600:	0107b023          	sd	a6,0(a5)
    80000604:	00536833          	or	a6,t1,t0
    80000608:	00f53023          	sd	a5,0(a0)
    8000060c:	00881313          	slli	t1,a6,0x8
    80000610:	00e7b423          	sd	a4,8(a5)
    80000614:	006862b3          	or	t0,a6,t1
    80000618:	00571023          	sh	t0,0(a4)
    8000061c:	01c71123          	sh	t3,2(a4)
    80000620:	00078813          	mv	a6,a5
    80000624:	00040713          	mv	a4,s0
    80000628:	00038793          	mv	a5,t2
    8000062c:	01078393          	addi	t2,a5,16
    80000630:	0016869b          	addiw	a3,a3,1
    80000634:	eb13e0e3          	bltu	t2,a7,800004d4 <core_list_init+0x154>
    80000638:	0016869b          	addiw	a3,a3,1
    8000063c:	eedf96e3          	bne	t6,a3,80000528 <core_list_init+0x1a8>
    80000640:	00083883          	ld	a7,0(a6)
    80000644:	06088863          	beqz	a7,800006b4 <core_list_init+0x334>
    80000648:	00500793          	li	a5,5
    8000064c:	00004737          	lui	a4,0x4
    80000650:	02fedebb          	divuw	t4,t4,a5
    80000654:	00100693          	li	a3,1
    80000658:	fff70593          	addi	a1,a4,-1 # 3fff <_start-0x7fffc001>
    8000065c:	01c0006f          	j	80000678 <core_list_init+0x2f8>
    80000660:	0008b703          	ld	a4,0(a7)
    80000664:	00d81123          	sh	a3,2(a6)
    80000668:	00088813          	mv	a6,a7
    8000066c:	0016869b          	addiw	a3,a3,1
    80000670:	04070263          	beqz	a4,800006b4 <core_list_init+0x334>
    80000674:	00070893          	mv	a7,a4
    80000678:	03069f93          	slli	t6,a3,0x30
    8000067c:	030fdf13          	srli	t5,t6,0x30
    80000680:	001f0e1b          	addiw	t3,t5,1
    80000684:	008e139b          	slliw	t2,t3,0x8
    80000688:	7003f413          	andi	s0,t2,1792
    8000068c:	00cf4333          	xor	t1,t5,a2
    80000690:	006462b3          	or	t0,s0,t1
    80000694:	00883803          	ld	a6,8(a6)
    80000698:	00b2f7b3          	and	a5,t0,a1
    8000069c:	fdd6e2e3          	bltu	a3,t4,80000660 <core_list_init+0x2e0>
    800006a0:	0008b703          	ld	a4,0(a7)
    800006a4:	00f81123          	sh	a5,2(a6)
    800006a8:	0016869b          	addiw	a3,a3,1
    800006ac:	00088813          	mv	a6,a7
    800006b0:	fc0712e3          	bnez	a4,80000674 <core_list_init+0x2f4>
    800006b4:	00813403          	ld	s0,8(sp)
    800006b8:	00000613          	li	a2,0
    800006bc:	00000597          	auipc	a1,0x0
    800006c0:	95458593          	addi	a1,a1,-1708 # 80000010 <cmp_idx>
    800006c4:	01010113          	addi	sp,sp,16
    800006c8:	ad5ff06f          	j	8000019c <core_list_mergesort>
    800006cc:	00080793          	mv	a5,a6
    800006d0:	00040713          	mv	a4,s0
    800006d4:	00000813          	li	a6,0
    800006d8:	d29ff06f          	j	80000400 <core_list_init+0x80>

00000000800006dc <core_init_matrix>:
    800006dc:	fd010113          	addi	sp,sp,-48
    800006e0:	02813423          	sd	s0,40(sp)
    800006e4:	02913023          	sd	s1,32(sp)
    800006e8:	01213c23          	sd	s2,24(sp)
    800006ec:	01313823          	sd	s3,16(sp)
    800006f0:	01413423          	sd	s4,8(sp)
    800006f4:	00050813          	mv	a6,a0
    800006f8:	00068413          	mv	s0,a3
    800006fc:	00061463          	bnez	a2,80000704 <core_init_matrix+0x28>
    80000700:	00100613          	li	a2,1
    80000704:	fff58593          	addi	a1,a1,-1
    80000708:	ffc5f313          	andi	t1,a1,-4
    8000070c:	00430e93          	addi	t4,t1,4
    80000710:	00000693          	li	a3,0
    80000714:	10080a63          	beqz	a6,80000828 <core_init_matrix+0x14c>
    80000718:	0016871b          	addiw	a4,a3,1
    8000071c:	02e707bb          	mulw	a5,a4,a4
    80000720:	0006851b          	sext.w	a0,a3
    80000724:	0007069b          	sext.w	a3,a4
    80000728:	0037929b          	slliw	t0,a5,0x3
    8000072c:	ff02e6e3          	bltu	t0,a6,80000718 <core_init_matrix+0x3c>
    80000730:	02a503bb          	mulw	t2,a0,a0
    80000734:	0005091b          	sext.w	s2,a0
    80000738:	02039493          	slli	s1,t2,0x20
    8000073c:	01f4d693          	srli	a3,s1,0x1f
    80000740:	00de8333          	add	t1,t4,a3
    80000744:	0e050c63          	beqz	a0,8000083c <core_init_matrix+0x160>
    80000748:	00010f37          	lui	t5,0x10
    8000074c:	00000393          	li	t2,0
    80000750:	00000293          	li	t0,0
    80000754:	00100f93          	li	t6,1
    80000758:	ffff0f13          	addi	t5,t5,-1 # ffff <_start-0x7fff0001>
    8000075c:	fff5049b          	addiw	s1,a0,-1
    80000760:	000f8813          	mv	a6,t6
    80000764:	00000893          	li	a7,0
    80000768:	41f38e3b          	subw	t3,t2,t6
    8000076c:	030607bb          	mulw	a5,a2,a6
    80000770:	03081613          	slli	a2,a6,0x30
    80000774:	03065713          	srli	a4,a2,0x30
    80000778:	010e09bb          	addw	s3,t3,a6
    8000077c:	02099a13          	slli	s4,s3,0x20
    80000780:	01fa5593          	srli	a1,s4,0x1f
    80000784:	00b30a33          	add	s4,t1,a1
    80000788:	00be85b3          	add	a1,t4,a1
    8000078c:	0018889b          	addiw	a7,a7,1
    80000790:	0018081b          	addiw	a6,a6,1
    80000794:	41f7d61b          	sraiw	a2,a5,0x1f
    80000798:	0106599b          	srliw	s3,a2,0x10
    8000079c:	013787bb          	addw	a5,a5,s3
    800007a0:	01e7f633          	and	a2,a5,t5
    800007a4:	4136063b          	subw	a2,a2,s3
    800007a8:	00070993          	mv	s3,a4
    800007ac:	00e6073b          	addw	a4,a2,a4
    800007b0:	03071793          	slli	a5,a4,0x30
    800007b4:	0307d713          	srli	a4,a5,0x30
    800007b8:	013709bb          	addw	s3,a4,s3
    800007bc:	00ea1023          	sh	a4,0(s4)
    800007c0:	0ff9fa13          	andi	s4,s3,255
    800007c4:	01459023          	sh	s4,0(a1)
    800007c8:	faa8e2e3          	bltu	a7,a0,8000076c <core_init_matrix+0x90>
    800007cc:	001f8f9b          	addiw	t6,t6,1
    800007d0:	00000813          	li	a6,0
    800007d4:	00050463          	beqz	a0,800007dc <core_init_matrix+0x100>
    800007d8:	00048813          	mv	a6,s1
    800007dc:	0012829b          	addiw	t0,t0,1
    800007e0:	01f80fbb          	addw	t6,a6,t6
    800007e4:	007503bb          	addw	t2,a0,t2
    800007e8:	f6a2ece3          	bltu	t0,a0,80000760 <core_init_matrix+0x84>
    800007ec:	00d306b3          	add	a3,t1,a3
    800007f0:	fff68393          	addi	t2,a3,-1 # ffffffffffff7fff <_pmem_end+0xffffffff77ff7fff>
    800007f4:	ffc3f293          	andi	t0,t2,-4
    800007f8:	00428f13          	addi	t5,t0,4
    800007fc:	01242023          	sw	s2,0(s0)
    80000800:	01d43423          	sd	t4,8(s0)
    80000804:	00643823          	sd	t1,16(s0)
    80000808:	01e43c23          	sd	t5,24(s0)
    8000080c:	02813403          	ld	s0,40(sp)
    80000810:	02013483          	ld	s1,32(sp)
    80000814:	01813903          	ld	s2,24(sp)
    80000818:	01013983          	ld	s3,16(sp)
    8000081c:	00813a03          	ld	s4,8(sp)
    80000820:	03010113          	addi	sp,sp,48
    80000824:	00008067          	ret
    80000828:	00630313          	addi	t1,t1,6
    8000082c:	fff00913          	li	s2,-1
    80000830:	fff00513          	li	a0,-1
    80000834:	00200693          	li	a3,2
    80000838:	f11ff06f          	j	80000748 <core_init_matrix+0x6c>
    8000083c:	00000913          	li	s2,0
    80000840:	fadff06f          	j	800007ec <core_init_matrix+0x110>

0000000080000844 <matrix_sum>:
    80000844:	22050e63          	beqz	a0,80000a80 <matrix_sum+0x23c>
    80000848:	0006081b          	sext.w	a6,a2
    8000084c:	00050893          	mv	a7,a0
    80000850:	00000313          	li	t1,0
    80000854:	00000e13          	li	t3,0
    80000858:	00000793          	li	a5,0
    8000085c:	00000f13          	li	t5,0
    80000860:	00000713          	li	a4,0
    80000864:	40688633          	sub	a2,a7,t1
    80000868:	00367293          	andi	t0,a2,3
    8000086c:	00030693          	mv	a3,t1
    80000870:	0c028063          	beqz	t0,80000930 <matrix_sum+0xec>
    80000874:	00100e93          	li	t4,1
    80000878:	07d28e63          	beq	t0,t4,800008f4 <matrix_sum+0xb0>
    8000087c:	00200393          	li	t2,2
    80000880:	02728e63          	beq	t0,t2,800008bc <matrix_sum+0x78>
    80000884:	02031693          	slli	a3,t1,0x20
    80000888:	01e6df93          	srli	t6,a3,0x1e
    8000088c:	01f582b3          	add	t0,a1,t6
    80000890:	000f0613          	mv	a2,t5
    80000894:	0002af03          	lw	t5,0(t0)
    80000898:	03079793          	slli	a5,a5,0x30
    8000089c:	0307de93          	srli	t4,a5,0x30
    800008a0:	00ef073b          	addw	a4,t5,a4
    800008a4:	1ce84463          	blt	a6,a4,80000a6c <matrix_sum+0x228>
    800008a8:	01e623b3          	slt	t2,a2,t5
    800008ac:	01d386bb          	addw	a3,t2,t4
    800008b0:	01069f9b          	slliw	t6,a3,0x10
    800008b4:	410fd79b          	sraiw	a5,t6,0x10
    800008b8:	0013069b          	addiw	a3,t1,1
    800008bc:	02069613          	slli	a2,a3,0x20
    800008c0:	01e65e93          	srli	t4,a2,0x1e
    800008c4:	01d583b3          	add	t2,a1,t4
    800008c8:	000f0f93          	mv	t6,t5
    800008cc:	0003af03          	lw	t5,0(t2) # ffffffffffff8000 <_pmem_end+0xffffffff77ff8000>
    800008d0:	03079793          	slli	a5,a5,0x30
    800008d4:	0307d293          	srli	t0,a5,0x30
    800008d8:	00ef073b          	addw	a4,t5,a4
    800008dc:	16e84e63          	blt	a6,a4,80000a58 <matrix_sum+0x214>
    800008e0:	01efa633          	slt	a2,t6,t5
    800008e4:	00560ebb          	addw	t4,a2,t0
    800008e8:	010e939b          	slliw	t2,t4,0x10
    800008ec:	4103d79b          	sraiw	a5,t2,0x10
    800008f0:	0016869b          	addiw	a3,a3,1
    800008f4:	02069293          	slli	t0,a3,0x20
    800008f8:	01e2d613          	srli	a2,t0,0x1e
    800008fc:	00c58633          	add	a2,a1,a2
    80000900:	000f0e93          	mv	t4,t5
    80000904:	00062f03          	lw	t5,0(a2)
    80000908:	03079793          	slli	a5,a5,0x30
    8000090c:	0307d393          	srli	t2,a5,0x30
    80000910:	00ef073b          	addw	a4,t5,a4
    80000914:	0ce84c63          	blt	a6,a4,800009ec <matrix_sum+0x1a8>
    80000918:	01eeaeb3          	slt	t4,t4,t5
    8000091c:	007e8fbb          	addw	t6,t4,t2
    80000920:	010f929b          	slliw	t0,t6,0x10
    80000924:	0016869b          	addiw	a3,a3,1
    80000928:	4102d79b          	sraiw	a5,t0,0x10
    8000092c:	0cd88c63          	beq	a7,a3,80000a04 <matrix_sum+0x1c0>
    80000930:	02069393          	slli	t2,a3,0x20
    80000934:	01e3de93          	srli	t4,t2,0x1e
    80000938:	01d58fb3          	add	t6,a1,t4
    8000093c:	000fa283          	lw	t0,0(t6)
    80000940:	03079613          	slli	a2,a5,0x30
    80000944:	03065393          	srli	t2,a2,0x30
    80000948:	00e2873b          	addw	a4,t0,a4
    8000094c:	0ee85c63          	bge	a6,a4,80000a44 <matrix_sum+0x200>
    80000950:	00a3861b          	addiw	a2,t2,10
    80000954:	0106139b          	slliw	t2,a2,0x10
    80000958:	4103df9b          	sraiw	t6,t2,0x10
    8000095c:	00000713          	li	a4,0
    80000960:	0016869b          	addiw	a3,a3,1
    80000964:	02069f13          	slli	t5,a3,0x20
    80000968:	01ef5793          	srli	a5,t5,0x1e
    8000096c:	00f58eb3          	add	t4,a1,a5
    80000970:	000ea383          	lw	t2,0(t4)
    80000974:	030f9f93          	slli	t6,t6,0x30
    80000978:	030fd613          	srli	a2,t6,0x30
    8000097c:	00e3873b          	addw	a4,t2,a4
    80000980:	0ae85863          	bge	a6,a4,80000a30 <matrix_sum+0x1ec>
    80000984:	00a6071b          	addiw	a4,a2,10
    80000988:	01071e9b          	slliw	t4,a4,0x10
    8000098c:	410edf9b          	sraiw	t6,t4,0x10
    80000990:	00000713          	li	a4,0
    80000994:	0016869b          	addiw	a3,a3,1
    80000998:	02069613          	slli	a2,a3,0x20
    8000099c:	01e65293          	srli	t0,a2,0x1e
    800009a0:	00558f33          	add	t5,a1,t0
    800009a4:	000f2e83          	lw	t4,0(t5)
    800009a8:	030f9793          	slli	a5,t6,0x30
    800009ac:	0307df93          	srli	t6,a5,0x30
    800009b0:	00ee873b          	addw	a4,t4,a4
    800009b4:	06e84463          	blt	a6,a4,80000a1c <matrix_sum+0x1d8>
    800009b8:	01d3a3b3          	slt	t2,t2,t4
    800009bc:	01f3863b          	addw	a2,t2,t6
    800009c0:	0106129b          	slliw	t0,a2,0x10
    800009c4:	4102d79b          	sraiw	a5,t0,0x10
    800009c8:	0016869b          	addiw	a3,a3,1
    800009cc:	02069f93          	slli	t6,a3,0x20
    800009d0:	01efd393          	srli	t2,t6,0x1e
    800009d4:	00758633          	add	a2,a1,t2
    800009d8:	00062f03          	lw	t5,0(a2)
    800009dc:	03079793          	slli	a5,a5,0x30
    800009e0:	0307d393          	srli	t2,a5,0x30
    800009e4:	00ef073b          	addw	a4,t5,a4
    800009e8:	f2e858e3          	bge	a6,a4,80000918 <matrix_sum+0xd4>
    800009ec:	00a3871b          	addiw	a4,t2,10
    800009f0:	0107161b          	slliw	a2,a4,0x10
    800009f4:	0016869b          	addiw	a3,a3,1
    800009f8:	4106579b          	sraiw	a5,a2,0x10
    800009fc:	00000713          	li	a4,0
    80000a00:	f2d898e3          	bne	a7,a3,80000930 <matrix_sum+0xec>
    80000a04:	001e0e1b          	addiw	t3,t3,1
    80000a08:	00a888bb          	addw	a7,a7,a0
    80000a0c:	00a3033b          	addw	t1,t1,a0
    80000a10:	e5c51ae3          	bne	a0,t3,80000864 <matrix_sum+0x20>
    80000a14:	00078513          	mv	a0,a5
    80000a18:	00008067          	ret
    80000a1c:	00af871b          	addiw	a4,t6,10
    80000a20:	01071f1b          	slliw	t5,a4,0x10
    80000a24:	410f579b          	sraiw	a5,t5,0x10
    80000a28:	00000713          	li	a4,0
    80000a2c:	f9dff06f          	j	800009c8 <matrix_sum+0x184>
    80000a30:	0072a2b3          	slt	t0,t0,t2
    80000a34:	00c28f3b          	addw	t5,t0,a2
    80000a38:	010f179b          	slliw	a5,t5,0x10
    80000a3c:	4107df9b          	sraiw	t6,a5,0x10
    80000a40:	f55ff06f          	j	80000994 <matrix_sum+0x150>
    80000a44:	005f2f33          	slt	t5,t5,t0
    80000a48:	007f07bb          	addw	a5,t5,t2
    80000a4c:	01079e9b          	slliw	t4,a5,0x10
    80000a50:	410edf9b          	sraiw	t6,t4,0x10
    80000a54:	f0dff06f          	j	80000960 <matrix_sum+0x11c>
    80000a58:	00a2871b          	addiw	a4,t0,10
    80000a5c:	01071f9b          	slliw	t6,a4,0x10
    80000a60:	410fd79b          	sraiw	a5,t6,0x10
    80000a64:	00000713          	li	a4,0
    80000a68:	e89ff06f          	j	800008f0 <matrix_sum+0xac>
    80000a6c:	00ae871b          	addiw	a4,t4,10
    80000a70:	0107129b          	slliw	t0,a4,0x10
    80000a74:	4102d79b          	sraiw	a5,t0,0x10
    80000a78:	00000713          	li	a4,0
    80000a7c:	e3dff06f          	j	800008b8 <matrix_sum+0x74>
    80000a80:	00000793          	li	a5,0
    80000a84:	00078513          	mv	a0,a5
    80000a88:	00008067          	ret

0000000080000a8c <matrix_mul_const>:
    80000a8c:	16050c63          	beqz	a0,80000c04 <matrix_mul_const+0x178>
    80000a90:	ff010113          	addi	sp,sp,-16
    80000a94:	00813423          	sd	s0,8(sp)
    80000a98:	0006831b          	sext.w	t1,a3
    80000a9c:	00050f13          	mv	t5,a0
    80000aa0:	00000f93          	li	t6,0
    80000aa4:	00000293          	li	t0,0
    80000aa8:	41ff0733          	sub	a4,t5,t6
    80000aac:	00377393          	andi	t2,a4,3
    80000ab0:	000f8793          	mv	a5,t6
    80000ab4:	08038863          	beqz	t2,80000b44 <matrix_mul_const+0xb8>
    80000ab8:	00100693          	li	a3,1
    80000abc:	04d38e63          	beq	t2,a3,80000b18 <matrix_mul_const+0x8c>
    80000ac0:	00200413          	li	s0,2
    80000ac4:	02838663          	beq	t2,s0,80000af0 <matrix_mul_const+0x64>
    80000ac8:	020f9793          	slli	a5,t6,0x20
    80000acc:	0207d813          	srli	a6,a5,0x20
    80000ad0:	00181893          	slli	a7,a6,0x1
    80000ad4:	01160e33          	add	t3,a2,a7
    80000ad8:	000e1e83          	lh	t4,0(t3)
    80000adc:	00281713          	slli	a4,a6,0x2
    80000ae0:	00e583b3          	add	t2,a1,a4
    80000ae4:	026e86bb          	mulw	a3,t4,t1
    80000ae8:	001f879b          	addiw	a5,t6,1
    80000aec:	00d3a023          	sw	a3,0(t2)
    80000af0:	02079413          	slli	s0,a5,0x20
    80000af4:	02045813          	srli	a6,s0,0x20
    80000af8:	00181893          	slli	a7,a6,0x1
    80000afc:	01160e33          	add	t3,a2,a7
    80000b00:	000e1e83          	lh	t4,0(t3)
    80000b04:	00281713          	slli	a4,a6,0x2
    80000b08:	00e583b3          	add	t2,a1,a4
    80000b0c:	026e86bb          	mulw	a3,t4,t1
    80000b10:	0017879b          	addiw	a5,a5,1
    80000b14:	00d3a023          	sw	a3,0(t2)
    80000b18:	02079413          	slli	s0,a5,0x20
    80000b1c:	02045813          	srli	a6,s0,0x20
    80000b20:	00181893          	slli	a7,a6,0x1
    80000b24:	01160e33          	add	t3,a2,a7
    80000b28:	000e1e83          	lh	t4,0(t3)
    80000b2c:	00281713          	slli	a4,a6,0x2
    80000b30:	00e583b3          	add	t2,a1,a4
    80000b34:	026e86bb          	mulw	a3,t4,t1
    80000b38:	0017879b          	addiw	a5,a5,1
    80000b3c:	00d3a023          	sw	a3,0(t2)
    80000b40:	0aff0463          	beq	t5,a5,80000be8 <matrix_mul_const+0x15c>
    80000b44:	00178e1b          	addiw	t3,a5,1
    80000b48:	02079413          	slli	s0,a5,0x20
    80000b4c:	001e0e9b          	addiw	t4,t3,1
    80000b50:	02045893          	srli	a7,s0,0x20
    80000b54:	020e1813          	slli	a6,t3,0x20
    80000b58:	00189713          	slli	a4,a7,0x1
    80000b5c:	020e9393          	slli	t2,t4,0x20
    80000b60:	02085813          	srli	a6,a6,0x20
    80000b64:	001e879b          	addiw	a5,t4,1
    80000b68:	0203d693          	srli	a3,t2,0x20
    80000b6c:	00181e13          	slli	t3,a6,0x1
    80000b70:	02079e93          	slli	t4,a5,0x20
    80000b74:	00e60433          	add	s0,a2,a4
    80000b78:	00041403          	lh	s0,0(s0)
    80000b7c:	020ed713          	srli	a4,t4,0x20
    80000b80:	01c603b3          	add	t2,a2,t3
    80000b84:	00169e13          	slli	t3,a3,0x1
    80000b88:	00039383          	lh	t2,0(t2)
    80000b8c:	01c60eb3          	add	t4,a2,t3
    80000b90:	00171e13          	slli	t3,a4,0x1
    80000b94:	000e9e83          	lh	t4,0(t4)
    80000b98:	01c60e33          	add	t3,a2,t3
    80000b9c:	000e1e03          	lh	t3,0(t3)
    80000ba0:	0264043b          	mulw	s0,s0,t1
    80000ba4:	00289893          	slli	a7,a7,0x2
    80000ba8:	011588b3          	add	a7,a1,a7
    80000bac:	00281813          	slli	a6,a6,0x2
    80000bb0:	01058833          	add	a6,a1,a6
    80000bb4:	00269693          	slli	a3,a3,0x2
    80000bb8:	00d586b3          	add	a3,a1,a3
    80000bbc:	00271713          	slli	a4,a4,0x2
    80000bc0:	00e58733          	add	a4,a1,a4
    80000bc4:	0017879b          	addiw	a5,a5,1
    80000bc8:	026383bb          	mulw	t2,t2,t1
    80000bcc:	0088a023          	sw	s0,0(a7)
    80000bd0:	026e8ebb          	mulw	t4,t4,t1
    80000bd4:	00782023          	sw	t2,0(a6)
    80000bd8:	026e0e3b          	mulw	t3,t3,t1
    80000bdc:	01d6a023          	sw	t4,0(a3)
    80000be0:	01c72023          	sw	t3,0(a4)
    80000be4:	f6ff10e3          	bne	t5,a5,80000b44 <matrix_mul_const+0xb8>
    80000be8:	0012829b          	addiw	t0,t0,1
    80000bec:	01f50fbb          	addw	t6,a0,t6
    80000bf0:	01e50f3b          	addw	t5,a0,t5
    80000bf4:	ea551ae3          	bne	a0,t0,80000aa8 <matrix_mul_const+0x1c>
    80000bf8:	00813403          	ld	s0,8(sp)
    80000bfc:	01010113          	addi	sp,sp,16
    80000c00:	00008067          	ret
    80000c04:	00008067          	ret

0000000080000c08 <matrix_add_const>:
    80000c08:	22050863          	beqz	a0,80000e38 <matrix_add_const+0x230>
    80000c0c:	03061713          	slli	a4,a2,0x30
    80000c10:	03075713          	srli	a4,a4,0x30
    80000c14:	00050813          	mv	a6,a0
    80000c18:	00000893          	li	a7,0
    80000c1c:	00000313          	li	t1,0
    80000c20:	411806b3          	sub	a3,a6,a7
    80000c24:	0076f293          	andi	t0,a3,7
    80000c28:	00088793          	mv	a5,a7
    80000c2c:	0e028e63          	beqz	t0,80000d28 <matrix_add_const+0x120>
    80000c30:	00100613          	li	a2,1
    80000c34:	0cc28a63          	beq	t0,a2,80000d08 <matrix_add_const+0x100>
    80000c38:	00200393          	li	t2,2
    80000c3c:	0a728863          	beq	t0,t2,80000cec <matrix_add_const+0xe4>
    80000c40:	00300e13          	li	t3,3
    80000c44:	09c28663          	beq	t0,t3,80000cd0 <matrix_add_const+0xc8>
    80000c48:	00400e93          	li	t4,4
    80000c4c:	07d28463          	beq	t0,t4,80000cb4 <matrix_add_const+0xac>
    80000c50:	00500f13          	li	t5,5
    80000c54:	05e28263          	beq	t0,t5,80000c98 <matrix_add_const+0x90>
    80000c58:	00600f93          	li	t6,6
    80000c5c:	03f28063          	beq	t0,t6,80000c7c <matrix_add_const+0x74>
    80000c60:	02089793          	slli	a5,a7,0x20
    80000c64:	01f7d693          	srli	a3,a5,0x1f
    80000c68:	00d582b3          	add	t0,a1,a3
    80000c6c:	0002d603          	lhu	a2,0(t0)
    80000c70:	0018879b          	addiw	a5,a7,1
    80000c74:	00e603bb          	addw	t2,a2,a4
    80000c78:	00729023          	sh	t2,0(t0)
    80000c7c:	02079e13          	slli	t3,a5,0x20
    80000c80:	01fe5e93          	srli	t4,t3,0x1f
    80000c84:	01d58f33          	add	t5,a1,t4
    80000c88:	000f5f83          	lhu	t6,0(t5)
    80000c8c:	0017879b          	addiw	a5,a5,1
    80000c90:	00ef86bb          	addw	a3,t6,a4
    80000c94:	00df1023          	sh	a3,0(t5)
    80000c98:	02079293          	slli	t0,a5,0x20
    80000c9c:	01f2d613          	srli	a2,t0,0x1f
    80000ca0:	00c583b3          	add	t2,a1,a2
    80000ca4:	0003de03          	lhu	t3,0(t2)
    80000ca8:	0017879b          	addiw	a5,a5,1
    80000cac:	00ee0ebb          	addw	t4,t3,a4
    80000cb0:	01d39023          	sh	t4,0(t2)
    80000cb4:	02079f13          	slli	t5,a5,0x20
    80000cb8:	01ff5f93          	srli	t6,t5,0x1f
    80000cbc:	01f586b3          	add	a3,a1,t6
    80000cc0:	0006d283          	lhu	t0,0(a3)
    80000cc4:	0017879b          	addiw	a5,a5,1
    80000cc8:	00e2863b          	addw	a2,t0,a4
    80000ccc:	00c69023          	sh	a2,0(a3)
    80000cd0:	02079393          	slli	t2,a5,0x20
    80000cd4:	01f3de13          	srli	t3,t2,0x1f
    80000cd8:	01c58eb3          	add	t4,a1,t3
    80000cdc:	000edf03          	lhu	t5,0(t4)
    80000ce0:	0017879b          	addiw	a5,a5,1
    80000ce4:	00ef0fbb          	addw	t6,t5,a4
    80000ce8:	01fe9023          	sh	t6,0(t4)
    80000cec:	02079693          	slli	a3,a5,0x20
    80000cf0:	01f6d293          	srli	t0,a3,0x1f
    80000cf4:	005583b3          	add	t2,a1,t0
    80000cf8:	0003d603          	lhu	a2,0(t2)
    80000cfc:	0017879b          	addiw	a5,a5,1
    80000d00:	00e60e3b          	addw	t3,a2,a4
    80000d04:	01c39023          	sh	t3,0(t2)
    80000d08:	02079e93          	slli	t4,a5,0x20
    80000d0c:	01fedf13          	srli	t5,t4,0x1f
    80000d10:	01e58fb3          	add	t6,a1,t5
    80000d14:	000fd683          	lhu	a3,0(t6)
    80000d18:	0017879b          	addiw	a5,a5,1
    80000d1c:	00e682bb          	addw	t0,a3,a4
    80000d20:	005f9023          	sh	t0,0(t6)
    80000d24:	10f80263          	beq	a6,a5,80000e28 <matrix_add_const+0x220>
    80000d28:	02079393          	slli	t2,a5,0x20
    80000d2c:	01f3d613          	srli	a2,t2,0x1f
    80000d30:	00c58eb3          	add	t4,a1,a2
    80000d34:	000ede03          	lhu	t3,0(t4)
    80000d38:	00178f1b          	addiw	t5,a5,1
    80000d3c:	020f1f93          	slli	t6,t5,0x20
    80000d40:	020fd693          	srli	a3,t6,0x20
    80000d44:	00ee07bb          	addw	a5,t3,a4
    80000d48:	00169293          	slli	t0,a3,0x1
    80000d4c:	00fe9023          	sh	a5,0(t4)
    80000d50:	005583b3          	add	t2,a1,t0
    80000d54:	0003de83          	lhu	t4,0(t2)
    80000d58:	001f0f1b          	addiw	t5,t5,1
    80000d5c:	020f1613          	slli	a2,t5,0x20
    80000d60:	02065f93          	srli	t6,a2,0x20
    80000d64:	00ee8e3b          	addw	t3,t4,a4
    80000d68:	001f9693          	slli	a3,t6,0x1
    80000d6c:	01c39023          	sh	t3,0(t2)
    80000d70:	00d582b3          	add	t0,a1,a3
    80000d74:	0002d383          	lhu	t2,0(t0)
    80000d78:	001f079b          	addiw	a5,t5,1
    80000d7c:	02079e93          	slli	t4,a5,0x20
    80000d80:	020edf13          	srli	t5,t4,0x20
    80000d84:	00e3863b          	addw	a2,t2,a4
    80000d88:	001f1f93          	slli	t6,t5,0x1
    80000d8c:	00c29023          	sh	a2,0(t0)
    80000d90:	01f586b3          	add	a3,a1,t6
    80000d94:	0006de03          	lhu	t3,0(a3)
    80000d98:	0017829b          	addiw	t0,a5,1
    80000d9c:	02029393          	slli	t2,t0,0x20
    80000da0:	0203d793          	srli	a5,t2,0x20
    80000da4:	00ee0ebb          	addw	t4,t3,a4
    80000da8:	00179f13          	slli	t5,a5,0x1
    80000dac:	01d69023          	sh	t4,0(a3)
    80000db0:	01e58633          	add	a2,a1,t5
    80000db4:	00065f83          	lhu	t6,0(a2)
    80000db8:	0012829b          	addiw	t0,t0,1
    80000dbc:	02029693          	slli	a3,t0,0x20
    80000dc0:	0206d393          	srli	t2,a3,0x20
    80000dc4:	00ef8e3b          	addw	t3,t6,a4
    80000dc8:	00139793          	slli	a5,t2,0x1
    80000dcc:	01c61023          	sh	t3,0(a2)
    80000dd0:	00f58eb3          	add	t4,a1,a5
    80000dd4:	000edf03          	lhu	t5,0(t4)
    80000dd8:	00128f9b          	addiw	t6,t0,1
    80000ddc:	020f9613          	slli	a2,t6,0x20
    80000de0:	02065293          	srli	t0,a2,0x20
    80000de4:	00ef06bb          	addw	a3,t5,a4
    80000de8:	00129393          	slli	t2,t0,0x1
    80000dec:	00de9023          	sh	a3,0(t4)
    80000df0:	00758eb3          	add	t4,a1,t2
    80000df4:	000ede03          	lhu	t3,0(t4)
    80000df8:	001f879b          	addiw	a5,t6,1
    80000dfc:	02079f13          	slli	t5,a5,0x20
    80000e00:	020f5f93          	srli	t6,t5,0x20
    80000e04:	00ee063b          	addw	a2,t3,a4
    80000e08:	001f9f13          	slli	t5,t6,0x1
    80000e0c:	00ce9023          	sh	a2,0(t4)
    80000e10:	01e58fb3          	add	t6,a1,t5
    80000e14:	000fd683          	lhu	a3,0(t6)
    80000e18:	0017879b          	addiw	a5,a5,1
    80000e1c:	00e682bb          	addw	t0,a3,a4
    80000e20:	005f9023          	sh	t0,0(t6)
    80000e24:	f0f812e3          	bne	a6,a5,80000d28 <matrix_add_const+0x120>
    80000e28:	0013031b          	addiw	t1,t1,1
    80000e2c:	011508bb          	addw	a7,a0,a7
    80000e30:	0105083b          	addw	a6,a0,a6
    80000e34:	de6516e3          	bne	a0,t1,80000c20 <matrix_add_const+0x18>
    80000e38:	00008067          	ret

0000000080000e3c <matrix_mul_vect>:
    80000e3c:	18050463          	beqz	a0,80000fc4 <matrix_mul_vect+0x188>
    80000e40:	fff50f9b          	addiw	t6,a0,-1
    80000e44:	020f9293          	slli	t0,t6,0x20
    80000e48:	fe010113          	addi	sp,sp,-32
    80000e4c:	01e2d313          	srli	t1,t0,0x1e
    80000e50:	00458793          	addi	a5,a1,4
    80000e54:	00813c23          	sd	s0,24(sp)
    80000e58:	00913823          	sd	s1,16(sp)
    80000e5c:	01213423          	sd	s2,8(sp)
    80000e60:	00058f13          	mv	t5,a1
    80000e64:	00f30fb3          	add	t6,t1,a5
    80000e68:	00050e13          	mv	t3,a0
    80000e6c:	00000e93          	li	t4,0
    80000e70:	41de0733          	sub	a4,t3,t4
    80000e74:	00377393          	andi	t2,a4,3
    80000e78:	00068813          	mv	a6,a3
    80000e7c:	000e8793          	mv	a5,t4
    80000e80:	00000293          	li	t0,0
    80000e84:	08038063          	beqz	t2,80000f04 <matrix_mul_vect+0xc8>
    80000e88:	00100593          	li	a1,1
    80000e8c:	04b38863          	beq	t2,a1,80000edc <matrix_mul_vect+0xa0>
    80000e90:	00200413          	li	s0,2
    80000e94:	02838263          	beq	t2,s0,80000eb8 <matrix_mul_vect+0x7c>
    80000e98:	020e9493          	slli	s1,t4,0x20
    80000e9c:	01f4d813          	srli	a6,s1,0x1f
    80000ea0:	010608b3          	add	a7,a2,a6
    80000ea4:	00089903          	lh	s2,0(a7)
    80000ea8:	00069283          	lh	t0,0(a3)
    80000eac:	001e879b          	addiw	a5,t4,1
    80000eb0:	00268813          	addi	a6,a3,2
    80000eb4:	025902bb          	mulw	t0,s2,t0
    80000eb8:	02079313          	slli	t1,a5,0x20
    80000ebc:	01f35713          	srli	a4,t1,0x1f
    80000ec0:	00e603b3          	add	t2,a2,a4
    80000ec4:	00081583          	lh	a1,0(a6)
    80000ec8:	00039403          	lh	s0,0(t2)
    80000ecc:	0017879b          	addiw	a5,a5,1
    80000ed0:	00280813          	addi	a6,a6,2
    80000ed4:	02b404bb          	mulw	s1,s0,a1
    80000ed8:	005482bb          	addw	t0,s1,t0
    80000edc:	02079893          	slli	a7,a5,0x20
    80000ee0:	01f8d913          	srli	s2,a7,0x1f
    80000ee4:	01260333          	add	t1,a2,s2
    80000ee8:	00081383          	lh	t2,0(a6)
    80000eec:	00031703          	lh	a4,0(t1)
    80000ef0:	0017879b          	addiw	a5,a5,1
    80000ef4:	00280813          	addi	a6,a6,2
    80000ef8:	027705bb          	mulw	a1,a4,t2
    80000efc:	005582bb          	addw	t0,a1,t0
    80000f00:	08fe0e63          	beq	t3,a5,80000f9c <matrix_mul_vect+0x160>
    80000f04:	02079493          	slli	s1,a5,0x20
    80000f08:	0017841b          	addiw	s0,a5,1
    80000f0c:	0204d893          	srli	a7,s1,0x20
    80000f10:	0014091b          	addiw	s2,s0,1
    80000f14:	00189313          	slli	t1,a7,0x1
    80000f18:	02041393          	slli	t2,s0,0x20
    80000f1c:	0203d713          	srli	a4,t2,0x20
    80000f20:	0019079b          	addiw	a5,s2,1
    80000f24:	00660433          	add	s0,a2,t1
    80000f28:	02091493          	slli	s1,s2,0x20
    80000f2c:	00041883          	lh	a7,0(s0)
    80000f30:	00171593          	slli	a1,a4,0x1
    80000f34:	0204d313          	srli	t1,s1,0x20
    80000f38:	02079413          	slli	s0,a5,0x20
    80000f3c:	00131713          	slli	a4,t1,0x1
    80000f40:	00081903          	lh	s2,0(a6)
    80000f44:	00b603b3          	add	t2,a2,a1
    80000f48:	02045313          	srli	t1,s0,0x20
    80000f4c:	00039583          	lh	a1,0(t2)
    80000f50:	00281483          	lh	s1,2(a6)
    80000f54:	00e603b3          	add	t2,a2,a4
    80000f58:	00131313          	slli	t1,t1,0x1
    80000f5c:	00039703          	lh	a4,0(t2)
    80000f60:	00481403          	lh	s0,4(a6)
    80000f64:	00660333          	add	t1,a2,t1
    80000f68:	0328893b          	mulw	s2,a7,s2
    80000f6c:	00681383          	lh	t2,6(a6)
    80000f70:	00031303          	lh	t1,0(t1)
    80000f74:	0017879b          	addiw	a5,a5,1
    80000f78:	00880813          	addi	a6,a6,8
    80000f7c:	029584bb          	mulw	s1,a1,s1
    80000f80:	005902bb          	addw	t0,s2,t0
    80000f84:	0287043b          	mulw	s0,a4,s0
    80000f88:	005485bb          	addw	a1,s1,t0
    80000f8c:	027308bb          	mulw	a7,t1,t2
    80000f90:	00b4073b          	addw	a4,s0,a1
    80000f94:	00e882bb          	addw	t0,a7,a4
    80000f98:	f6fe16e3          	bne	t3,a5,80000f04 <matrix_mul_vect+0xc8>
    80000f9c:	005f2023          	sw	t0,0(t5)
    80000fa0:	004f0f13          	addi	t5,t5,4
    80000fa4:	01d50ebb          	addw	t4,a0,t4
    80000fa8:	01c50e3b          	addw	t3,a0,t3
    80000fac:	edef92e3          	bne	t6,t5,80000e70 <matrix_mul_vect+0x34>
    80000fb0:	01813403          	ld	s0,24(sp)
    80000fb4:	01013483          	ld	s1,16(sp)
    80000fb8:	00813903          	ld	s2,8(sp)
    80000fbc:	02010113          	addi	sp,sp,32
    80000fc0:	00008067          	ret
    80000fc4:	00008067          	ret

0000000080000fc8 <matrix_mul_matrix>:
    80000fc8:	24050c63          	beqz	a0,80001220 <matrix_mul_matrix+0x258>
    80000fcc:	fc010113          	addi	sp,sp,-64
    80000fd0:	02813c23          	sd	s0,56(sp)
    80000fd4:	02913823          	sd	s1,48(sp)
    80000fd8:	03213423          	sd	s2,40(sp)
    80000fdc:	03313023          	sd	s3,32(sp)
    80000fe0:	01413c23          	sd	s4,24(sp)
    80000fe4:	01513823          	sd	s5,16(sp)
    80000fe8:	01613423          	sd	s6,8(sp)
    80000fec:	00058f93          	mv	t6,a1
    80000ff0:	00060893          	mv	a7,a2
    80000ff4:	00068813          	mv	a6,a3
    80000ff8:	00050e93          	mv	t4,a0
    80000ffc:	00000f13          	li	t5,0
    80001000:	00000293          	li	t0,0
    80001004:	00000e13          	li	t3,0
    80001008:	01ee033b          	addw	t1,t3,t5
    8000100c:	02031393          	slli	t2,t1,0x20
    80001010:	0203d413          	srli	s0,t2,0x20
    80001014:	41ee8733          	sub	a4,t4,t5
    80001018:	00241493          	slli	s1,s0,0x2
    8000101c:	00377593          	andi	a1,a4,3
    80001020:	009f8333          	add	t1,t6,s1
    80001024:	000e0913          	mv	s2,t3
    80001028:	000f0793          	mv	a5,t5
    8000102c:	00000393          	li	t2,0
    80001030:	0a058e63          	beqz	a1,800010ec <matrix_mul_matrix+0x124>
    80001034:	00100693          	li	a3,1
    80001038:	06d58c63          	beq	a1,a3,800010b0 <matrix_mul_matrix+0xe8>
    8000103c:	00200613          	li	a2,2
    80001040:	02c58c63          	beq	a1,a2,80001078 <matrix_mul_matrix+0xb0>
    80001044:	020f1793          	slli	a5,t5,0x20
    80001048:	020e1993          	slli	s3,t3,0x20
    8000104c:	0207d913          	srli	s2,a5,0x20
    80001050:	0209da13          	srli	s4,s3,0x20
    80001054:	00191a93          	slli	s5,s2,0x1
    80001058:	001a1b13          	slli	s6,s4,0x1
    8000105c:	015883b3          	add	t2,a7,s5
    80001060:	01680433          	add	s0,a6,s6
    80001064:	00039483          	lh	s1,0(t2)
    80001068:	00041703          	lh	a4,0(s0)
    8000106c:	001f079b          	addiw	a5,t5,1
    80001070:	01c5093b          	addw	s2,a0,t3
    80001074:	02e483bb          	mulw	t2,s1,a4
    80001078:	02079593          	slli	a1,a5,0x20
    8000107c:	02091613          	slli	a2,s2,0x20
    80001080:	0205d693          	srli	a3,a1,0x20
    80001084:	02065993          	srli	s3,a2,0x20
    80001088:	00169a13          	slli	s4,a3,0x1
    8000108c:	00199a93          	slli	s5,s3,0x1
    80001090:	01488b33          	add	s6,a7,s4
    80001094:	01580433          	add	s0,a6,s5
    80001098:	000b1483          	lh	s1,0(s6)
    8000109c:	00041703          	lh	a4,0(s0)
    800010a0:	0017879b          	addiw	a5,a5,1
    800010a4:	0125093b          	addw	s2,a0,s2
    800010a8:	02e485bb          	mulw	a1,s1,a4
    800010ac:	007583bb          	addw	t2,a1,t2
    800010b0:	02079693          	slli	a3,a5,0x20
    800010b4:	02091993          	slli	s3,s2,0x20
    800010b8:	0206d613          	srli	a2,a3,0x20
    800010bc:	0209da13          	srli	s4,s3,0x20
    800010c0:	00161a93          	slli	s5,a2,0x1
    800010c4:	001a1b13          	slli	s6,s4,0x1
    800010c8:	01588433          	add	s0,a7,s5
    800010cc:	016804b3          	add	s1,a6,s6
    800010d0:	00041583          	lh	a1,0(s0)
    800010d4:	00049703          	lh	a4,0(s1)
    800010d8:	0017879b          	addiw	a5,a5,1
    800010dc:	0125093b          	addw	s2,a0,s2
    800010e0:	02e586bb          	mulw	a3,a1,a4
    800010e4:	007683bb          	addw	t2,a3,t2
    800010e8:	0efe8463          	beq	t4,a5,800011d0 <matrix_mul_matrix+0x208>
    800010ec:	02079a13          	slli	s4,a5,0x20
    800010f0:	02091b13          	slli	s6,s2,0x20
    800010f4:	0017899b          	addiw	s3,a5,1
    800010f8:	0125063b          	addw	a2,a0,s2
    800010fc:	020a5a93          	srli	s5,s4,0x20
    80001100:	020b5413          	srli	s0,s6,0x20
    80001104:	0019869b          	addiw	a3,s3,1
    80001108:	00c5073b          	addw	a4,a0,a2
    8000110c:	001a9493          	slli	s1,s5,0x1
    80001110:	00141913          	slli	s2,s0,0x1
    80001114:	02099593          	slli	a1,s3,0x20
    80001118:	02061793          	slli	a5,a2,0x20
    8000111c:	00e5043b          	addw	s0,a0,a4
    80001120:	0205d993          	srli	s3,a1,0x20
    80001124:	0207d613          	srli	a2,a5,0x20
    80001128:	01280ab3          	add	s5,a6,s2
    8000112c:	0016879b          	addiw	a5,a3,1
    80001130:	00988a33          	add	s4,a7,s1
    80001134:	02069693          	slli	a3,a3,0x20
    80001138:	02071713          	slli	a4,a4,0x20
    8000113c:	000a1483          	lh	s1,0(s4)
    80001140:	00199b13          	slli	s6,s3,0x1
    80001144:	00161913          	slli	s2,a2,0x1
    80001148:	000a9983          	lh	s3,0(s5)
    8000114c:	0206d693          	srli	a3,a3,0x20
    80001150:	02041a93          	slli	s5,s0,0x20
    80001154:	02079a13          	slli	s4,a5,0x20
    80001158:	02075713          	srli	a4,a4,0x20
    8000115c:	01280633          	add	a2,a6,s2
    80001160:	016885b3          	add	a1,a7,s6
    80001164:	00171713          	slli	a4,a4,0x1
    80001168:	00169b13          	slli	s6,a3,0x1
    8000116c:	020ad913          	srli	s2,s5,0x20
    80001170:	020a5a13          	srli	s4,s4,0x20
    80001174:	00061a83          	lh	s5,0(a2)
    80001178:	00059583          	lh	a1,0(a1)
    8000117c:	016886b3          	add	a3,a7,s6
    80001180:	00e80633          	add	a2,a6,a4
    80001184:	001a1a13          	slli	s4,s4,0x1
    80001188:	00191913          	slli	s2,s2,0x1
    8000118c:	00069b03          	lh	s6,0(a3)
    80001190:	00061703          	lh	a4,0(a2)
    80001194:	014886b3          	add	a3,a7,s4
    80001198:	01280a33          	add	s4,a6,s2
    8000119c:	0334863b          	mulw	a2,s1,s3
    800011a0:	00069483          	lh	s1,0(a3)
    800011a4:	000a1983          	lh	s3,0(s4)
    800011a8:	0085093b          	addw	s2,a0,s0
    800011ac:	0017879b          	addiw	a5,a5,1
    800011b0:	0355843b          	mulw	s0,a1,s5
    800011b4:	007603bb          	addw	t2,a2,t2
    800011b8:	02eb05bb          	mulw	a1,s6,a4
    800011bc:	00740abb          	addw	s5,s0,t2
    800011c0:	03348b3b          	mulw	s6,s1,s3
    800011c4:	0155873b          	addw	a4,a1,s5
    800011c8:	00eb03bb          	addw	t2,s6,a4
    800011cc:	f2fe90e3          	bne	t4,a5,800010ec <matrix_mul_matrix+0x124>
    800011d0:	00732023          	sw	t2,0(t1)
    800011d4:	001e031b          	addiw	t1,t3,1
    800011d8:	00650663          	beq	a0,t1,800011e4 <matrix_mul_matrix+0x21c>
    800011dc:	00030e13          	mv	t3,t1
    800011e0:	e29ff06f          	j	80001008 <matrix_mul_matrix+0x40>
    800011e4:	0012879b          	addiw	a5,t0,1
    800011e8:	01e50f3b          	addw	t5,a0,t5
    800011ec:	01d50ebb          	addw	t4,a0,t4
    800011f0:	01c28663          	beq	t0,t3,800011fc <matrix_mul_matrix+0x234>
    800011f4:	00078293          	mv	t0,a5
    800011f8:	e0dff06f          	j	80001004 <matrix_mul_matrix+0x3c>
    800011fc:	03813403          	ld	s0,56(sp)
    80001200:	03013483          	ld	s1,48(sp)
    80001204:	02813903          	ld	s2,40(sp)
    80001208:	02013983          	ld	s3,32(sp)
    8000120c:	01813a03          	ld	s4,24(sp)
    80001210:	01013a83          	ld	s5,16(sp)
    80001214:	00813b03          	ld	s6,8(sp)
    80001218:	04010113          	addi	sp,sp,64
    8000121c:	00008067          	ret
    80001220:	00008067          	ret

0000000080001224 <matrix_mul_matrix_bitextract>:
    80001224:	16050c63          	beqz	a0,8000139c <matrix_mul_matrix_bitextract+0x178>
    80001228:	ff010113          	addi	sp,sp,-16
    8000122c:	00813423          	sd	s0,8(sp)
    80001230:	00050813          	mv	a6,a0
    80001234:	00058293          	mv	t0,a1
    80001238:	00060e13          	mv	t3,a2
    8000123c:	00068313          	mv	t1,a3
    80001240:	00050e93          	mv	t4,a0
    80001244:	00000f93          	li	t6,0
    80001248:	00000393          	li	t2,0
    8000124c:	00000f13          	li	t5,0
    80001250:	01ff08bb          	addw	a7,t5,t6
    80001254:	02089413          	slli	s0,a7,0x20
    80001258:	02045513          	srli	a0,s0,0x20
    8000125c:	41df87b3          	sub	a5,t6,t4
    80001260:	00251593          	slli	a1,a0,0x2
    80001264:	0017f693          	andi	a3,a5,1
    80001268:	00b288b3          	add	a7,t0,a1
    8000126c:	000f8613          	mv	a2,t6
    80001270:	000f0593          	mv	a1,t5
    80001274:	00000413          	li	s0,0
    80001278:	04068863          	beqz	a3,800012c8 <matrix_mul_matrix_bitextract+0xa4>
    8000127c:	020f9613          	slli	a2,t6,0x20
    80001280:	020f1713          	slli	a4,t5,0x20
    80001284:	02065413          	srli	s0,a2,0x20
    80001288:	02075513          	srli	a0,a4,0x20
    8000128c:	00141793          	slli	a5,s0,0x1
    80001290:	00151593          	slli	a1,a0,0x1
    80001294:	00fe06b3          	add	a3,t3,a5
    80001298:	00b30633          	add	a2,t1,a1
    8000129c:	00069403          	lh	s0,0(a3)
    800012a0:	00061703          	lh	a4,0(a2)
    800012a4:	001f861b          	addiw	a2,t6,1
    800012a8:	01e805bb          	addw	a1,a6,t5
    800012ac:	02e4053b          	mulw	a0,s0,a4
    800012b0:	4025569b          	sraiw	a3,a0,0x2
    800012b4:	4055579b          	sraiw	a5,a0,0x5
    800012b8:	00f6f413          	andi	s0,a3,15
    800012bc:	07f7f713          	andi	a4,a5,127
    800012c0:	02e40433          	mul	s0,s0,a4
    800012c4:	0ace8063          	beq	t4,a2,80001364 <matrix_mul_matrix_bitextract+0x140>
    800012c8:	02061513          	slli	a0,a2,0x20
    800012cc:	02055693          	srli	a3,a0,0x20
    800012d0:	0016061b          	addiw	a2,a2,1
    800012d4:	02059793          	slli	a5,a1,0x20
    800012d8:	00169713          	slli	a4,a3,0x1
    800012dc:	00b805bb          	addw	a1,a6,a1
    800012e0:	02061693          	slli	a3,a2,0x20
    800012e4:	0207d513          	srli	a0,a5,0x20
    800012e8:	0206d793          	srli	a5,a3,0x20
    800012ec:	02059693          	slli	a3,a1,0x20
    800012f0:	00151513          	slli	a0,a0,0x1
    800012f4:	0206d693          	srli	a3,a3,0x20
    800012f8:	00ee0733          	add	a4,t3,a4
    800012fc:	00a30533          	add	a0,t1,a0
    80001300:	00179793          	slli	a5,a5,0x1
    80001304:	00169693          	slli	a3,a3,0x1
    80001308:	00051503          	lh	a0,0(a0)
    8000130c:	00071703          	lh	a4,0(a4)
    80001310:	00fe07b3          	add	a5,t3,a5
    80001314:	00d306b3          	add	a3,t1,a3
    80001318:	00069683          	lh	a3,0(a3)
    8000131c:	00079783          	lh	a5,0(a5)
    80001320:	02a7073b          	mulw	a4,a4,a0
    80001324:	0016061b          	addiw	a2,a2,1
    80001328:	00b805bb          	addw	a1,a6,a1
    8000132c:	02d787bb          	mulw	a5,a5,a3
    80001330:	4027551b          	sraiw	a0,a4,0x2
    80001334:	4057571b          	sraiw	a4,a4,0x5
    80001338:	00f57693          	andi	a3,a0,15
    8000133c:	07f77713          	andi	a4,a4,127
    80001340:	4027d51b          	sraiw	a0,a5,0x2
    80001344:	4057d79b          	sraiw	a5,a5,0x5
    80001348:	02e6873b          	mulw	a4,a3,a4
    8000134c:	00f57693          	andi	a3,a0,15
    80001350:	07f7f513          	andi	a0,a5,127
    80001354:	02a687bb          	mulw	a5,a3,a0
    80001358:	0087043b          	addw	s0,a4,s0
    8000135c:	0087843b          	addw	s0,a5,s0
    80001360:	f6ce94e3          	bne	t4,a2,800012c8 <matrix_mul_matrix_bitextract+0xa4>
    80001364:	0088a023          	sw	s0,0(a7)
    80001368:	001f089b          	addiw	a7,t5,1
    8000136c:	01180663          	beq	a6,a7,80001378 <matrix_mul_matrix_bitextract+0x154>
    80001370:	00088f13          	mv	t5,a7
    80001374:	eddff06f          	j	80001250 <matrix_mul_matrix_bitextract+0x2c>
    80001378:	0013861b          	addiw	a2,t2,1
    8000137c:	01f80fbb          	addw	t6,a6,t6
    80001380:	01d80ebb          	addw	t4,a6,t4
    80001384:	01e38663          	beq	t2,t5,80001390 <matrix_mul_matrix_bitextract+0x16c>
    80001388:	00060393          	mv	t2,a2
    8000138c:	ec1ff06f          	j	8000124c <matrix_mul_matrix_bitextract+0x28>
    80001390:	00813403          	ld	s0,8(sp)
    80001394:	01010113          	addi	sp,sp,16
    80001398:	00008067          	ret
    8000139c:	00008067          	ret

00000000800013a0 <core_init_state>:
    800013a0:	ff010113          	addi	sp,sp,-16
    800013a4:	fff5081b          	addiw	a6,a0,-1
    800013a8:	00813423          	sd	s0,8(sp)
    800013ac:	00100793          	li	a5,1
    800013b0:	00080e93          	mv	t4,a6
    800013b4:	1f07fe63          	bgeu	a5,a6,800015b0 <core_init_state+0x210>
    800013b8:	0015859b          	addiw	a1,a1,1
    800013bc:	03059693          	slli	a3,a1,0x30
    800013c0:	0306d693          	srli	a3,a3,0x30
    800013c4:	00000793          	li	a5,0
    800013c8:	00006e17          	auipc	t3,0x6
    800013cc:	a78e0e13          	addi	t3,t3,-1416 # 80006e40 <intpat>
    800013d0:	00700313          	li	t1,7
    800013d4:	00800f93          	li	t6,8
    800013d8:	00400593          	li	a1,4
    800013dc:	00100893          	li	a7,1
    800013e0:	02c00f13          	li	t5,44
    800013e4:	0a00006f          	j	80001484 <core_init_state+0xe4>
    800013e8:	1a75e263          	bltu	a1,t2,8000158c <core_init_state+0x1ec>
    800013ec:	ffd3829b          	addiw	t0,t2,-3
    800013f0:	03029393          	slli	t2,t0,0x30
    800013f4:	00341413          	slli	s0,s0,0x3
    800013f8:	0303d293          	srli	t0,t2,0x30
    800013fc:	008e0733          	add	a4,t3,s0
    80001400:	1658ee63          	bltu	a7,t0,8000157c <core_init_state+0x1dc>
    80001404:	02073703          	ld	a4,32(a4)
    80001408:	00900293          	li	t0,9
    8000140c:	00800393          	li	t2,8
    80001410:	005782bb          	addw	t0,a5,t0
    80001414:	0902fe63          	bgeu	t0,a6,800014b0 <core_init_state+0x110>
    80001418:	00074403          	lbu	s0,0(a4)
    8000141c:	02079793          	slli	a5,a5,0x20
    80001420:	0207d793          	srli	a5,a5,0x20
    80001424:	00f607b3          	add	a5,a2,a5
    80001428:	00878023          	sb	s0,0(a5)
    8000142c:	00174403          	lbu	s0,1(a4)
    80001430:	008780a3          	sb	s0,1(a5)
    80001434:	00274403          	lbu	s0,2(a4)
    80001438:	00878123          	sb	s0,2(a5)
    8000143c:	00374403          	lbu	s0,3(a4)
    80001440:	008781a3          	sb	s0,3(a5)
    80001444:	02b38463          	beq	t2,a1,8000146c <core_init_state+0xcc>
    80001448:	00474403          	lbu	s0,4(a4)
    8000144c:	00878223          	sb	s0,4(a5)
    80001450:	00574403          	lbu	s0,5(a4)
    80001454:	008782a3          	sb	s0,5(a5)
    80001458:	00674403          	lbu	s0,6(a4)
    8000145c:	00878323          	sb	s0,6(a5)
    80001460:	01f39663          	bne	t2,t6,8000146c <core_init_state+0xcc>
    80001464:	00774703          	lbu	a4,7(a4)
    80001468:	00e783a3          	sb	a4,7(a5)
    8000146c:	0016869b          	addiw	a3,a3,1
    80001470:	007783b3          	add	t2,a5,t2
    80001474:	03069793          	slli	a5,a3,0x30
    80001478:	0307d693          	srli	a3,a5,0x30
    8000147c:	01e38023          	sb	t5,0(t2)
    80001480:	00028793          	mv	a5,t0
    80001484:	0036d713          	srli	a4,a3,0x3
    80001488:	0076f393          	andi	t2,a3,7
    8000148c:	00377413          	andi	s0,a4,3
    80001490:	f4639ce3          	bne	t2,t1,800013e8 <core_init_state+0x48>
    80001494:	00341713          	slli	a4,s0,0x3
    80001498:	00900293          	li	t0,9
    8000149c:	00ee03b3          	add	t2,t3,a4
    800014a0:	005782bb          	addw	t0,a5,t0
    800014a4:	0603b703          	ld	a4,96(t2)
    800014a8:	00800393          	li	t2,8
    800014ac:	f702e6e3          	bltu	t0,a6,80001418 <core_init_state+0x78>
    800014b0:	0ca7f063          	bgeu	a5,a0,80001570 <core_init_state+0x1d0>
    800014b4:	02079313          	slli	t1,a5,0x20
    800014b8:	40fe8ebb          	subw	t4,t4,a5
    800014bc:	02035513          	srli	a0,t1,0x20
    800014c0:	00160813          	addi	a6,a2,1
    800014c4:	020e9e13          	slli	t3,t4,0x20
    800014c8:	00a808b3          	add	a7,a6,a0
    800014cc:	020e5f13          	srli	t5,t3,0x20
    800014d0:	00a60633          	add	a2,a2,a0
    800014d4:	01e88fb3          	add	t6,a7,t5
    800014d8:	40cf87b3          	sub	a5,t6,a2
    800014dc:	0077f593          	andi	a1,a5,7
    800014e0:	06058463          	beqz	a1,80001548 <core_init_state+0x1a8>
    800014e4:	00100693          	li	a3,1
    800014e8:	04d58a63          	beq	a1,a3,8000153c <core_init_state+0x19c>
    800014ec:	00200393          	li	t2,2
    800014f0:	04758263          	beq	a1,t2,80001534 <core_init_state+0x194>
    800014f4:	00300413          	li	s0,3
    800014f8:	02858a63          	beq	a1,s0,8000152c <core_init_state+0x18c>
    800014fc:	00400713          	li	a4,4
    80001500:	02e58263          	beq	a1,a4,80001524 <core_init_state+0x184>
    80001504:	00500293          	li	t0,5
    80001508:	00558a63          	beq	a1,t0,8000151c <core_init_state+0x17c>
    8000150c:	00600313          	li	t1,6
    80001510:	08659a63          	bne	a1,t1,800015a4 <core_init_state+0x204>
    80001514:	00060023          	sb	zero,0(a2)
    80001518:	00160613          	addi	a2,a2,1
    8000151c:	00060023          	sb	zero,0(a2)
    80001520:	00160613          	addi	a2,a2,1
    80001524:	00060023          	sb	zero,0(a2)
    80001528:	00160613          	addi	a2,a2,1
    8000152c:	00060023          	sb	zero,0(a2)
    80001530:	00160613          	addi	a2,a2,1
    80001534:	00060023          	sb	zero,0(a2)
    80001538:	00160613          	addi	a2,a2,1
    8000153c:	00060023          	sb	zero,0(a2)
    80001540:	00160613          	addi	a2,a2,1
    80001544:	02cf8663          	beq	t6,a2,80001570 <core_init_state+0x1d0>
    80001548:	00060023          	sb	zero,0(a2)
    8000154c:	000600a3          	sb	zero,1(a2)
    80001550:	00060123          	sb	zero,2(a2)
    80001554:	000601a3          	sb	zero,3(a2)
    80001558:	00060223          	sb	zero,4(a2)
    8000155c:	000602a3          	sb	zero,5(a2)
    80001560:	00060323          	sb	zero,6(a2)
    80001564:	000603a3          	sb	zero,7(a2)
    80001568:	00860613          	addi	a2,a2,8
    8000156c:	fccf9ee3          	bne	t6,a2,80001548 <core_init_state+0x1a8>
    80001570:	00813403          	ld	s0,8(sp)
    80001574:	01010113          	addi	sp,sp,16
    80001578:	00008067          	ret
    8000157c:	00073703          	ld	a4,0(a4)
    80001580:	00500293          	li	t0,5
    80001584:	00400393          	li	t2,4
    80001588:	e89ff06f          	j	80001410 <core_init_state+0x70>
    8000158c:	00341413          	slli	s0,s0,0x3
    80001590:	008e0733          	add	a4,t3,s0
    80001594:	04073703          	ld	a4,64(a4)
    80001598:	00900293          	li	t0,9
    8000159c:	00800393          	li	t2,8
    800015a0:	e71ff06f          	j	80001410 <core_init_state+0x70>
    800015a4:	00060023          	sb	zero,0(a2)
    800015a8:	00160613          	addi	a2,a2,1
    800015ac:	f69ff06f          	j	80001514 <core_init_state+0x174>
    800015b0:	00000793          	li	a5,0
    800015b4:	f01ff06f          	j	800014b4 <core_init_state+0x114>

00000000800015b8 <core_state_transition>:
    800015b8:	00053783          	ld	a5,0(a0)
    800015bc:	00050e13          	mv	t3,a0
    800015c0:	00000513          	li	a0,0
    800015c4:	0007c703          	lbu	a4,0(a5)
    800015c8:	00078813          	mv	a6,a5
    800015cc:	0c070c63          	beqz	a4,800016a4 <core_state_transition+0xec>
    800015d0:	02c00693          	li	a3,44
    800015d4:	00178813          	addi	a6,a5,1
    800015d8:	2ad70863          	beq	a4,a3,80001888 <core_state_transition+0x2d0>
    800015dc:	0005a503          	lw	a0,0(a1)
    800015e0:	fd07061b          	addiw	a2,a4,-48
    800015e4:	0ff67293          	andi	t0,a2,255
    800015e8:	00900893          	li	a7,9
    800015ec:	0015031b          	addiw	t1,a0,1
    800015f0:	0a58ee63          	bltu	a7,t0,800016ac <core_state_transition+0xf4>
    800015f4:	0065a023          	sw	t1,0(a1)
    800015f8:	0017c883          	lbu	a7,1(a5)
    800015fc:	16088063          	beqz	a7,8000175c <core_state_transition+0x1a4>
    80001600:	00278713          	addi	a4,a5,2
    80001604:	14d88a63          	beq	a7,a3,80001758 <core_state_transition+0x1a0>
    80001608:	fd08861b          	addiw	a2,a7,-48
    8000160c:	02e00f13          	li	t5,46
    80001610:	00900f93          	li	t6,9
    80001614:	02c00793          	li	a5,44
    80001618:	0ff67693          	andi	a3,a2,255
    8000161c:	03e88663          	beq	a7,t5,80001648 <core_state_transition+0x90>
    80001620:	0cdfe063          	bltu	t6,a3,800016e0 <core_state_transition+0x128>
    80001624:	00184883          	lbu	a7,1(a6)
    80001628:	00170513          	addi	a0,a4,1
    8000162c:	00070813          	mv	a6,a4
    80001630:	12088463          	beqz	a7,80001758 <core_state_transition+0x1a0>
    80001634:	28f88863          	beq	a7,a5,800018c4 <core_state_transition+0x30c>
    80001638:	fd08861b          	addiw	a2,a7,-48
    8000163c:	00050713          	mv	a4,a0
    80001640:	0ff67693          	andi	a3,a2,255
    80001644:	fde89ee3          	bne	a7,t5,80001620 <core_state_transition+0x68>
    80001648:	0105a303          	lw	t1,16(a1)
    8000164c:	00500513          	li	a0,5
    80001650:	0013039b          	addiw	t2,t1,1
    80001654:	0075a823          	sw	t2,16(a1)
    80001658:	00184303          	lbu	t1,1(a6)
    8000165c:	00070813          	mv	a6,a4
    80001660:	04030263          	beqz	t1,800016a4 <core_state_transition+0xec>
    80001664:	02c00813          	li	a6,44
    80001668:	00170893          	addi	a7,a4,1
    8000166c:	21030863          	beq	t1,a6,8000187c <core_state_transition+0x2c4>
    80001670:	04500e93          	li	t4,69
    80001674:	00900f13          	li	t5,9
    80001678:	02c00f93          	li	t6,44
    8000167c:	fd03079b          	addiw	a5,t1,-48
    80001680:	0df37613          	andi	a2,t1,223
    80001684:	0ff7f693          	andi	a3,a5,255
    80001688:	0dd60e63          	beq	a2,t4,80001764 <core_state_transition+0x1ac>
    8000168c:	1adf7063          	bgeu	t5,a3,8000182c <core_state_transition+0x274>
    80001690:	0145a283          	lw	t0,20(a1)
    80001694:	00088813          	mv	a6,a7
    80001698:	00100513          	li	a0,1
    8000169c:	0012871b          	addiw	a4,t0,1
    800016a0:	00e5aa23          	sw	a4,20(a1)
    800016a4:	010e3023          	sd	a6,0(t3)
    800016a8:	00008067          	ret
    800016ac:	02b00393          	li	t2,43
    800016b0:	04770663          	beq	a4,t2,800016fc <core_state_transition+0x144>
    800016b4:	02d00e93          	li	t4,45
    800016b8:	05d70263          	beq	a4,t4,800016fc <core_state_transition+0x144>
    800016bc:	02e00f13          	li	t5,46
    800016c0:	19e70463          	beq	a4,t5,80001848 <core_state_transition+0x290>
    800016c4:	0045af83          	lw	t6,4(a1)
    800016c8:	0065a023          	sw	t1,0(a1)
    800016cc:	00100513          	li	a0,1
    800016d0:	001f879b          	addiw	a5,t6,1
    800016d4:	00f5a223          	sw	a5,4(a1)
    800016d8:	010e3023          	sd	a6,0(t3)
    800016dc:	00008067          	ret
    800016e0:	0105a283          	lw	t0,16(a1)
    800016e4:	00070813          	mv	a6,a4
    800016e8:	00100513          	li	a0,1
    800016ec:	0012871b          	addiw	a4,t0,1
    800016f0:	00e5a823          	sw	a4,16(a1)
    800016f4:	010e3023          	sd	a6,0(t3)
    800016f8:	00008067          	ret
    800016fc:	0065a023          	sw	t1,0(a1)
    80001700:	0017c603          	lbu	a2,1(a5)
    80001704:	1a060663          	beqz	a2,800018b0 <core_state_transition+0x2f8>
    80001708:	00278813          	addi	a6,a5,2
    8000170c:	1ad60263          	beq	a2,a3,800018b0 <core_state_transition+0x2f8>
    80001710:	0085a683          	lw	a3,8(a1)
    80001714:	fd06071b          	addiw	a4,a2,-48
    80001718:	0ff77293          	andi	t0,a4,255
    8000171c:	00900513          	li	a0,9
    80001720:	0016889b          	addiw	a7,a3,1
    80001724:	00557e63          	bgeu	a0,t0,80001740 <core_state_transition+0x188>
    80001728:	02e00313          	li	t1,46
    8000172c:	12660c63          	beq	a2,t1,80001864 <core_state_transition+0x2ac>
    80001730:	0115a423          	sw	a7,8(a1)
    80001734:	00100513          	li	a0,1
    80001738:	010e3023          	sd	a6,0(t3)
    8000173c:	00008067          	ret
    80001740:	0115a423          	sw	a7,8(a1)
    80001744:	0027c883          	lbu	a7,2(a5)
    80001748:	00088a63          	beqz	a7,8000175c <core_state_transition+0x1a4>
    8000174c:	02c00e93          	li	t4,44
    80001750:	00180713          	addi	a4,a6,1
    80001754:	ebd89ae3          	bne	a7,t4,80001608 <core_state_transition+0x50>
    80001758:	00070813          	mv	a6,a4
    8000175c:	00400513          	li	a0,4
    80001760:	f45ff06f          	j	800016a4 <core_state_transition+0xec>
    80001764:	0145a503          	lw	a0,20(a1)
    80001768:	0015039b          	addiw	t2,a0,1
    8000176c:	0075aa23          	sw	t2,20(a1)
    80001770:	00174e83          	lbu	t4,1(a4)
    80001774:	120e8463          	beqz	t4,8000189c <core_state_transition+0x2e4>
    80001778:	02c00f13          	li	t5,44
    8000177c:	00188813          	addi	a6,a7,1
    80001780:	13ee8063          	beq	t4,t5,800018a0 <core_state_transition+0x2e8>
    80001784:	00c5af83          	lw	t6,12(a1)
    80001788:	fd5e879b          	addiw	a5,t4,-43
    8000178c:	0fd7f613          	andi	a2,a5,253
    80001790:	001f869b          	addiw	a3,t6,1
    80001794:	00d5a623          	sw	a3,12(a1)
    80001798:	00060863          	beqz	a2,800017a8 <core_state_transition+0x1f0>
    8000179c:	00100513          	li	a0,1
    800017a0:	010e3023          	sd	a6,0(t3)
    800017a4:	00008067          	ret
    800017a8:	0018c283          	lbu	t0,1(a7)
    800017ac:	0e028e63          	beqz	t0,800018a8 <core_state_transition+0x2f0>
    800017b0:	00288813          	addi	a6,a7,2
    800017b4:	0fe28a63          	beq	t0,t5,800018a8 <core_state_transition+0x2f0>
    800017b8:	0185a303          	lw	t1,24(a1)
    800017bc:	fd02871b          	addiw	a4,t0,-48
    800017c0:	0ff77513          	andi	a0,a4,255
    800017c4:	00130e9b          	addiw	t4,t1,1
    800017c8:	00900393          	li	t2,9
    800017cc:	01d5ac23          	sw	t4,24(a1)
    800017d0:	fca3e6e3          	bltu	t2,a0,8000179c <core_state_transition+0x1e4>
    800017d4:	0028c283          	lbu	t0,2(a7)
    800017d8:	0a028e63          	beqz	t0,80001894 <core_state_transition+0x2dc>
    800017dc:	00388713          	addi	a4,a7,3
    800017e0:	0be28863          	beq	t0,t5,80001890 <core_state_transition+0x2d8>
    800017e4:	00900893          	li	a7,9
    800017e8:	02c00f13          	li	t5,44
    800017ec:	fd028f9b          	addiw	t6,t0,-48
    800017f0:	0ffff613          	andi	a2,t6,255
    800017f4:	00c8fe63          	bgeu	a7,a2,80001810 <core_state_transition+0x258>
    800017f8:	0045a683          	lw	a3,4(a1)
    800017fc:	00070813          	mv	a6,a4
    80001800:	00100513          	li	a0,1
    80001804:	0016879b          	addiw	a5,a3,1
    80001808:	00f5a223          	sw	a5,4(a1)
    8000180c:	e99ff06f          	j	800016a4 <core_state_transition+0xec>
    80001810:	00184283          	lbu	t0,1(a6)
    80001814:	00170313          	addi	t1,a4,1
    80001818:	00070813          	mv	a6,a4
    8000181c:	06028a63          	beqz	t0,80001890 <core_state_transition+0x2d8>
    80001820:	09e28c63          	beq	t0,t5,800018b8 <core_state_transition+0x300>
    80001824:	00030713          	mv	a4,t1
    80001828:	fc5ff06f          	j	800017ec <core_state_transition+0x234>
    8000182c:	00174303          	lbu	t1,1(a4)
    80001830:	00188813          	addi	a6,a7,1
    80001834:	00088713          	mv	a4,a7
    80001838:	04030263          	beqz	t1,8000187c <core_state_transition+0x2c4>
    8000183c:	05f30263          	beq	t1,t6,80001880 <core_state_transition+0x2c8>
    80001840:	00080893          	mv	a7,a6
    80001844:	e39ff06f          	j	8000167c <core_state_transition+0xc4>
    80001848:	0065a023          	sw	t1,0(a1)
    8000184c:	0017c303          	lbu	t1,1(a5)
    80001850:	02030863          	beqz	t1,80001880 <core_state_transition+0x2c8>
    80001854:	00278893          	addi	a7,a5,2
    80001858:	02d30263          	beq	t1,a3,8000187c <core_state_transition+0x2c4>
    8000185c:	00080713          	mv	a4,a6
    80001860:	e11ff06f          	j	80001670 <core_state_transition+0xb8>
    80001864:	0115a423          	sw	a7,8(a1)
    80001868:	0027c303          	lbu	t1,2(a5)
    8000186c:	00030a63          	beqz	t1,80001880 <core_state_transition+0x2c8>
    80001870:	02c00393          	li	t2,44
    80001874:	00180893          	addi	a7,a6,1
    80001878:	fe7312e3          	bne	t1,t2,8000185c <core_state_transition+0x2a4>
    8000187c:	00088813          	mv	a6,a7
    80001880:	00500513          	li	a0,5
    80001884:	e21ff06f          	j	800016a4 <core_state_transition+0xec>
    80001888:	00000513          	li	a0,0
    8000188c:	e19ff06f          	j	800016a4 <core_state_transition+0xec>
    80001890:	00070813          	mv	a6,a4
    80001894:	00700513          	li	a0,7
    80001898:	e0dff06f          	j	800016a4 <core_state_transition+0xec>
    8000189c:	00088813          	mv	a6,a7
    800018a0:	00300513          	li	a0,3
    800018a4:	e01ff06f          	j	800016a4 <core_state_transition+0xec>
    800018a8:	00600513          	li	a0,6
    800018ac:	df9ff06f          	j	800016a4 <core_state_transition+0xec>
    800018b0:	00200513          	li	a0,2
    800018b4:	df1ff06f          	j	800016a4 <core_state_transition+0xec>
    800018b8:	00030813          	mv	a6,t1
    800018bc:	00700513          	li	a0,7
    800018c0:	de5ff06f          	j	800016a4 <core_state_transition+0xec>
    800018c4:	00050813          	mv	a6,a0
    800018c8:	00400513          	li	a0,4
    800018cc:	dd9ff06f          	j	800016a4 <core_state_transition+0xec>

00000000800018d0 <get_seed_32>:
    800018d0:	00500793          	li	a5,5
    800018d4:	04a7ee63          	bltu	a5,a0,80001930 <get_seed_32+0x60>
    800018d8:	00005717          	auipc	a4,0x5
    800018dc:	55070713          	addi	a4,a4,1360 # 80006e28 <printf_+0x58>
    800018e0:	00251513          	slli	a0,a0,0x2
    800018e4:	00e502b3          	add	t0,a0,a4
    800018e8:	0002a303          	lw	t1,0(t0)
    800018ec:	00e303b3          	add	t2,t1,a4
    800018f0:	00038067          	jr	t2
    800018f4:	00006517          	auipc	a0,0x6
    800018f8:	a1452503          	lw	a0,-1516(a0) # 80007308 <seed5_volatile>
    800018fc:	00008067          	ret
    80001900:	00006517          	auipc	a0,0x6
    80001904:	a1052503          	lw	a0,-1520(a0) # 80007310 <seed1_volatile>
    80001908:	00008067          	ret
    8000190c:	00006517          	auipc	a0,0x6
    80001910:	a0052503          	lw	a0,-1536(a0) # 8000730c <seed2_volatile>
    80001914:	00008067          	ret
    80001918:	00006517          	auipc	a0,0x6
    8000191c:	9d852503          	lw	a0,-1576(a0) # 800072f0 <seed3_volatile>
    80001920:	00008067          	ret
    80001924:	00006517          	auipc	a0,0x6
    80001928:	9c852503          	lw	a0,-1592(a0) # 800072ec <seed4_volatile>
    8000192c:	00008067          	ret
    80001930:	00000513          	li	a0,0
    80001934:	00008067          	ret

0000000080001938 <crcu8>:
    80001938:	00b546b3          	xor	a3,a0,a1
    8000193c:	0016f293          	andi	t0,a3,1
    80001940:	00155713          	srli	a4,a0,0x1
    80001944:	0015d613          	srli	a2,a1,0x1
    80001948:	00028c63          	beqz	t0,80001960 <crcu8+0x28>
    8000194c:	ffffa337          	lui	t1,0xffffa
    80001950:	00130393          	addi	t2,t1,1 # ffffffffffffa001 <_pmem_end+0xffffffff77ffa001>
    80001954:	007647b3          	xor	a5,a2,t2
    80001958:	03079593          	slli	a1,a5,0x30
    8000195c:	0305d613          	srli	a2,a1,0x30
    80001960:	00e64833          	xor	a6,a2,a4
    80001964:	00187893          	andi	a7,a6,1
    80001968:	00255e13          	srli	t3,a0,0x2
    8000196c:	00165293          	srli	t0,a2,0x1
    80001970:	00088c63          	beqz	a7,80001988 <crcu8+0x50>
    80001974:	ffffaeb7          	lui	t4,0xffffa
    80001978:	001e8f13          	addi	t5,t4,1 # ffffffffffffa001 <_pmem_end+0xffffffff77ffa001>
    8000197c:	01e2cfb3          	xor	t6,t0,t5
    80001980:	030f9693          	slli	a3,t6,0x30
    80001984:	0306d293          	srli	t0,a3,0x30
    80001988:	01c2c733          	xor	a4,t0,t3
    8000198c:	00177313          	andi	t1,a4,1
    80001990:	00355393          	srli	t2,a0,0x3
    80001994:	0012d893          	srli	a7,t0,0x1
    80001998:	00030c63          	beqz	t1,800019b0 <crcu8+0x78>
    8000199c:	ffffa5b7          	lui	a1,0xffffa
    800019a0:	00158613          	addi	a2,a1,1 # ffffffffffffa001 <_pmem_end+0xffffffff77ffa001>
    800019a4:	00c8c7b3          	xor	a5,a7,a2
    800019a8:	03079813          	slli	a6,a5,0x30
    800019ac:	03085893          	srli	a7,a6,0x30
    800019b0:	0078ce33          	xor	t3,a7,t2
    800019b4:	001e7e93          	andi	t4,t3,1
    800019b8:	00455f13          	srli	t5,a0,0x4
    800019bc:	0018d313          	srli	t1,a7,0x1
    800019c0:	000e8c63          	beqz	t4,800019d8 <crcu8+0xa0>
    800019c4:	ffffafb7          	lui	t6,0xffffa
    800019c8:	001f8693          	addi	a3,t6,1 # ffffffffffffa001 <_pmem_end+0xffffffff77ffa001>
    800019cc:	00d342b3          	xor	t0,t1,a3
    800019d0:	03029713          	slli	a4,t0,0x30
    800019d4:	03075313          	srli	t1,a4,0x30
    800019d8:	01e343b3          	xor	t2,t1,t5
    800019dc:	0013f593          	andi	a1,t2,1
    800019e0:	00555613          	srli	a2,a0,0x5
    800019e4:	00135e93          	srli	t4,t1,0x1
    800019e8:	00058c63          	beqz	a1,80001a00 <crcu8+0xc8>
    800019ec:	ffffa837          	lui	a6,0xffffa
    800019f0:	00180893          	addi	a7,a6,1 # ffffffffffffa001 <_pmem_end+0xffffffff77ffa001>
    800019f4:	011ec7b3          	xor	a5,t4,a7
    800019f8:	03079e13          	slli	t3,a5,0x30
    800019fc:	030e5e93          	srli	t4,t3,0x30
    80001a00:	00cecf33          	xor	t5,t4,a2
    80001a04:	001f7f93          	andi	t6,t5,1
    80001a08:	00655693          	srli	a3,a0,0x6
    80001a0c:	001ed593          	srli	a1,t4,0x1
    80001a10:	000f8c63          	beqz	t6,80001a28 <crcu8+0xf0>
    80001a14:	ffffa2b7          	lui	t0,0xffffa
    80001a18:	00128713          	addi	a4,t0,1 # ffffffffffffa001 <_pmem_end+0xffffffff77ffa001>
    80001a1c:	00e5c333          	xor	t1,a1,a4
    80001a20:	03031393          	slli	t2,t1,0x30
    80001a24:	0303d593          	srli	a1,t2,0x30
    80001a28:	00d5c633          	xor	a2,a1,a3
    80001a2c:	00167813          	andi	a6,a2,1
    80001a30:	00755893          	srli	a7,a0,0x7
    80001a34:	0015df13          	srli	t5,a1,0x1
    80001a38:	00080c63          	beqz	a6,80001a50 <crcu8+0x118>
    80001a3c:	ffffa7b7          	lui	a5,0xffffa
    80001a40:	00178e13          	addi	t3,a5,1 # ffffffffffffa001 <_pmem_end+0xffffffff77ffa001>
    80001a44:	01cf4533          	xor	a0,t5,t3
    80001a48:	03051e93          	slli	t4,a0,0x30
    80001a4c:	030edf13          	srli	t5,t4,0x30
    80001a50:	001f7f93          	andi	t6,t5,1
    80001a54:	001f5513          	srli	a0,t5,0x1
    80001a58:	011f8c63          	beq	t6,a7,80001a70 <crcu8+0x138>
    80001a5c:	ffffa6b7          	lui	a3,0xffffa
    80001a60:	00168293          	addi	t0,a3,1 # ffffffffffffa001 <_pmem_end+0xffffffff77ffa001>
    80001a64:	00554733          	xor	a4,a0,t0
    80001a68:	03071313          	slli	t1,a4,0x30
    80001a6c:	03035513          	srli	a0,t1,0x30
    80001a70:	00008067          	ret

0000000080001a74 <crcu16>:
    80001a74:	00a5c6b3          	xor	a3,a1,a0
    80001a78:	0ff57713          	andi	a4,a0,255
    80001a7c:	0016f293          	andi	t0,a3,1
    80001a80:	00050793          	mv	a5,a0
    80001a84:	00175613          	srli	a2,a4,0x1
    80001a88:	0015d813          	srli	a6,a1,0x1
    80001a8c:	00028c63          	beqz	t0,80001aa4 <crcu16+0x30>
    80001a90:	ffffa5b7          	lui	a1,0xffffa
    80001a94:	00158313          	addi	t1,a1,1 # ffffffffffffa001 <_pmem_end+0xffffffff77ffa001>
    80001a98:	006843b3          	xor	t2,a6,t1
    80001a9c:	03039513          	slli	a0,t2,0x30
    80001aa0:	03055813          	srli	a6,a0,0x30
    80001aa4:	00c848b3          	xor	a7,a6,a2
    80001aa8:	0018fe13          	andi	t3,a7,1
    80001aac:	00275e93          	srli	t4,a4,0x2
    80001ab0:	00185593          	srli	a1,a6,0x1
    80001ab4:	000e0c63          	beqz	t3,80001acc <crcu16+0x58>
    80001ab8:	ffffaf37          	lui	t5,0xffffa
    80001abc:	001f0f93          	addi	t6,t5,1 # ffffffffffffa001 <_pmem_end+0xffffffff77ffa001>
    80001ac0:	01f5c6b3          	xor	a3,a1,t6
    80001ac4:	03069293          	slli	t0,a3,0x30
    80001ac8:	0302d593          	srli	a1,t0,0x30
    80001acc:	01d5c633          	xor	a2,a1,t4
    80001ad0:	00167313          	andi	t1,a2,1
    80001ad4:	00375393          	srli	t2,a4,0x3
    80001ad8:	0015de93          	srli	t4,a1,0x1
    80001adc:	00030c63          	beqz	t1,80001af4 <crcu16+0x80>
    80001ae0:	ffffa837          	lui	a6,0xffffa
    80001ae4:	00180893          	addi	a7,a6,1 # ffffffffffffa001 <_pmem_end+0xffffffff77ffa001>
    80001ae8:	011ec533          	xor	a0,t4,a7
    80001aec:	03051e13          	slli	t3,a0,0x30
    80001af0:	030e5e93          	srli	t4,t3,0x30
    80001af4:	007ecf33          	xor	t5,t4,t2
    80001af8:	001f7f93          	andi	t6,t5,1
    80001afc:	00475693          	srli	a3,a4,0x4
    80001b00:	001ed393          	srli	t2,t4,0x1
    80001b04:	000f8c63          	beqz	t6,80001b1c <crcu16+0xa8>
    80001b08:	ffffa2b7          	lui	t0,0xffffa
    80001b0c:	00128593          	addi	a1,t0,1 # ffffffffffffa001 <_pmem_end+0xffffffff77ffa001>
    80001b10:	00b3c633          	xor	a2,t2,a1
    80001b14:	03061313          	slli	t1,a2,0x30
    80001b18:	03035393          	srli	t2,t1,0x30
    80001b1c:	00d3c833          	xor	a6,t2,a3
    80001b20:	00187893          	andi	a7,a6,1
    80001b24:	00575e13          	srli	t3,a4,0x5
    80001b28:	0013d293          	srli	t0,t2,0x1
    80001b2c:	00088c63          	beqz	a7,80001b44 <crcu16+0xd0>
    80001b30:	ffffaeb7          	lui	t4,0xffffa
    80001b34:	001e8f13          	addi	t5,t4,1 # ffffffffffffa001 <_pmem_end+0xffffffff77ffa001>
    80001b38:	01e2c533          	xor	a0,t0,t5
    80001b3c:	03051f93          	slli	t6,a0,0x30
    80001b40:	030fd293          	srli	t0,t6,0x30
    80001b44:	01c2c6b3          	xor	a3,t0,t3
    80001b48:	0016f593          	andi	a1,a3,1
    80001b4c:	00675313          	srli	t1,a4,0x6
    80001b50:	0012de13          	srli	t3,t0,0x1
    80001b54:	00058c63          	beqz	a1,80001b6c <crcu16+0xf8>
    80001b58:	ffffa637          	lui	a2,0xffffa
    80001b5c:	00160393          	addi	t2,a2,1 # ffffffffffffa001 <_pmem_end+0xffffffff77ffa001>
    80001b60:	007e4833          	xor	a6,t3,t2
    80001b64:	03081893          	slli	a7,a6,0x30
    80001b68:	0308de13          	srli	t3,a7,0x30
    80001b6c:	006e4eb3          	xor	t4,t3,t1
    80001b70:	001eff13          	andi	t5,t4,1
    80001b74:	00775713          	srli	a4,a4,0x7
    80001b78:	001e5593          	srli	a1,t3,0x1
    80001b7c:	000f0c63          	beqz	t5,80001b94 <crcu16+0x120>
    80001b80:	ffffafb7          	lui	t6,0xffffa
    80001b84:	001f8293          	addi	t0,t6,1 # ffffffffffffa001 <_pmem_end+0xffffffff77ffa001>
    80001b88:	0055c533          	xor	a0,a1,t0
    80001b8c:	03051693          	slli	a3,a0,0x30
    80001b90:	0306d593          	srli	a1,a3,0x30
    80001b94:	0015f313          	andi	t1,a1,1
    80001b98:	0015de13          	srli	t3,a1,0x1
    80001b9c:	00e30c63          	beq	t1,a4,80001bb4 <crcu16+0x140>
    80001ba0:	ffffa637          	lui	a2,0xffffa
    80001ba4:	00160393          	addi	t2,a2,1 # ffffffffffffa001 <_pmem_end+0xffffffff77ffa001>
    80001ba8:	007e4833          	xor	a6,t3,t2
    80001bac:	03081893          	slli	a7,a6,0x30
    80001bb0:	0308de13          	srli	t3,a7,0x30
    80001bb4:	0087de93          	srli	t4,a5,0x8
    80001bb8:	01cecf33          	xor	t5,t4,t3
    80001bbc:	001f7f93          	andi	t6,t5,1
    80001bc0:	0087d293          	srli	t0,a5,0x8
    80001bc4:	0097d713          	srli	a4,a5,0x9
    80001bc8:	001e5313          	srli	t1,t3,0x1
    80001bcc:	000f8c63          	beqz	t6,80001be4 <crcu16+0x170>
    80001bd0:	ffffa7b7          	lui	a5,0xffffa
    80001bd4:	00178693          	addi	a3,a5,1 # ffffffffffffa001 <_pmem_end+0xffffffff77ffa001>
    80001bd8:	00d34533          	xor	a0,t1,a3
    80001bdc:	03051593          	slli	a1,a0,0x30
    80001be0:	0305d313          	srli	t1,a1,0x30
    80001be4:	00e34633          	xor	a2,t1,a4
    80001be8:	00167393          	andi	t2,a2,1
    80001bec:	0022d813          	srli	a6,t0,0x2
    80001bf0:	00135f93          	srli	t6,t1,0x1
    80001bf4:	00038c63          	beqz	t2,80001c0c <crcu16+0x198>
    80001bf8:	ffffa8b7          	lui	a7,0xffffa
    80001bfc:	00188e13          	addi	t3,a7,1 # ffffffffffffa001 <_pmem_end+0xffffffff77ffa001>
    80001c00:	01cfceb3          	xor	t4,t6,t3
    80001c04:	030e9f13          	slli	t5,t4,0x30
    80001c08:	030f5f93          	srli	t6,t5,0x30
    80001c0c:	010fc733          	xor	a4,t6,a6
    80001c10:	00177693          	andi	a3,a4,1
    80001c14:	0032d793          	srli	a5,t0,0x3
    80001c18:	001fd393          	srli	t2,t6,0x1
    80001c1c:	00068c63          	beqz	a3,80001c34 <crcu16+0x1c0>
    80001c20:	ffffa5b7          	lui	a1,0xffffa
    80001c24:	00158313          	addi	t1,a1,1 # ffffffffffffa001 <_pmem_end+0xffffffff77ffa001>
    80001c28:	0063c533          	xor	a0,t2,t1
    80001c2c:	03051613          	slli	a2,a0,0x30
    80001c30:	03065393          	srli	t2,a2,0x30
    80001c34:	00f3c833          	xor	a6,t2,a5
    80001c38:	00187893          	andi	a7,a6,1
    80001c3c:	0042de13          	srli	t3,t0,0x4
    80001c40:	0013d693          	srli	a3,t2,0x1
    80001c44:	00088c63          	beqz	a7,80001c5c <crcu16+0x1e8>
    80001c48:	ffffaeb7          	lui	t4,0xffffa
    80001c4c:	001e8f13          	addi	t5,t4,1 # ffffffffffffa001 <_pmem_end+0xffffffff77ffa001>
    80001c50:	01e6cfb3          	xor	t6,a3,t5
    80001c54:	030f9713          	slli	a4,t6,0x30
    80001c58:	03075693          	srli	a3,a4,0x30
    80001c5c:	01c6c7b3          	xor	a5,a3,t3
    80001c60:	0017f593          	andi	a1,a5,1
    80001c64:	0052d313          	srli	t1,t0,0x5
    80001c68:	0016d893          	srli	a7,a3,0x1
    80001c6c:	00058c63          	beqz	a1,80001c84 <crcu16+0x210>
    80001c70:	ffffa637          	lui	a2,0xffffa
    80001c74:	00160393          	addi	t2,a2,1 # ffffffffffffa001 <_pmem_end+0xffffffff77ffa001>
    80001c78:	0078c533          	xor	a0,a7,t2
    80001c7c:	03051813          	slli	a6,a0,0x30
    80001c80:	03085893          	srli	a7,a6,0x30
    80001c84:	0068ce33          	xor	t3,a7,t1
    80001c88:	001e7e93          	andi	t4,t3,1
    80001c8c:	0062df13          	srli	t5,t0,0x6
    80001c90:	0018d593          	srli	a1,a7,0x1
    80001c94:	000e8c63          	beqz	t4,80001cac <crcu16+0x238>
    80001c98:	ffffafb7          	lui	t6,0xffffa
    80001c9c:	001f8713          	addi	a4,t6,1 # ffffffffffffa001 <_pmem_end+0xffffffff77ffa001>
    80001ca0:	00e5c6b3          	xor	a3,a1,a4
    80001ca4:	03069793          	slli	a5,a3,0x30
    80001ca8:	0307d593          	srli	a1,a5,0x30
    80001cac:	01e5c333          	xor	t1,a1,t5
    80001cb0:	00137613          	andi	a2,t1,1
    80001cb4:	0072d293          	srli	t0,t0,0x7
    80001cb8:	0015de13          	srli	t3,a1,0x1
    80001cbc:	00060c63          	beqz	a2,80001cd4 <crcu16+0x260>
    80001cc0:	ffffa3b7          	lui	t2,0xffffa
    80001cc4:	00138813          	addi	a6,t2,1 # ffffffffffffa001 <_pmem_end+0xffffffff77ffa001>
    80001cc8:	010e4533          	xor	a0,t3,a6
    80001ccc:	03051893          	slli	a7,a0,0x30
    80001cd0:	0308de13          	srli	t3,a7,0x30
    80001cd4:	005e4eb3          	xor	t4,t3,t0
    80001cd8:	001eff13          	andi	t5,t4,1
    80001cdc:	001e5513          	srli	a0,t3,0x1
    80001ce0:	000f0c63          	beqz	t5,80001cf8 <crcu16+0x284>
    80001ce4:	ffffafb7          	lui	t6,0xffffa
    80001ce8:	001f8713          	addi	a4,t6,1 # ffffffffffffa001 <_pmem_end+0xffffffff77ffa001>
    80001cec:	00e546b3          	xor	a3,a0,a4
    80001cf0:	03069793          	slli	a5,a3,0x30
    80001cf4:	0307d513          	srli	a0,a5,0x30
    80001cf8:	00008067          	ret

0000000080001cfc <core_bench_list>:
    80001cfc:	f9010113          	addi	sp,sp,-112
    80001d00:	01913c23          	sd	s9,24(sp)
    80001d04:	00451c83          	lh	s9,4(a0)
    80001d08:	06813023          	sd	s0,96(sp)
    80001d0c:	03513c23          	sd	s5,56(sp)
    80001d10:	03613823          	sd	s6,48(sp)
    80001d14:	06113423          	sd	ra,104(sp)
    80001d18:	04913c23          	sd	s1,88(sp)
    80001d1c:	05213823          	sd	s2,80(sp)
    80001d20:	05313423          	sd	s3,72(sp)
    80001d24:	05413023          	sd	s4,64(sp)
    80001d28:	03713423          	sd	s7,40(sp)
    80001d2c:	03813023          	sd	s8,32(sp)
    80001d30:	01a13823          	sd	s10,16(sp)
    80001d34:	00b11523          	sh	a1,10(sp)
    80001d38:	00011423          	sh	zero,8(sp)
    80001d3c:	03853403          	ld	s0,56(a0)
    80001d40:	00050b13          	mv	s6,a0
    80001d44:	00058a93          	mv	s5,a1
    80001d48:	23905e63          	blez	s9,80001f84 <core_bench_list+0x288>
    80001d4c:	00000993          	li	s3,0
    80001d50:	00810a13          	addi	s4,sp,8
    80001d54:	00058d13          	mv	s10,a1
    80001d58:	0ff9f793          	andi	a5,s3,255
    80001d5c:	000a0593          	mv	a1,s4
    80001d60:	00040513          	mv	a0,s0
    80001d64:	00000c13          	li	s8,0
    80001d68:	00000913          	li	s2,0
    80001d6c:	00000b93          	li	s7,0
    80001d70:	00f11423          	sh	a5,8(sp)
    80001d74:	bacfe0ef          	jal	ra,80000120 <core_list_find>
    80001d78:	0a040463          	beqz	s0,80001e20 <core_bench_list+0x124>
    80001d7c:	00000093          	li	ra,0
    80001d80:	00040493          	mv	s1,s0
    80001d84:	00043403          	ld	s0,0(s0)
    80001d88:	0014b023          	sd	ra,0(s1)
    80001d8c:	00048093          	mv	ra,s1
    80001d90:	fe0418e3          	bnez	s0,80001d80 <core_bench_list+0x84>
    80001d94:	08050a63          	beqz	a0,80001e28 <core_bench_list+0x12c>
    80001d98:	00853283          	ld	t0,8(a0)
    80001d9c:	0019091b          	addiw	s2,s2,1
    80001da0:	03091313          	slli	t1,s2,0x30
    80001da4:	00029383          	lh	t2,0(t0)
    80001da8:	03035913          	srli	s2,t1,0x30
    80001dac:	0013f713          	andi	a4,t2,1
    80001db0:	00070c63          	beqz	a4,80001dc8 <core_bench_list+0xcc>
    80001db4:	4093d41b          	sraiw	s0,t2,0x9
    80001db8:	00147593          	andi	a1,s0,1
    80001dbc:	0175863b          	addw	a2,a1,s7
    80001dc0:	03061b93          	slli	s7,a2,0x30
    80001dc4:	030bdb93          	srli	s7,s7,0x30
    80001dc8:	00053683          	ld	a3,0(a0)
    80001dcc:	00068c63          	beqz	a3,80001de4 <core_bench_list+0xe8>
    80001dd0:	0006b803          	ld	a6,0(a3)
    80001dd4:	01053023          	sd	a6,0(a0)
    80001dd8:	0004b503          	ld	a0,0(s1)
    80001ddc:	00a6b023          	sd	a0,0(a3)
    80001de0:	00d4b023          	sd	a3,0(s1)
    80001de4:	000d4663          	bltz	s10,80001df0 <core_bench_list+0xf4>
    80001de8:	001d0d1b          	addiw	s10,s10,1
    80001dec:	01a11523          	sh	s10,10(sp)
    80001df0:	0019899b          	addiw	s3,s3,1
    80001df4:	0109931b          	slliw	t1,s3,0x10
    80001df8:	4103599b          	sraiw	s3,t1,0x10
    80001dfc:	053c8c63          	beq	s9,s3,80001e54 <core_bench_list+0x158>
    80001e00:	00048413          	mv	s0,s1
    80001e04:	0ff9f793          	andi	a5,s3,255
    80001e08:	000a0593          	mv	a1,s4
    80001e0c:	00040513          	mv	a0,s0
    80001e10:	00a11d03          	lh	s10,10(sp)
    80001e14:	00f11423          	sh	a5,8(sp)
    80001e18:	b08fe0ef          	jal	ra,80000120 <core_list_find>
    80001e1c:	f60410e3          	bnez	s0,80001d7c <core_bench_list+0x80>
    80001e20:	00000493          	li	s1,0
    80001e24:	f6051ae3          	bnez	a0,80001d98 <core_bench_list+0x9c>
    80001e28:	0004b883          	ld	a7,0(s1)
    80001e2c:	001c0e1b          	addiw	t3,s8,1
    80001e30:	030e1e93          	slli	t4,t3,0x30
    80001e34:	0088bf03          	ld	t5,8(a7)
    80001e38:	030edc13          	srli	s8,t4,0x30
    80001e3c:	001f0f83          	lb	t6,1(t5)
    80001e40:	001ff793          	andi	a5,t6,1
    80001e44:	017780bb          	addw	ra,a5,s7
    80001e48:	03009293          	slli	t0,ra,0x30
    80001e4c:	0302db93          	srli	s7,t0,0x30
    80001e50:	f95ff06f          	j	80001de4 <core_bench_list+0xe8>
    80001e54:	00291c9b          	slliw	s9,s2,0x2
    80001e58:	418c8c3b          	subw	s8,s9,s8
    80001e5c:	017c093b          	addw	s2,s8,s7
    80001e60:	03091393          	slli	t2,s2,0x30
    80001e64:	0303d413          	srli	s0,t2,0x30
    80001e68:	01505e63          	blez	s5,80001e84 <core_bench_list+0x188>
    80001e6c:	00048513          	mv	a0,s1
    80001e70:	000b0613          	mv	a2,s6
    80001e74:	00001597          	auipc	a1,0x1
    80001e78:	1d458593          	addi	a1,a1,468 # 80003048 <cmp_complex>
    80001e7c:	b20fe0ef          	jal	ra,8000019c <core_list_mergesort>
    80001e80:	00050493          	mv	s1,a0
    80001e84:	0004ba83          	ld	s5,0(s1)
    80001e88:	000a0593          	mv	a1,s4
    80001e8c:	00048513          	mv	a0,s1
    80001e90:	000aba03          	ld	s4,0(s5)
    80001e94:	008abb03          	ld	s6,8(s5)
    80001e98:	008a3603          	ld	a2,8(s4)
    80001e9c:	000a3703          	ld	a4,0(s4)
    80001ea0:	00cab423          	sd	a2,8(s5)
    80001ea4:	016a3423          	sd	s6,8(s4)
    80001ea8:	00eab023          	sd	a4,0(s5)
    80001eac:	000a3023          	sd	zero,0(s4)
    80001eb0:	a70fe0ef          	jal	ra,80000120 <core_list_find>
    80001eb4:	00050993          	mv	s3,a0
    80001eb8:	0a050c63          	beqz	a0,80001f70 <core_bench_list+0x274>
    80001ebc:	0004bb83          	ld	s7,0(s1)
    80001ec0:	0084b583          	ld	a1,8(s1)
    80001ec4:	0005dd03          	lhu	s10,0(a1)
    80001ec8:	00040593          	mv	a1,s0
    80001ecc:	000d0513          	mv	a0,s10
    80001ed0:	ba5ff0ef          	jal	ra,80001a74 <crcu16>
    80001ed4:	0009b983          	ld	s3,0(s3)
    80001ed8:	00050413          	mv	s0,a0
    80001edc:	fe0996e3          	bnez	s3,80001ec8 <core_bench_list+0x1cc>
    80001ee0:	008bb683          	ld	a3,8(s7)
    80001ee4:	000bb803          	ld	a6,0(s7)
    80001ee8:	00000613          	li	a2,0
    80001eec:	00da3423          	sd	a3,8(s4)
    80001ef0:	016bb423          	sd	s6,8(s7)
    80001ef4:	010a3023          	sd	a6,0(s4)
    80001ef8:	014bb023          	sd	s4,0(s7)
    80001efc:	ffffe597          	auipc	a1,0xffffe
    80001f00:	11458593          	addi	a1,a1,276 # 80000010 <cmp_idx>
    80001f04:	00048513          	mv	a0,s1
    80001f08:	a94fe0ef          	jal	ra,8000019c <core_list_mergesort>
    80001f0c:	00053c03          	ld	s8,0(a0)
    80001f10:	020c0263          	beqz	s8,80001f34 <core_bench_list+0x238>
    80001f14:	00853503          	ld	a0,8(a0)
    80001f18:	00055c83          	lhu	s9,0(a0)
    80001f1c:	00040593          	mv	a1,s0
    80001f20:	000c8513          	mv	a0,s9
    80001f24:	b51ff0ef          	jal	ra,80001a74 <crcu16>
    80001f28:	000c3c03          	ld	s8,0(s8)
    80001f2c:	00050413          	mv	s0,a0
    80001f30:	fe0c16e3          	bnez	s8,80001f1c <core_bench_list+0x220>
    80001f34:	06813083          	ld	ra,104(sp)
    80001f38:	00040513          	mv	a0,s0
    80001f3c:	06013403          	ld	s0,96(sp)
    80001f40:	05813483          	ld	s1,88(sp)
    80001f44:	05013903          	ld	s2,80(sp)
    80001f48:	04813983          	ld	s3,72(sp)
    80001f4c:	04013a03          	ld	s4,64(sp)
    80001f50:	03813a83          	ld	s5,56(sp)
    80001f54:	03013b03          	ld	s6,48(sp)
    80001f58:	02813b83          	ld	s7,40(sp)
    80001f5c:	02013c03          	ld	s8,32(sp)
    80001f60:	01813c83          	ld	s9,24(sp)
    80001f64:	01013d03          	ld	s10,16(sp)
    80001f68:	07010113          	addi	sp,sp,112
    80001f6c:	00008067          	ret
    80001f70:	0004b983          	ld	s3,0(s1)
    80001f74:	00000b93          	li	s7,0
    80001f78:	f60984e3          	beqz	s3,80001ee0 <core_bench_list+0x1e4>
    80001f7c:	00098b93          	mv	s7,s3
    80001f80:	f41ff06f          	j	80001ec0 <core_bench_list+0x1c4>
    80001f84:	00040493          	mv	s1,s0
    80001f88:	00810a13          	addi	s4,sp,8
    80001f8c:	00000413          	li	s0,0
    80001f90:	ed9ff06f          	j	80001e68 <core_bench_list+0x16c>

0000000080001f94 <iterate>:
    80001f94:	fd010113          	addi	sp,sp,-48
    80001f98:	01313423          	sd	s3,8(sp)
    80001f9c:	02c52983          	lw	s3,44(a0)
    80001fa0:	02113423          	sd	ra,40(sp)
    80001fa4:	02813023          	sd	s0,32(sp)
    80001fa8:	00913c23          	sd	s1,24(sp)
    80001fac:	01213823          	sd	s2,16(sp)
    80001fb0:	01413023          	sd	s4,0(sp)
    80001fb4:	06053023          	sd	zero,96(a0)
    80001fb8:	1c098263          	beqz	s3,8000217c <iterate+0x1e8>
    80001fbc:	0039f793          	andi	a5,s3,3
    80001fc0:	00050413          	mv	s0,a0
    80001fc4:	00000493          	li	s1,0
    80001fc8:	0a078e63          	beqz	a5,80002084 <iterate+0xf0>
    80001fcc:	00100713          	li	a4,1
    80001fd0:	06e78c63          	beq	a5,a4,80002048 <iterate+0xb4>
    80001fd4:	00200093          	li	ra,2
    80001fd8:	02178c63          	beq	a5,ra,80002010 <iterate+0x7c>
    80001fdc:	00100593          	li	a1,1
    80001fe0:	d1dff0ef          	jal	ra,80001cfc <core_bench_list>
    80001fe4:	06045583          	lhu	a1,96(s0)
    80001fe8:	00100493          	li	s1,1
    80001fec:	a89ff0ef          	jal	ra,80001a74 <crcu16>
    80001ff0:	fff00593          	li	a1,-1
    80001ff4:	06a41023          	sh	a0,96(s0)
    80001ff8:	00040513          	mv	a0,s0
    80001ffc:	d01ff0ef          	jal	ra,80001cfc <core_bench_list>
    80002000:	06045583          	lhu	a1,96(s0)
    80002004:	a71ff0ef          	jal	ra,80001a74 <crcu16>
    80002008:	06a41023          	sh	a0,96(s0)
    8000200c:	06a41123          	sh	a0,98(s0)
    80002010:	00100593          	li	a1,1
    80002014:	00040513          	mv	a0,s0
    80002018:	ce5ff0ef          	jal	ra,80001cfc <core_bench_list>
    8000201c:	06045583          	lhu	a1,96(s0)
    80002020:	a55ff0ef          	jal	ra,80001a74 <crcu16>
    80002024:	fff00593          	li	a1,-1
    80002028:	06a41023          	sh	a0,96(s0)
    8000202c:	00040513          	mv	a0,s0
    80002030:	ccdff0ef          	jal	ra,80001cfc <core_bench_list>
    80002034:	06045583          	lhu	a1,96(s0)
    80002038:	a3dff0ef          	jal	ra,80001a74 <crcu16>
    8000203c:	06a41023          	sh	a0,96(s0)
    80002040:	16048e63          	beqz	s1,800021bc <iterate+0x228>
    80002044:	0014849b          	addiw	s1,s1,1
    80002048:	00100593          	li	a1,1
    8000204c:	00040513          	mv	a0,s0
    80002050:	cadff0ef          	jal	ra,80001cfc <core_bench_list>
    80002054:	06045583          	lhu	a1,96(s0)
    80002058:	a1dff0ef          	jal	ra,80001a74 <crcu16>
    8000205c:	fff00593          	li	a1,-1
    80002060:	06a41023          	sh	a0,96(s0)
    80002064:	00040513          	mv	a0,s0
    80002068:	c95ff0ef          	jal	ra,80001cfc <core_bench_list>
    8000206c:	06045583          	lhu	a1,96(s0)
    80002070:	a05ff0ef          	jal	ra,80001a74 <crcu16>
    80002074:	06a41023          	sh	a0,96(s0)
    80002078:	12048a63          	beqz	s1,800021ac <iterate+0x218>
    8000207c:	0014849b          	addiw	s1,s1,1
    80002080:	0e998e63          	beq	s3,s1,8000217c <iterate+0x1e8>
    80002084:	00100593          	li	a1,1
    80002088:	00040513          	mv	a0,s0
    8000208c:	c71ff0ef          	jal	ra,80001cfc <core_bench_list>
    80002090:	06045583          	lhu	a1,96(s0)
    80002094:	0014891b          	addiw	s2,s1,1
    80002098:	9ddff0ef          	jal	ra,80001a74 <crcu16>
    8000209c:	06a41023          	sh	a0,96(s0)
    800020a0:	fff00593          	li	a1,-1
    800020a4:	00040513          	mv	a0,s0
    800020a8:	c55ff0ef          	jal	ra,80001cfc <core_bench_list>
    800020ac:	06045583          	lhu	a1,96(s0)
    800020b0:	9c5ff0ef          	jal	ra,80001a74 <crcu16>
    800020b4:	00050293          	mv	t0,a0
    800020b8:	06541023          	sh	t0,96(s0)
    800020bc:	00100593          	li	a1,1
    800020c0:	00040513          	mv	a0,s0
    800020c4:	00049463          	bnez	s1,800020cc <iterate+0x138>
    800020c8:	06541123          	sh	t0,98(s0)
    800020cc:	c31ff0ef          	jal	ra,80001cfc <core_bench_list>
    800020d0:	06045583          	lhu	a1,96(s0)
    800020d4:	9a1ff0ef          	jal	ra,80001a74 <crcu16>
    800020d8:	06a41023          	sh	a0,96(s0)
    800020dc:	fff00593          	li	a1,-1
    800020e0:	00040513          	mv	a0,s0
    800020e4:	c19ff0ef          	jal	ra,80001cfc <core_bench_list>
    800020e8:	06045583          	lhu	a1,96(s0)
    800020ec:	989ff0ef          	jal	ra,80001a74 <crcu16>
    800020f0:	06a41023          	sh	a0,96(s0)
    800020f4:	00091463          	bnez	s2,800020fc <iterate+0x168>
    800020f8:	06a41123          	sh	a0,98(s0)
    800020fc:	00100593          	li	a1,1
    80002100:	00040513          	mv	a0,s0
    80002104:	bf9ff0ef          	jal	ra,80001cfc <core_bench_list>
    80002108:	06045583          	lhu	a1,96(s0)
    8000210c:	0019091b          	addiw	s2,s2,1
    80002110:	00190a1b          	addiw	s4,s2,1
    80002114:	961ff0ef          	jal	ra,80001a74 <crcu16>
    80002118:	fff00593          	li	a1,-1
    8000211c:	06a41023          	sh	a0,96(s0)
    80002120:	00040513          	mv	a0,s0
    80002124:	bd9ff0ef          	jal	ra,80001cfc <core_bench_list>
    80002128:	06045583          	lhu	a1,96(s0)
    8000212c:	001a049b          	addiw	s1,s4,1
    80002130:	945ff0ef          	jal	ra,80001a74 <crcu16>
    80002134:	00050313          	mv	t1,a0
    80002138:	06641023          	sh	t1,96(s0)
    8000213c:	00100593          	li	a1,1
    80002140:	00040513          	mv	a0,s0
    80002144:	00091463          	bnez	s2,8000214c <iterate+0x1b8>
    80002148:	06641123          	sh	t1,98(s0)
    8000214c:	bb1ff0ef          	jal	ra,80001cfc <core_bench_list>
    80002150:	06045583          	lhu	a1,96(s0)
    80002154:	921ff0ef          	jal	ra,80001a74 <crcu16>
    80002158:	fff00593          	li	a1,-1
    8000215c:	06a41023          	sh	a0,96(s0)
    80002160:	00040513          	mv	a0,s0
    80002164:	b99ff0ef          	jal	ra,80001cfc <core_bench_list>
    80002168:	06045583          	lhu	a1,96(s0)
    8000216c:	909ff0ef          	jal	ra,80001a74 <crcu16>
    80002170:	06a41023          	sh	a0,96(s0)
    80002174:	020a0663          	beqz	s4,800021a0 <iterate+0x20c>
    80002178:	f09996e3          	bne	s3,s1,80002084 <iterate+0xf0>
    8000217c:	02813083          	ld	ra,40(sp)
    80002180:	02013403          	ld	s0,32(sp)
    80002184:	01813483          	ld	s1,24(sp)
    80002188:	01013903          	ld	s2,16(sp)
    8000218c:	00813983          	ld	s3,8(sp)
    80002190:	00013a03          	ld	s4,0(sp)
    80002194:	00000513          	li	a0,0
    80002198:	03010113          	addi	sp,sp,48
    8000219c:	00008067          	ret
    800021a0:	06a41123          	sh	a0,98(s0)
    800021a4:	ee9990e3          	bne	s3,s1,80002084 <iterate+0xf0>
    800021a8:	fd5ff06f          	j	8000217c <iterate+0x1e8>
    800021ac:	06a41123          	sh	a0,98(s0)
    800021b0:	0014849b          	addiw	s1,s1,1
    800021b4:	ec9998e3          	bne	s3,s1,80002084 <iterate+0xf0>
    800021b8:	fc5ff06f          	j	8000217c <iterate+0x1e8>
    800021bc:	06a41123          	sh	a0,98(s0)
    800021c0:	0014849b          	addiw	s1,s1,1
    800021c4:	e85ff06f          	j	80002048 <iterate+0xb4>

00000000800021c8 <matrix_test>:
    800021c8:	fb010113          	addi	sp,sp,-80
    800021cc:	04813023          	sd	s0,64(sp)
    800021d0:	03313423          	sd	s3,40(sp)
    800021d4:	03413023          	sd	s4,32(sp)
    800021d8:	01513c23          	sd	s5,24(sp)
    800021dc:	04113423          	sd	ra,72(sp)
    800021e0:	fffffab7          	lui	s5,0xfffff
    800021e4:	02913c23          	sd	s1,56(sp)
    800021e8:	03213823          	sd	s2,48(sp)
    800021ec:	01613823          	sd	s6,16(sp)
    800021f0:	01713423          	sd	s7,8(sp)
    800021f4:	00058413          	mv	s0,a1
    800021f8:	00060a13          	mv	s4,a2
    800021fc:	00068993          	mv	s3,a3
    80002200:	01576ab3          	or	s5,a4,s5
    80002204:	240504e3          	beqz	a0,80002c4c <matrix_test+0xa84>
    80002208:	03071093          	slli	ra,a4,0x30
    8000220c:	00050813          	mv	a6,a0
    80002210:	00050593          	mv	a1,a0
    80002214:	0300d913          	srli	s2,ra,0x30
    80002218:	00000513          	li	a0,0
    8000221c:	00000b13          	li	s6,0
    80002220:	40a586b3          	sub	a3,a1,a0
    80002224:	0076f293          	andi	t0,a3,7
    80002228:	00050793          	mv	a5,a0
    8000222c:	0e028e63          	beqz	t0,80002328 <matrix_test+0x160>
    80002230:	00100613          	li	a2,1
    80002234:	0cc28a63          	beq	t0,a2,80002308 <matrix_test+0x140>
    80002238:	00200313          	li	t1,2
    8000223c:	0a628863          	beq	t0,t1,800022ec <matrix_test+0x124>
    80002240:	00300393          	li	t2,3
    80002244:	08728663          	beq	t0,t2,800022d0 <matrix_test+0x108>
    80002248:	00400893          	li	a7,4
    8000224c:	07128463          	beq	t0,a7,800022b4 <matrix_test+0xec>
    80002250:	00500b93          	li	s7,5
    80002254:	05728263          	beq	t0,s7,80002298 <matrix_test+0xd0>
    80002258:	00600e13          	li	t3,6
    8000225c:	03c28063          	beq	t0,t3,8000227c <matrix_test+0xb4>
    80002260:	02051793          	slli	a5,a0,0x20
    80002264:	01f7de93          	srli	t4,a5,0x1f
    80002268:	01da0f33          	add	t5,s4,t4
    8000226c:	000f5f83          	lhu	t6,0(t5)
    80002270:	0015079b          	addiw	a5,a0,1
    80002274:	012f84bb          	addw	s1,t6,s2
    80002278:	009f1023          	sh	s1,0(t5)
    8000227c:	02079093          	slli	ra,a5,0x20
    80002280:	01f0d693          	srli	a3,ra,0x1f
    80002284:	00da02b3          	add	t0,s4,a3
    80002288:	0002d603          	lhu	a2,0(t0)
    8000228c:	0017879b          	addiw	a5,a5,1
    80002290:	0126033b          	addw	t1,a2,s2
    80002294:	00629023          	sh	t1,0(t0)
    80002298:	02079393          	slli	t2,a5,0x20
    8000229c:	01f3d893          	srli	a7,t2,0x1f
    800022a0:	011a0bb3          	add	s7,s4,a7
    800022a4:	000bde03          	lhu	t3,0(s7)
    800022a8:	0017879b          	addiw	a5,a5,1
    800022ac:	012e0ebb          	addw	t4,t3,s2
    800022b0:	01db9023          	sh	t4,0(s7)
    800022b4:	02079f13          	slli	t5,a5,0x20
    800022b8:	01ff5f93          	srli	t6,t5,0x1f
    800022bc:	01fa04b3          	add	s1,s4,t6
    800022c0:	0004d083          	lhu	ra,0(s1)
    800022c4:	0017879b          	addiw	a5,a5,1
    800022c8:	012086bb          	addw	a3,ra,s2
    800022cc:	00d49023          	sh	a3,0(s1)
    800022d0:	02079293          	slli	t0,a5,0x20
    800022d4:	01f2d613          	srli	a2,t0,0x1f
    800022d8:	00ca0333          	add	t1,s4,a2
    800022dc:	00035383          	lhu	t2,0(t1)
    800022e0:	0017879b          	addiw	a5,a5,1
    800022e4:	012388bb          	addw	a7,t2,s2
    800022e8:	01131023          	sh	a7,0(t1)
    800022ec:	02079b93          	slli	s7,a5,0x20
    800022f0:	01fbde13          	srli	t3,s7,0x1f
    800022f4:	01ca0eb3          	add	t4,s4,t3
    800022f8:	000edf03          	lhu	t5,0(t4)
    800022fc:	0017879b          	addiw	a5,a5,1
    80002300:	012f0fbb          	addw	t6,t5,s2
    80002304:	01fe9023          	sh	t6,0(t4)
    80002308:	02079493          	slli	s1,a5,0x20
    8000230c:	01f4d093          	srli	ra,s1,0x1f
    80002310:	001a06b3          	add	a3,s4,ra
    80002314:	0006d283          	lhu	t0,0(a3)
    80002318:	0017879b          	addiw	a5,a5,1
    8000231c:	0122863b          	addw	a2,t0,s2
    80002320:	00c69023          	sh	a2,0(a3)
    80002324:	10f58263          	beq	a1,a5,80002428 <matrix_test+0x260>
    80002328:	02079493          	slli	s1,a5,0x20
    8000232c:	01f4d613          	srli	a2,s1,0x1f
    80002330:	00ca03b3          	add	t2,s4,a2
    80002334:	0003d283          	lhu	t0,0(t2)
    80002338:	00178e9b          	addiw	t4,a5,1
    8000233c:	020e9793          	slli	a5,t4,0x20
    80002340:	0207df93          	srli	t6,a5,0x20
    80002344:	0122833b          	addw	t1,t0,s2
    80002348:	001f9893          	slli	a7,t6,0x1
    8000234c:	00639023          	sh	t1,0(t2)
    80002350:	011a06b3          	add	a3,s4,a7
    80002354:	0006d083          	lhu	ra,0(a3)
    80002358:	001e8f1b          	addiw	t5,t4,1
    8000235c:	020f1b93          	slli	s7,t5,0x20
    80002360:	020bde13          	srli	t3,s7,0x20
    80002364:	012084bb          	addw	s1,ra,s2
    80002368:	001e1613          	slli	a2,t3,0x1
    8000236c:	00969023          	sh	s1,0(a3)
    80002370:	00ca03b3          	add	t2,s4,a2
    80002374:	0003d283          	lhu	t0,0(t2)
    80002378:	001f0e9b          	addiw	t4,t5,1
    8000237c:	020e9793          	slli	a5,t4,0x20
    80002380:	0207df93          	srli	t6,a5,0x20
    80002384:	0122833b          	addw	t1,t0,s2
    80002388:	001f9893          	slli	a7,t6,0x1
    8000238c:	00639023          	sh	t1,0(t2)
    80002390:	011a06b3          	add	a3,s4,a7
    80002394:	0006d083          	lhu	ra,0(a3)
    80002398:	001e8f1b          	addiw	t5,t4,1
    8000239c:	020f1b93          	slli	s7,t5,0x20
    800023a0:	020bde13          	srli	t3,s7,0x20
    800023a4:	012084bb          	addw	s1,ra,s2
    800023a8:	001e1613          	slli	a2,t3,0x1
    800023ac:	00969023          	sh	s1,0(a3)
    800023b0:	00ca03b3          	add	t2,s4,a2
    800023b4:	0003d283          	lhu	t0,0(t2)
    800023b8:	001f0e9b          	addiw	t4,t5,1
    800023bc:	020e9793          	slli	a5,t4,0x20
    800023c0:	0207df93          	srli	t6,a5,0x20
    800023c4:	0122833b          	addw	t1,t0,s2
    800023c8:	001f9893          	slli	a7,t6,0x1
    800023cc:	00639023          	sh	t1,0(t2)
    800023d0:	011a06b3          	add	a3,s4,a7
    800023d4:	0006d083          	lhu	ra,0(a3)
    800023d8:	001e8f1b          	addiw	t5,t4,1
    800023dc:	020f1b93          	slli	s7,t5,0x20
    800023e0:	020bde13          	srli	t3,s7,0x20
    800023e4:	012084bb          	addw	s1,ra,s2
    800023e8:	001e1613          	slli	a2,t3,0x1
    800023ec:	00969023          	sh	s1,0(a3)
    800023f0:	00ca03b3          	add	t2,s4,a2
    800023f4:	0003d283          	lhu	t0,0(t2)
    800023f8:	001f079b          	addiw	a5,t5,1
    800023fc:	02079e93          	slli	t4,a5,0x20
    80002400:	020edf93          	srli	t6,t4,0x20
    80002404:	0122833b          	addw	t1,t0,s2
    80002408:	001f9093          	slli	ra,t6,0x1
    8000240c:	00639023          	sh	t1,0(t2)
    80002410:	001a06b3          	add	a3,s4,ra
    80002414:	0006d283          	lhu	t0,0(a3)
    80002418:	0017879b          	addiw	a5,a5,1
    8000241c:	0122863b          	addw	a2,t0,s2
    80002420:	00c69023          	sh	a2,0(a3)
    80002424:	f0f592e3          	bne	a1,a5,80002328 <matrix_test+0x160>
    80002428:	001b049b          	addiw	s1,s6,1
    8000242c:	00a8053b          	addw	a0,a6,a0
    80002430:	00b805bb          	addw	a1,a6,a1
    80002434:	00980663          	beq	a6,s1,80002440 <matrix_test+0x278>
    80002438:	00048b13          	mv	s6,s1
    8000243c:	de5ff06f          	j	80002220 <matrix_test+0x58>
    80002440:	0007051b          	sext.w	a0,a4
    80002444:	00048893          	mv	a7,s1
    80002448:	00000313          	li	t1,0
    8000244c:	00000e13          	li	t3,0
    80002450:	40688733          	sub	a4,a7,t1
    80002454:	00377393          	andi	t2,a4,3
    80002458:	00030793          	mv	a5,t1
    8000245c:	08038863          	beqz	t2,800024ec <matrix_test+0x324>
    80002460:	00100b93          	li	s7,1
    80002464:	05738e63          	beq	t2,s7,800024c0 <matrix_test+0x2f8>
    80002468:	00200e93          	li	t4,2
    8000246c:	03d38663          	beq	t2,t4,80002498 <matrix_test+0x2d0>
    80002470:	02031f13          	slli	t5,t1,0x20
    80002474:	020f5f93          	srli	t6,t5,0x20
    80002478:	001f9093          	slli	ra,t6,0x1
    8000247c:	001a06b3          	add	a3,s4,ra
    80002480:	00069283          	lh	t0,0(a3)
    80002484:	002f9793          	slli	a5,t6,0x2
    80002488:	00f40633          	add	a2,s0,a5
    8000248c:	02a2883b          	mulw	a6,t0,a0
    80002490:	0013079b          	addiw	a5,t1,1
    80002494:	01062023          	sw	a6,0(a2)
    80002498:	02079593          	slli	a1,a5,0x20
    8000249c:	0205d713          	srli	a4,a1,0x20
    800024a0:	00171393          	slli	t2,a4,0x1
    800024a4:	007a0bb3          	add	s7,s4,t2
    800024a8:	000b9e83          	lh	t4,0(s7)
    800024ac:	00271f13          	slli	t5,a4,0x2
    800024b0:	01e40fb3          	add	t6,s0,t5
    800024b4:	02ae80bb          	mulw	ra,t4,a0
    800024b8:	0017879b          	addiw	a5,a5,1
    800024bc:	001fa023          	sw	ra,0(t6)
    800024c0:	02079693          	slli	a3,a5,0x20
    800024c4:	0206d293          	srli	t0,a3,0x20
    800024c8:	00129613          	slli	a2,t0,0x1
    800024cc:	00ca0833          	add	a6,s4,a2
    800024d0:	00081583          	lh	a1,0(a6)
    800024d4:	00229713          	slli	a4,t0,0x2
    800024d8:	00e403b3          	add	t2,s0,a4
    800024dc:	02a58bbb          	mulw	s7,a1,a0
    800024e0:	0017879b          	addiw	a5,a5,1
    800024e4:	0173a023          	sw	s7,0(t2)
    800024e8:	0af88463          	beq	a7,a5,80002590 <matrix_test+0x3c8>
    800024ec:	00178f1b          	addiw	t5,a5,1
    800024f0:	02079e93          	slli	t4,a5,0x20
    800024f4:	001f061b          	addiw	a2,t5,1
    800024f8:	020ed093          	srli	ra,t4,0x20
    800024fc:	020f1f93          	slli	t6,t5,0x20
    80002500:	00160b9b          	addiw	s7,a2,1
    80002504:	020fd293          	srli	t0,t6,0x20
    80002508:	00109813          	slli	a6,ra,0x1
    8000250c:	02061693          	slli	a3,a2,0x20
    80002510:	0206d393          	srli	t2,a3,0x20
    80002514:	010a05b3          	add	a1,s4,a6
    80002518:	00129793          	slli	a5,t0,0x1
    8000251c:	020b9713          	slli	a4,s7,0x20
    80002520:	00059f83          	lh	t6,0(a1)
    80002524:	02075713          	srli	a4,a4,0x20
    80002528:	00139e93          	slli	t4,t2,0x1
    8000252c:	00fa0f33          	add	t5,s4,a5
    80002530:	000f1f03          	lh	t5,0(t5)
    80002534:	00171813          	slli	a6,a4,0x1
    80002538:	01da0633          	add	a2,s4,t4
    8000253c:	00061e83          	lh	t4,0(a2)
    80002540:	010a06b3          	add	a3,s4,a6
    80002544:	00069803          	lh	a6,0(a3)
    80002548:	00271793          	slli	a5,a4,0x2
    8000254c:	02af8fbb          	mulw	t6,t6,a0
    80002550:	00f40733          	add	a4,s0,a5
    80002554:	001b879b          	addiw	a5,s7,1
    80002558:	00209093          	slli	ra,ra,0x2
    8000255c:	001405b3          	add	a1,s0,ra
    80002560:	00229293          	slli	t0,t0,0x2
    80002564:	00540633          	add	a2,s0,t0
    80002568:	00239393          	slli	t2,t2,0x2
    8000256c:	007406b3          	add	a3,s0,t2
    80002570:	02af0bbb          	mulw	s7,t5,a0
    80002574:	01f5a023          	sw	t6,0(a1)
    80002578:	02ae8f3b          	mulw	t5,t4,a0
    8000257c:	01762023          	sw	s7,0(a2)
    80002580:	02a80ebb          	mulw	t4,a6,a0
    80002584:	01e6a023          	sw	t5,0(a3)
    80002588:	01d72023          	sw	t4,0(a4)
    8000258c:	f6f890e3          	bne	a7,a5,800024ec <matrix_test+0x324>
    80002590:	001e081b          	addiw	a6,t3,1
    80002594:	0064833b          	addw	t1,s1,t1
    80002598:	011488bb          	addw	a7,s1,a7
    8000259c:	016e0663          	beq	t3,s6,800025a8 <matrix_test+0x3e0>
    800025a0:	00080e13          	mv	t3,a6
    800025a4:	eadff06f          	j	80002450 <matrix_test+0x288>
    800025a8:	000a8a9b          	sext.w	s5,s5
    800025ac:	00048613          	mv	a2,s1
    800025b0:	00000593          	li	a1,0
    800025b4:	00000793          	li	a5,0
    800025b8:	00000313          	li	t1,0
    800025bc:	00000693          	li	a3,0
    800025c0:	00000813          	li	a6,0
    800025c4:	40b60e33          	sub	t3,a2,a1
    800025c8:	003e7513          	andi	a0,t3,3
    800025cc:	00058713          	mv	a4,a1
    800025d0:	0c050463          	beqz	a0,80002698 <matrix_test+0x4d0>
    800025d4:	00100f93          	li	t6,1
    800025d8:	07f50e63          	beq	a0,t6,80002654 <matrix_test+0x48c>
    800025dc:	00200093          	li	ra,2
    800025e0:	02150e63          	beq	a0,ra,8000261c <matrix_test+0x454>
    800025e4:	02059293          	slli	t0,a1,0x20
    800025e8:	01e2d393          	srli	t2,t0,0x1e
    800025ec:	00740733          	add	a4,s0,t2
    800025f0:	00030b93          	mv	s7,t1
    800025f4:	00072303          	lw	t1,0(a4)
    800025f8:	03079793          	slli	a5,a5,0x30
    800025fc:	0307df13          	srli	t5,a5,0x30
    80002600:	00d306bb          	addw	a3,t1,a3
    80002604:	1cdacc63          	blt	s5,a3,800027dc <matrix_test+0x614>
    80002608:	006baeb3          	slt	t4,s7,t1
    8000260c:	01ee88bb          	addw	a7,t4,t5
    80002610:	01089e1b          	slliw	t3,a7,0x10
    80002614:	410e579b          	sraiw	a5,t3,0x10
    80002618:	0015871b          	addiw	a4,a1,1
    8000261c:	02071f93          	slli	t6,a4,0x20
    80002620:	01efd093          	srli	ra,t6,0x1e
    80002624:	001402b3          	add	t0,s0,ra
    80002628:	00030393          	mv	t2,t1
    8000262c:	0002a303          	lw	t1,0(t0)
    80002630:	03079b93          	slli	s7,a5,0x30
    80002634:	030bd793          	srli	a5,s7,0x30
    80002638:	00d306bb          	addw	a3,t1,a3
    8000263c:	18dac663          	blt	s5,a3,800027c8 <matrix_test+0x600>
    80002640:	0063af33          	slt	t5,t2,t1
    80002644:	00ff0ebb          	addw	t4,t5,a5
    80002648:	010e989b          	slliw	a7,t4,0x10
    8000264c:	4108d79b          	sraiw	a5,a7,0x10
    80002650:	0017071b          	addiw	a4,a4,1
    80002654:	02071513          	slli	a0,a4,0x20
    80002658:	01e55f93          	srli	t6,a0,0x1e
    8000265c:	01f40bb3          	add	s7,s0,t6
    80002660:	00030e93          	mv	t4,t1
    80002664:	000ba303          	lw	t1,0(s7)
    80002668:	03079093          	slli	ra,a5,0x30
    8000266c:	0300d293          	srli	t0,ra,0x30
    80002670:	00d306bb          	addw	a3,t1,a3
    80002674:	0edac063          	blt	s5,a3,80002754 <matrix_test+0x58c>
    80002678:	006ea3b3          	slt	t2,t4,t1
    8000267c:	00538bbb          	addw	s7,t2,t0
    80002680:	030b9793          	slli	a5,s7,0x30
    80002684:	010b9f1b          	slliw	t5,s7,0x10
    80002688:	0017071b          	addiw	a4,a4,1
    8000268c:	0307d513          	srli	a0,a5,0x30
    80002690:	410f579b          	sraiw	a5,t5,0x10
    80002694:	0ee60063          	beq	a2,a4,80002774 <matrix_test+0x5ac>
    80002698:	02071b93          	slli	s7,a4,0x20
    8000269c:	01ebd393          	srli	t2,s7,0x1e
    800026a0:	007402b3          	add	t0,s0,t2
    800026a4:	0002ae83          	lw	t4,0(t0)
    800026a8:	03079513          	slli	a0,a5,0x30
    800026ac:	03055f93          	srli	t6,a0,0x30
    800026b0:	00de86bb          	addw	a3,t4,a3
    800026b4:	10dad063          	bge	s5,a3,800027b4 <matrix_test+0x5ec>
    800026b8:	00af809b          	addiw	ra,t6,10
    800026bc:	01009f1b          	slliw	t5,ra,0x10
    800026c0:	410f5e1b          	sraiw	t3,t5,0x10
    800026c4:	00000693          	li	a3,0
    800026c8:	0017071b          	addiw	a4,a4,1
    800026cc:	02071b93          	slli	s7,a4,0x20
    800026d0:	01ebd393          	srli	t2,s7,0x1e
    800026d4:	007402b3          	add	t0,s0,t2
    800026d8:	0002af83          	lw	t6,0(t0)
    800026dc:	030e1513          	slli	a0,t3,0x30
    800026e0:	03055793          	srli	a5,a0,0x30
    800026e4:	00df8f3b          	addw	t5,t6,a3
    800026e8:	0beadc63          	bge	s5,t5,800027a0 <matrix_test+0x5d8>
    800026ec:	00a7869b          	addiw	a3,a5,10
    800026f0:	01069e1b          	slliw	t3,a3,0x10
    800026f4:	410e509b          	sraiw	ra,t3,0x10
    800026f8:	00000f13          	li	t5,0
    800026fc:	0017071b          	addiw	a4,a4,1
    80002700:	02071b93          	slli	s7,a4,0x20
    80002704:	01ebd393          	srli	t2,s7,0x1e
    80002708:	007402b3          	add	t0,s0,t2
    8000270c:	0002ae83          	lw	t4,0(t0)
    80002710:	03009513          	slli	a0,ra,0x30
    80002714:	03055793          	srli	a5,a0,0x30
    80002718:	01ee86bb          	addw	a3,t4,t5
    8000271c:	06dac863          	blt	s5,a3,8000278c <matrix_test+0x5c4>
    80002720:	01dfafb3          	slt	t6,t6,t4
    80002724:	00ff833b          	addw	t1,t6,a5
    80002728:	0103189b          	slliw	a7,t1,0x10
    8000272c:	4108d79b          	sraiw	a5,a7,0x10
    80002730:	0017071b          	addiw	a4,a4,1
    80002734:	02071093          	slli	ra,a4,0x20
    80002738:	01e0df13          	srli	t5,ra,0x1e
    8000273c:	01e40bb3          	add	s7,s0,t5
    80002740:	000ba303          	lw	t1,0(s7)
    80002744:	03079093          	slli	ra,a5,0x30
    80002748:	0300d293          	srli	t0,ra,0x30
    8000274c:	00d306bb          	addw	a3,t1,a3
    80002750:	f2dad4e3          	bge	s5,a3,80002678 <matrix_test+0x4b0>
    80002754:	00a28e9b          	addiw	t4,t0,10
    80002758:	030e9893          	slli	a7,t4,0x30
    8000275c:	010e9e1b          	slliw	t3,t4,0x10
    80002760:	0017071b          	addiw	a4,a4,1
    80002764:	0308d513          	srli	a0,a7,0x30
    80002768:	410e579b          	sraiw	a5,t3,0x10
    8000276c:	00000693          	li	a3,0
    80002770:	f2e614e3          	bne	a2,a4,80002698 <matrix_test+0x4d0>
    80002774:	00180f9b          	addiw	t6,a6,1
    80002778:	00c4863b          	addw	a2,s1,a2
    8000277c:	00b485bb          	addw	a1,s1,a1
    80002780:	07680863          	beq	a6,s6,800027f0 <matrix_test+0x628>
    80002784:	000f8813          	mv	a6,t6
    80002788:	e3dff06f          	j	800025c4 <matrix_test+0x3fc>
    8000278c:	00a7869b          	addiw	a3,a5,10
    80002790:	01069e1b          	slliw	t3,a3,0x10
    80002794:	410e579b          	sraiw	a5,t3,0x10
    80002798:	00000693          	li	a3,0
    8000279c:	f95ff06f          	j	80002730 <matrix_test+0x568>
    800027a0:	01feaeb3          	slt	t4,t4,t6
    800027a4:	00fe833b          	addw	t1,t4,a5
    800027a8:	0103189b          	slliw	a7,t1,0x10
    800027ac:	4108d09b          	sraiw	ra,a7,0x10
    800027b0:	f4dff06f          	j	800026fc <matrix_test+0x534>
    800027b4:	01d327b3          	slt	a5,t1,t4
    800027b8:	01f7833b          	addw	t1,a5,t6
    800027bc:	0103189b          	slliw	a7,t1,0x10
    800027c0:	4108de1b          	sraiw	t3,a7,0x10
    800027c4:	f05ff06f          	j	800026c8 <matrix_test+0x500>
    800027c8:	00a78e1b          	addiw	t3,a5,10
    800027cc:	010e169b          	slliw	a3,t3,0x10
    800027d0:	4106d79b          	sraiw	a5,a3,0x10
    800027d4:	00000693          	li	a3,0
    800027d8:	e79ff06f          	j	80002650 <matrix_test+0x488>
    800027dc:	00af069b          	addiw	a3,t5,10
    800027e0:	0106951b          	slliw	a0,a3,0x10
    800027e4:	4105579b          	sraiw	a5,a0,0x10
    800027e8:	00000693          	li	a3,0
    800027ec:	e2dff06f          	j	80002618 <matrix_test+0x450>
    800027f0:	00000593          	li	a1,0
    800027f4:	a80ff0ef          	jal	ra,80001a74 <crcu16>
    800027f8:	00050b93          	mv	s7,a0
    800027fc:	00098693          	mv	a3,s3
    80002800:	000a0613          	mv	a2,s4
    80002804:	00040593          	mv	a1,s0
    80002808:	00048513          	mv	a0,s1
    8000280c:	e30fe0ef          	jal	ra,80000e3c <matrix_mul_vect>
    80002810:	00048293          	mv	t0,s1
    80002814:	00000393          	li	t2,0
    80002818:	00000793          	li	a5,0
    8000281c:	00000313          	li	t1,0
    80002820:	00000713          	li	a4,0
    80002824:	00000813          	li	a6,0
    80002828:	40728533          	sub	a0,t0,t2
    8000282c:	00357093          	andi	ra,a0,3
    80002830:	00038693          	mv	a3,t2
    80002834:	0c008463          	beqz	ra,800028fc <matrix_test+0x734>
    80002838:	00100f13          	li	t5,1
    8000283c:	07e08e63          	beq	ra,t5,800028b8 <matrix_test+0x6f0>
    80002840:	00200e93          	li	t4,2
    80002844:	03d08e63          	beq	ra,t4,80002880 <matrix_test+0x6b8>
    80002848:	02039893          	slli	a7,t2,0x20
    8000284c:	01e8de13          	srli	t3,a7,0x1e
    80002850:	01c406b3          	add	a3,s0,t3
    80002854:	00030f93          	mv	t6,t1
    80002858:	0006a303          	lw	t1,0(a3)
    8000285c:	03079793          	slli	a5,a5,0x30
    80002860:	0307d613          	srli	a2,a5,0x30
    80002864:	00e3073b          	addw	a4,t1,a4
    80002868:	1eeaca63          	blt	s5,a4,80002a5c <matrix_test+0x894>
    8000286c:	006fa5b3          	slt	a1,t6,t1
    80002870:	00c5853b          	addw	a0,a1,a2
    80002874:	0105109b          	slliw	ra,a0,0x10
    80002878:	4100d79b          	sraiw	a5,ra,0x10
    8000287c:	0013869b          	addiw	a3,t2,1
    80002880:	02069e93          	slli	t4,a3,0x20
    80002884:	01eed893          	srli	a7,t4,0x1e
    80002888:	01140e33          	add	t3,s0,a7
    8000288c:	00030f93          	mv	t6,t1
    80002890:	000e2303          	lw	t1,0(t3)
    80002894:	03079793          	slli	a5,a5,0x30
    80002898:	0307d613          	srli	a2,a5,0x30
    8000289c:	00e3073b          	addw	a4,t1,a4
    800028a0:	1aeac463          	blt	s5,a4,80002a48 <matrix_test+0x880>
    800028a4:	006fa5b3          	slt	a1,t6,t1
    800028a8:	00c5853b          	addw	a0,a1,a2
    800028ac:	0105109b          	slliw	ra,a0,0x10
    800028b0:	4100d79b          	sraiw	a5,ra,0x10
    800028b4:	0016869b          	addiw	a3,a3,1
    800028b8:	02069e93          	slli	t4,a3,0x20
    800028bc:	01eed893          	srli	a7,t4,0x1e
    800028c0:	01140e33          	add	t3,s0,a7
    800028c4:	00030f93          	mv	t6,t1
    800028c8:	000e2303          	lw	t1,0(t3)
    800028cc:	03079793          	slli	a5,a5,0x30
    800028d0:	0307d893          	srli	a7,a5,0x30
    800028d4:	00e3073b          	addw	a4,t1,a4
    800028d8:	10eacc63          	blt	s5,a4,800029f0 <matrix_test+0x828>
    800028dc:	006fa633          	slt	a2,t6,t1
    800028e0:	011605bb          	addw	a1,a2,a7
    800028e4:	03059513          	slli	a0,a1,0x30
    800028e8:	0105909b          	slliw	ra,a1,0x10
    800028ec:	03055513          	srli	a0,a0,0x30
    800028f0:	4100d79b          	sraiw	a5,ra,0x10
    800028f4:	0016869b          	addiw	a3,a3,1
    800028f8:	0ed28063          	beq	t0,a3,800029d8 <matrix_test+0x810>
    800028fc:	02069513          	slli	a0,a3,0x20
    80002900:	01e55f13          	srli	t5,a0,0x1e
    80002904:	01e40eb3          	add	t4,s0,t5
    80002908:	000eaf83          	lw	t6,0(t4)
    8000290c:	03079793          	slli	a5,a5,0x30
    80002910:	0307d893          	srli	a7,a5,0x30
    80002914:	00ef873b          	addw	a4,t6,a4
    80002918:	10eade63          	bge	s5,a4,80002a34 <matrix_test+0x86c>
    8000291c:	00a8809b          	addiw	ra,a7,10
    80002920:	0100951b          	slliw	a0,ra,0x10
    80002924:	4105561b          	sraiw	a2,a0,0x10
    80002928:	00000713          	li	a4,0
    8000292c:	0016869b          	addiw	a3,a3,1
    80002930:	02069f13          	slli	t5,a3,0x20
    80002934:	01ef5e93          	srli	t4,t5,0x1e
    80002938:	01d407b3          	add	a5,s0,t4
    8000293c:	0007a883          	lw	a7,0(a5)
    80002940:	03061313          	slli	t1,a2,0x30
    80002944:	03035e13          	srli	t3,t1,0x30
    80002948:	00e88ebb          	addw	t4,a7,a4
    8000294c:	0ddada63          	bge	s5,t4,80002a20 <matrix_test+0x858>
    80002950:	00ae071b          	addiw	a4,t3,10
    80002954:	0107109b          	slliw	ra,a4,0x10
    80002958:	4100df1b          	sraiw	t5,ra,0x10
    8000295c:	00000e93          	li	t4,0
    80002960:	0016869b          	addiw	a3,a3,1
    80002964:	02069513          	slli	a0,a3,0x20
    80002968:	01e55793          	srli	a5,a0,0x1e
    8000296c:	00f40333          	add	t1,s0,a5
    80002970:	00032e03          	lw	t3,0(t1)
    80002974:	030f1f93          	slli	t6,t5,0x30
    80002978:	030fd593          	srli	a1,t6,0x30
    8000297c:	01de053b          	addw	a0,t3,t4
    80002980:	08aac663          	blt	s5,a0,80002a0c <matrix_test+0x844>
    80002984:	01c8a8b3          	slt	a7,a7,t3
    80002988:	00b8863b          	addw	a2,a7,a1
    8000298c:	0106109b          	slliw	ra,a2,0x10
    80002990:	4100de9b          	sraiw	t4,ra,0x10
    80002994:	0016869b          	addiw	a3,a3,1
    80002998:	02069793          	slli	a5,a3,0x20
    8000299c:	01e7d313          	srli	t1,a5,0x1e
    800029a0:	00640fb3          	add	t6,s0,t1
    800029a4:	000fa303          	lw	t1,0(t6)
    800029a8:	030e9593          	slli	a1,t4,0x30
    800029ac:	0305d893          	srli	a7,a1,0x30
    800029b0:	00a3073b          	addw	a4,t1,a0
    800029b4:	02eace63          	blt	s5,a4,800029f0 <matrix_test+0x828>
    800029b8:	006e2e33          	slt	t3,t3,t1
    800029bc:	011e063b          	addw	a2,t3,a7
    800029c0:	03061093          	slli	ra,a2,0x30
    800029c4:	01061f1b          	slliw	t5,a2,0x10
    800029c8:	0016869b          	addiw	a3,a3,1
    800029cc:	0300d513          	srli	a0,ra,0x30
    800029d0:	410f579b          	sraiw	a5,t5,0x10
    800029d4:	f2d294e3          	bne	t0,a3,800028fc <matrix_test+0x734>
    800029d8:	0018089b          	addiw	a7,a6,1
    800029dc:	005482bb          	addw	t0,s1,t0
    800029e0:	007483bb          	addw	t2,s1,t2
    800029e4:	09680663          	beq	a6,s6,80002a70 <matrix_test+0x8a8>
    800029e8:	00088813          	mv	a6,a7
    800029ec:	e3dff06f          	j	80002828 <matrix_test+0x660>
    800029f0:	00a8871b          	addiw	a4,a7,10
    800029f4:	03071f13          	slli	t5,a4,0x30
    800029f8:	01071e9b          	slliw	t4,a4,0x10
    800029fc:	030f5513          	srli	a0,t5,0x30
    80002a00:	410ed79b          	sraiw	a5,t4,0x10
    80002a04:	00000713          	li	a4,0
    80002a08:	eedff06f          	j	800028f4 <matrix_test+0x72c>
    80002a0c:	00a5871b          	addiw	a4,a1,10
    80002a10:	01071f1b          	slliw	t5,a4,0x10
    80002a14:	410f5e9b          	sraiw	t4,t5,0x10
    80002a18:	00000513          	li	a0,0
    80002a1c:	f79ff06f          	j	80002994 <matrix_test+0x7cc>
    80002a20:	011fafb3          	slt	t6,t6,a7
    80002a24:	01cf85bb          	addw	a1,t6,t3
    80002a28:	0105961b          	slliw	a2,a1,0x10
    80002a2c:	41065f1b          	sraiw	t5,a2,0x10
    80002a30:	f31ff06f          	j	80002960 <matrix_test+0x798>
    80002a34:	01f32333          	slt	t1,t1,t6
    80002a38:	01130e3b          	addw	t3,t1,a7
    80002a3c:	010e159b          	slliw	a1,t3,0x10
    80002a40:	4105d61b          	sraiw	a2,a1,0x10
    80002a44:	ee9ff06f          	j	8000292c <matrix_test+0x764>
    80002a48:	00a6071b          	addiw	a4,a2,10
    80002a4c:	01071f1b          	slliw	t5,a4,0x10
    80002a50:	410f579b          	sraiw	a5,t5,0x10
    80002a54:	00000713          	li	a4,0
    80002a58:	e5dff06f          	j	800028b4 <matrix_test+0x6ec>
    80002a5c:	00a6071b          	addiw	a4,a2,10
    80002a60:	01071f1b          	slliw	t5,a4,0x10
    80002a64:	410f579b          	sraiw	a5,t5,0x10
    80002a68:	00000713          	li	a4,0
    80002a6c:	e11ff06f          	j	8000287c <matrix_test+0x6b4>
    80002a70:	000b8593          	mv	a1,s7
    80002a74:	800ff0ef          	jal	ra,80001a74 <crcu16>
    80002a78:	00050b13          	mv	s6,a0
    80002a7c:	00098693          	mv	a3,s3
    80002a80:	000a0613          	mv	a2,s4
    80002a84:	00040593          	mv	a1,s0
    80002a88:	00048513          	mv	a0,s1
    80002a8c:	d3cfe0ef          	jal	ra,80000fc8 <matrix_mul_matrix>
    80002a90:	00000313          	li	t1,0
    80002a94:	00000b93          	li	s7,0
    80002a98:	00000293          	li	t0,0
    80002a9c:	00000393          	li	t2,0
    80002aa0:	00000813          	li	a6,0
    80002aa4:	00000e13          	li	t3,0
    80002aa8:	0200006f          	j	80002ac8 <matrix_test+0x900>
    80002aac:	030e9b93          	slli	s7,t4,0x30
    80002ab0:	010e939b          	slliw	t2,t4,0x10
    80002ab4:	001e0e1b          	addiw	t3,t3,1
    80002ab8:	030bd513          	srli	a0,s7,0x30
    80002abc:	4103db9b          	sraiw	s7,t2,0x10
    80002ac0:	00000393          	li	t2,0
    80002ac4:	049e7863          	bgeu	t3,s1,80002b14 <matrix_test+0x94c>
    80002ac8:	006e0fbb          	addw	t6,t3,t1
    80002acc:	020f9613          	slli	a2,t6,0x20
    80002ad0:	01e65593          	srli	a1,a2,0x1e
    80002ad4:	00b40533          	add	a0,s0,a1
    80002ad8:	00028613          	mv	a2,t0
    80002adc:	00052283          	lw	t0,0(a0)
    80002ae0:	030b9093          	slli	ra,s7,0x30
    80002ae4:	0300df13          	srli	t5,ra,0x30
    80002ae8:	005627b3          	slt	a5,a2,t0
    80002aec:	007283bb          	addw	t2,t0,t2
    80002af0:	00af0e9b          	addiw	t4,t5,10
    80002af4:	01e7873b          	addw	a4,a5,t5
    80002af8:	fa7acae3          	blt	s5,t2,80002aac <matrix_test+0x8e4>
    80002afc:	03071693          	slli	a3,a4,0x30
    80002b00:	0107189b          	slliw	a7,a4,0x10
    80002b04:	001e0e1b          	addiw	t3,t3,1
    80002b08:	0306d513          	srli	a0,a3,0x30
    80002b0c:	4108db9b          	sraiw	s7,a7,0x10
    80002b10:	fa9e6ce3          	bltu	t3,s1,80002ac8 <matrix_test+0x900>
    80002b14:	0018081b          	addiw	a6,a6,1
    80002b18:	0064833b          	addw	t1,s1,t1
    80002b1c:	f89864e3          	bltu	a6,s1,80002aa4 <matrix_test+0x8dc>
    80002b20:	000b0593          	mv	a1,s6
    80002b24:	f51fe0ef          	jal	ra,80001a74 <crcu16>
    80002b28:	00050b13          	mv	s6,a0
    80002b2c:	00098693          	mv	a3,s3
    80002b30:	000a0613          	mv	a2,s4
    80002b34:	00040593          	mv	a1,s0
    80002b38:	00048513          	mv	a0,s1
    80002b3c:	ee8fe0ef          	jal	ra,80001224 <matrix_mul_matrix_bitextract>
    80002b40:	000b0993          	mv	s3,s6
    80002b44:	00000313          	li	t1,0
    80002b48:	00000293          	li	t0,0
    80002b4c:	00000f93          	li	t6,0
    80002b50:	00000813          	li	a6,0
    80002b54:	00000e13          	li	t3,0
    80002b58:	00000593          	li	a1,0
    80002b5c:	0200006f          	j	80002b7c <matrix_test+0x9b4>
    80002b60:	03069293          	slli	t0,a3,0x30
    80002b64:	0106981b          	slliw	a6,a3,0x10
    80002b68:	0015859b          	addiw	a1,a1,1
    80002b6c:	0302d513          	srli	a0,t0,0x30
    80002b70:	4108529b          	sraiw	t0,a6,0x10
    80002b74:	00000813          	li	a6,0
    80002b78:	0495f863          	bgeu	a1,s1,80002bc8 <matrix_test+0xa00>
    80002b7c:	0065853b          	addw	a0,a1,t1
    80002b80:	02051613          	slli	a2,a0,0x20
    80002b84:	01e65093          	srli	ra,a2,0x1e
    80002b88:	00140f33          	add	t5,s0,ra
    80002b8c:	000f8e93          	mv	t4,t6
    80002b90:	000f2f83          	lw	t6,0(t5)
    80002b94:	03029793          	slli	a5,t0,0x30
    80002b98:	0307d713          	srli	a4,a5,0x30
    80002b9c:	01fea8b3          	slt	a7,t4,t6
    80002ba0:	010f883b          	addw	a6,t6,a6
    80002ba4:	00a7069b          	addiw	a3,a4,10
    80002ba8:	00e88bbb          	addw	s7,a7,a4
    80002bac:	fb0acae3          	blt	s5,a6,80002b60 <matrix_test+0x998>
    80002bb0:	030b9393          	slli	t2,s7,0x30
    80002bb4:	010b9b1b          	slliw	s6,s7,0x10
    80002bb8:	0015859b          	addiw	a1,a1,1
    80002bbc:	0303d513          	srli	a0,t2,0x30
    80002bc0:	410b529b          	sraiw	t0,s6,0x10
    80002bc4:	fa95ece3          	bltu	a1,s1,80002b7c <matrix_test+0x9b4>
    80002bc8:	001e0e1b          	addiw	t3,t3,1
    80002bcc:	0064833b          	addw	t1,s1,t1
    80002bd0:	f89e64e3          	bltu	t3,s1,80002b58 <matrix_test+0x990>
    80002bd4:	00098593          	mv	a1,s3
    80002bd8:	e9dfe0ef          	jal	ra,80001a74 <crcu16>
    80002bdc:	00000413          	li	s0,0
    80002be0:	00000a93          	li	s5,0
    80002be4:	00000993          	li	s3,0
    80002be8:	0089833b          	addw	t1,s3,s0
    80002bec:	02031f93          	slli	t6,t1,0x20
    80002bf0:	01ffde13          	srli	t3,t6,0x1f
    80002bf4:	01ca05b3          	add	a1,s4,t3
    80002bf8:	0005d603          	lhu	a2,0(a1)
    80002bfc:	0019899b          	addiw	s3,s3,1
    80002c00:	412600bb          	subw	ra,a2,s2
    80002c04:	00159023          	sh	ra,0(a1)
    80002c08:	fe99e0e3          	bltu	s3,s1,80002be8 <matrix_test+0xa20>
    80002c0c:	001a8a9b          	addiw	s5,s5,1
    80002c10:	0084843b          	addw	s0,s1,s0
    80002c14:	fc9ae8e3          	bltu	s5,s1,80002be4 <matrix_test+0xa1c>
    80002c18:	04813083          	ld	ra,72(sp)
    80002c1c:	04013403          	ld	s0,64(sp)
    80002c20:	0105149b          	slliw	s1,a0,0x10
    80002c24:	03013903          	ld	s2,48(sp)
    80002c28:	02813983          	ld	s3,40(sp)
    80002c2c:	02013a03          	ld	s4,32(sp)
    80002c30:	01813a83          	ld	s5,24(sp)
    80002c34:	01013b03          	ld	s6,16(sp)
    80002c38:	00813b83          	ld	s7,8(sp)
    80002c3c:	4104d51b          	sraiw	a0,s1,0x10
    80002c40:	03813483          	ld	s1,56(sp)
    80002c44:	05010113          	addi	sp,sp,80
    80002c48:	00008067          	ret
    80002c4c:	00000593          	li	a1,0
    80002c50:	e25fe0ef          	jal	ra,80001a74 <crcu16>
    80002c54:	00098693          	mv	a3,s3
    80002c58:	000a0613          	mv	a2,s4
    80002c5c:	00050493          	mv	s1,a0
    80002c60:	00040593          	mv	a1,s0
    80002c64:	00000513          	li	a0,0
    80002c68:	9d4fe0ef          	jal	ra,80000e3c <matrix_mul_vect>
    80002c6c:	00048593          	mv	a1,s1
    80002c70:	00000513          	li	a0,0
    80002c74:	e01fe0ef          	jal	ra,80001a74 <crcu16>
    80002c78:	00098693          	mv	a3,s3
    80002c7c:	000a0613          	mv	a2,s4
    80002c80:	00050913          	mv	s2,a0
    80002c84:	00040593          	mv	a1,s0
    80002c88:	00000513          	li	a0,0
    80002c8c:	b3cfe0ef          	jal	ra,80000fc8 <matrix_mul_matrix>
    80002c90:	00090593          	mv	a1,s2
    80002c94:	00000513          	li	a0,0
    80002c98:	dddfe0ef          	jal	ra,80001a74 <crcu16>
    80002c9c:	00050b13          	mv	s6,a0
    80002ca0:	00040593          	mv	a1,s0
    80002ca4:	00098693          	mv	a3,s3
    80002ca8:	000a0613          	mv	a2,s4
    80002cac:	00000513          	li	a0,0
    80002cb0:	d74fe0ef          	jal	ra,80001224 <matrix_mul_matrix_bitextract>
    80002cb4:	000b0593          	mv	a1,s6
    80002cb8:	00000513          	li	a0,0
    80002cbc:	db9fe0ef          	jal	ra,80001a74 <crcu16>
    80002cc0:	f59ff06f          	j	80002c18 <matrix_test+0xa50>

0000000080002cc4 <core_bench_matrix>:
    80002cc4:	ff010113          	addi	sp,sp,-16
    80002cc8:	00813023          	sd	s0,0(sp)
    80002ccc:	01053683          	ld	a3,16(a0)
    80002cd0:	00060413          	mv	s0,a2
    80002cd4:	00058713          	mv	a4,a1
    80002cd8:	00853603          	ld	a2,8(a0)
    80002cdc:	01853583          	ld	a1,24(a0)
    80002ce0:	00052503          	lw	a0,0(a0)
    80002ce4:	00113423          	sd	ra,8(sp)
    80002ce8:	ce0ff0ef          	jal	ra,800021c8 <matrix_test>
    80002cec:	00040593          	mv	a1,s0
    80002cf0:	00013403          	ld	s0,0(sp)
    80002cf4:	00813083          	ld	ra,8(sp)
    80002cf8:	03051513          	slli	a0,a0,0x30
    80002cfc:	03055513          	srli	a0,a0,0x30
    80002d00:	01010113          	addi	sp,sp,16
    80002d04:	d71fe06f          	j	80001a74 <crcu16>

0000000080002d08 <crcu32>:
    80002d08:	ff010113          	addi	sp,sp,-16
    80002d0c:	00813023          	sd	s0,0(sp)
    80002d10:	00050413          	mv	s0,a0
    80002d14:	03051513          	slli	a0,a0,0x30
    80002d18:	03055513          	srli	a0,a0,0x30
    80002d1c:	00113423          	sd	ra,8(sp)
    80002d20:	d55fe0ef          	jal	ra,80001a74 <crcu16>
    80002d24:	00050593          	mv	a1,a0
    80002d28:	0104551b          	srliw	a0,s0,0x10
    80002d2c:	00013403          	ld	s0,0(sp)
    80002d30:	00813083          	ld	ra,8(sp)
    80002d34:	01010113          	addi	sp,sp,16
    80002d38:	d3dfe06f          	j	80001a74 <crcu16>

0000000080002d3c <core_bench_state>:
    80002d3c:	f6010113          	addi	sp,sp,-160
    80002d40:	08813823          	sd	s0,144(sp)
    80002d44:	09213023          	sd	s2,128(sp)
    80002d48:	07313c23          	sd	s3,120(sp)
    80002d4c:	07413823          	sd	s4,112(sp)
    80002d50:	07513423          	sd	s5,104(sp)
    80002d54:	07613023          	sd	s6,96(sp)
    80002d58:	08113c23          	sd	ra,152(sp)
    80002d5c:	08913423          	sd	s1,136(sp)
    80002d60:	05713c23          	sd	s7,88(sp)
    80002d64:	00058a13          	mv	s4,a1
    80002d68:	0005c583          	lbu	a1,0(a1)
    80002d6c:	01413423          	sd	s4,8(sp)
    80002d70:	02013823          	sd	zero,48(sp)
    80002d74:	02013c23          	sd	zero,56(sp)
    80002d78:	04013023          	sd	zero,64(sp)
    80002d7c:	04013423          	sd	zero,72(sp)
    80002d80:	00013823          	sd	zero,16(sp)
    80002d84:	00013c23          	sd	zero,24(sp)
    80002d88:	02013023          	sd	zero,32(sp)
    80002d8c:	02013423          	sd	zero,40(sp)
    80002d90:	00050b13          	mv	s6,a0
    80002d94:	00060a93          	mv	s5,a2
    80002d98:	00068993          	mv	s3,a3
    80002d9c:	00070913          	mv	s2,a4
    80002da0:	00078413          	mv	s0,a5
    80002da4:	14058863          	beqz	a1,80002ef4 <core_bench_state+0x1b8>
    80002da8:	03010493          	addi	s1,sp,48
    80002dac:	00810b93          	addi	s7,sp,8
    80002db0:	00048593          	mv	a1,s1
    80002db4:	000b8513          	mv	a0,s7
    80002db8:	801fe0ef          	jal	ra,800015b8 <core_state_transition>
    80002dbc:	02051813          	slli	a6,a0,0x20
    80002dc0:	01e85313          	srli	t1,a6,0x1e
    80002dc4:	05010793          	addi	a5,sp,80
    80002dc8:	006783b3          	add	t2,a5,t1
    80002dcc:	00813703          	ld	a4,8(sp)
    80002dd0:	fc03a503          	lw	a0,-64(t2)
    80002dd4:	00074603          	lbu	a2,0(a4)
    80002dd8:	0015069b          	addiw	a3,a0,1
    80002ddc:	fcd3a023          	sw	a3,-64(t2)
    80002de0:	fc0618e3          	bnez	a2,80002db0 <core_bench_state+0x74>
    80002de4:	020b1893          	slli	a7,s6,0x20
    80002de8:	0208de13          	srli	t3,a7,0x20
    80002dec:	01413423          	sd	s4,8(sp)
    80002df0:	01ca0b33          	add	s6,s4,t3
    80002df4:	000a4583          	lbu	a1,0(s4)
    80002df8:	116a7a63          	bgeu	s4,s6,80002f0c <core_bench_state+0x1d0>
    80002dfc:	000a0093          	mv	ra,s4
    80002e00:	02c00e93          	li	t4,44
    80002e04:	0080006f          	j	80002e0c <core_bench_state+0xd0>
    80002e08:	0000c583          	lbu	a1,0(ra)
    80002e0c:	0155cf33          	xor	t5,a1,s5
    80002e10:	01d58463          	beq	a1,t4,80002e18 <core_bench_state+0xdc>
    80002e14:	01e08023          	sb	t5,0(ra)
    80002e18:	00813f83          	ld	t6,8(sp)
    80002e1c:	012f80b3          	add	ra,t6,s2
    80002e20:	00113423          	sd	ra,8(sp)
    80002e24:	ff60e2e3          	bltu	ra,s6,80002e08 <core_bench_state+0xcc>
    80002e28:	000a4583          	lbu	a1,0(s4)
    80002e2c:	01413423          	sd	s4,8(sp)
    80002e30:	00810b93          	addi	s7,sp,8
    80002e34:	04058063          	beqz	a1,80002e74 <core_bench_state+0x138>
    80002e38:	00048593          	mv	a1,s1
    80002e3c:	000b8513          	mv	a0,s7
    80002e40:	f78fe0ef          	jal	ra,800015b8 <core_state_transition>
    80002e44:	02051a93          	slli	s5,a0,0x20
    80002e48:	01ead293          	srli	t0,s5,0x1e
    80002e4c:	05010813          	addi	a6,sp,80
    80002e50:	00580333          	add	t1,a6,t0
    80002e54:	00813383          	ld	t2,8(sp)
    80002e58:	fc032783          	lw	a5,-64(t1)
    80002e5c:	0003c503          	lbu	a0,0(t2)
    80002e60:	0017871b          	addiw	a4,a5,1
    80002e64:	fce32023          	sw	a4,-64(t1)
    80002e68:	fc0518e3          	bnez	a0,80002e38 <core_bench_state+0xfc>
    80002e6c:	01413423          	sd	s4,8(sp)
    80002e70:	036a7463          	bgeu	s4,s6,80002e98 <core_bench_state+0x15c>
    80002e74:	02c00b93          	li	s7,44
    80002e78:	000a4603          	lbu	a2,0(s4)
    80002e7c:	013646b3          	xor	a3,a2,s3
    80002e80:	01760463          	beq	a2,s7,80002e88 <core_bench_state+0x14c>
    80002e84:	00da0023          	sb	a3,0(s4)
    80002e88:	00813a03          	ld	s4,8(sp)
    80002e8c:	012a0a33          	add	s4,s4,s2
    80002e90:	01413423          	sd	s4,8(sp)
    80002e94:	ff6a62e3          	bltu	s4,s6,80002e78 <core_bench_state+0x13c>
    80002e98:	01010b13          	addi	s6,sp,16
    80002e9c:	00048a93          	mv	s5,s1
    80002ea0:	000b2503          	lw	a0,0(s6)
    80002ea4:	00040593          	mv	a1,s0
    80002ea8:	004b0b13          	addi	s6,s6,4
    80002eac:	e5dff0ef          	jal	ra,80002d08 <crcu32>
    80002eb0:	00050593          	mv	a1,a0
    80002eb4:	000aa503          	lw	a0,0(s5) # fffffffffffff000 <_pmem_end+0xffffffff77fff000>
    80002eb8:	004a8a93          	addi	s5,s5,4
    80002ebc:	e4dff0ef          	jal	ra,80002d08 <crcu32>
    80002ec0:	00050413          	mv	s0,a0
    80002ec4:	fc9b1ee3          	bne	s6,s1,80002ea0 <core_bench_state+0x164>
    80002ec8:	09813083          	ld	ra,152(sp)
    80002ecc:	09013403          	ld	s0,144(sp)
    80002ed0:	08813483          	ld	s1,136(sp)
    80002ed4:	08013903          	ld	s2,128(sp)
    80002ed8:	07813983          	ld	s3,120(sp)
    80002edc:	07013a03          	ld	s4,112(sp)
    80002ee0:	06813a83          	ld	s5,104(sp)
    80002ee4:	06013b03          	ld	s6,96(sp)
    80002ee8:	05813b83          	ld	s7,88(sp)
    80002eec:	0a010113          	addi	sp,sp,160
    80002ef0:	00008067          	ret
    80002ef4:	02051093          	slli	ra,a0,0x20
    80002ef8:	0200d293          	srli	t0,ra,0x20
    80002efc:	005a0b33          	add	s6,s4,t0
    80002f00:	03010493          	addi	s1,sp,48
    80002f04:	ef6a6ce3          	bltu	s4,s6,80002dfc <core_bench_state+0xc0>
    80002f08:	f91ff06f          	j	80002e98 <core_bench_state+0x15c>
    80002f0c:	f20596e3          	bnez	a1,80002e38 <core_bench_state+0xfc>
    80002f10:	f89ff06f          	j	80002e98 <core_bench_state+0x15c>

0000000080002f14 <calc_func>:
    80002f14:	fd010113          	addi	sp,sp,-48
    80002f18:	02813023          	sd	s0,32(sp)
    80002f1c:	00051403          	lh	s0,0(a0)
    80002f20:	02113423          	sd	ra,40(sp)
    80002f24:	00913c23          	sd	s1,24(sp)
    80002f28:	4074579b          	sraiw	a5,s0,0x7
    80002f2c:	01213823          	sd	s2,16(sp)
    80002f30:	01313423          	sd	s3,8(sp)
    80002f34:	0017f093          	andi	ra,a5,1
    80002f38:	02008263          	beqz	ra,80002f5c <calc_func+0x48>
    80002f3c:	02813083          	ld	ra,40(sp)
    80002f40:	07f47513          	andi	a0,s0,127
    80002f44:	02013403          	ld	s0,32(sp)
    80002f48:	01813483          	ld	s1,24(sp)
    80002f4c:	01013903          	ld	s2,16(sp)
    80002f50:	00813983          	ld	s3,8(sp)
    80002f54:	03010113          	addi	sp,sp,48
    80002f58:	00008067          	ret
    80002f5c:	00058493          	mv	s1,a1
    80002f60:	4034559b          	sraiw	a1,s0,0x3
    80002f64:	00f5f293          	andi	t0,a1,15
    80002f68:	00429713          	slli	a4,t0,0x4
    80002f6c:	00747693          	andi	a3,s0,7
    80002f70:	0604d783          	lhu	a5,96(s1)
    80002f74:	00050993          	mv	s3,a0
    80002f78:	005765b3          	or	a1,a4,t0
    80002f7c:	08068063          	beqz	a3,80002ffc <calc_func+0xe8>
    80002f80:	00100513          	li	a0,1
    80002f84:	04a68863          	beq	a3,a0,80002fd4 <calc_func+0xc0>
    80002f88:	03041e13          	slli	t3,s0,0x30
    80002f8c:	030e5513          	srli	a0,t3,0x30
    80002f90:	00040913          	mv	s2,s0
    80002f94:	00078593          	mv	a1,a5
    80002f98:	addfe0ef          	jal	ra,80001a74 <crcu16>
    80002f9c:	00050e93          	mv	t4,a0
    80002fa0:	f0047f13          	andi	t5,s0,-256
    80002fa4:	07f97513          	andi	a0,s2,127
    80002fa8:	01e56fb3          	or	t6,a0,t5
    80002fac:	07d49023          	sh	t4,96(s1)
    80002fb0:	080fe413          	ori	s0,t6,128
    80002fb4:	00899023          	sh	s0,0(s3)
    80002fb8:	02813083          	ld	ra,40(sp)
    80002fbc:	02013403          	ld	s0,32(sp)
    80002fc0:	01813483          	ld	s1,24(sp)
    80002fc4:	01013903          	ld	s2,16(sp)
    80002fc8:	00813983          	ld	s3,8(sp)
    80002fcc:	03010113          	addi	sp,sp,48
    80002fd0:	00008067          	ret
    80002fd4:	00078613          	mv	a2,a5
    80002fd8:	04048513          	addi	a0,s1,64
    80002fdc:	ce9ff0ef          	jal	ra,80002cc4 <core_bench_matrix>
    80002fe0:	0644d803          	lhu	a6,100(s1)
    80002fe4:	0105189b          	slliw	a7,a0,0x10
    80002fe8:	4108d91b          	sraiw	s2,a7,0x10
    80002fec:	04081a63          	bnez	a6,80003040 <calc_func+0x12c>
    80002ff0:	0604d783          	lhu	a5,96(s1)
    80002ff4:	06a49223          	sh	a0,100(s1)
    80002ff8:	f9dff06f          	j	80002f94 <calc_func+0x80>
    80002ffc:	02200313          	li	t1,34
    80003000:	00058393          	mv	t2,a1
    80003004:	0065d463          	bge	a1,t1,8000300c <calc_func+0xf8>
    80003008:	02200393          	li	t2,34
    8000300c:	00049603          	lh	a2,0(s1)
    80003010:	00249683          	lh	a3,2(s1)
    80003014:	0204b583          	ld	a1,32(s1)
    80003018:	0284a503          	lw	a0,40(s1)
    8000301c:	0ff3f713          	andi	a4,t2,255
    80003020:	d1dff0ef          	jal	ra,80002d3c <core_bench_state>
    80003024:	0664d603          	lhu	a2,102(s1)
    80003028:	0105191b          	slliw	s2,a0,0x10
    8000302c:	4109591b          	sraiw	s2,s2,0x10
    80003030:	00061863          	bnez	a2,80003040 <calc_func+0x12c>
    80003034:	0604d783          	lhu	a5,96(s1)
    80003038:	06a49323          	sh	a0,102(s1)
    8000303c:	f59ff06f          	j	80002f94 <calc_func+0x80>
    80003040:	0604d783          	lhu	a5,96(s1)
    80003044:	f51ff06f          	j	80002f94 <calc_func+0x80>

0000000080003048 <cmp_complex>:
    80003048:	fe010113          	addi	sp,sp,-32
    8000304c:	00913423          	sd	s1,8(sp)
    80003050:	00058493          	mv	s1,a1
    80003054:	00060593          	mv	a1,a2
    80003058:	00113c23          	sd	ra,24(sp)
    8000305c:	00813823          	sd	s0,16(sp)
    80003060:	00060413          	mv	s0,a2
    80003064:	eb1ff0ef          	jal	ra,80002f14 <calc_func>
    80003068:	00050793          	mv	a5,a0
    8000306c:	00040593          	mv	a1,s0
    80003070:	00048513          	mv	a0,s1
    80003074:	00078413          	mv	s0,a5
    80003078:	e9dff0ef          	jal	ra,80002f14 <calc_func>
    8000307c:	01813083          	ld	ra,24(sp)
    80003080:	40a4053b          	subw	a0,s0,a0
    80003084:	01013403          	ld	s0,16(sp)
    80003088:	00813483          	ld	s1,8(sp)
    8000308c:	02010113          	addi	sp,sp,32
    80003090:	00008067          	ret

0000000080003094 <crc16>:
    80003094:	03051513          	slli	a0,a0,0x30
    80003098:	03055513          	srli	a0,a0,0x30
    8000309c:	9d9fe06f          	j	80001a74 <crcu16>

00000000800030a0 <check_data_types>:
    800030a0:	00000513          	li	a0,0
    800030a4:	00008067          	ret

00000000800030a8 <start_time>:
    800030a8:	b00027f3          	csrr	a5,mcycle
    800030ac:	02079293          	slli	t0,a5,0x20
    800030b0:	0202d313          	srli	t1,t0,0x20
    800030b4:	00004717          	auipc	a4,0x4
    800030b8:	24673623          	sd	t1,588(a4) # 80007300 <start_time_val>
    800030bc:	00008067          	ret

00000000800030c0 <stop_time>:
    800030c0:	b00027f3          	csrr	a5,mcycle
    800030c4:	02079293          	slli	t0,a5,0x20
    800030c8:	0202d313          	srli	t1,t0,0x20
    800030cc:	00004717          	auipc	a4,0x4
    800030d0:	22673623          	sd	t1,556(a4) # 800072f8 <stop_time_val>
    800030d4:	00008067          	ret

00000000800030d8 <get_time>:
    800030d8:	00004517          	auipc	a0,0x4
    800030dc:	22053503          	ld	a0,544(a0) # 800072f8 <stop_time_val>
    800030e0:	00004797          	auipc	a5,0x4
    800030e4:	2207b783          	ld	a5,544(a5) # 80007300 <start_time_val>
    800030e8:	40f50533          	sub	a0,a0,a5
    800030ec:	00008067          	ret

00000000800030f0 <time_in_secs>:
    800030f0:	3e800793          	li	a5,1000
    800030f4:	02f5553b          	divuw	a0,a0,a5
    800030f8:	00008067          	ret

00000000800030fc <portable_init>:
    800030fc:	00100793          	li	a5,1
    80003100:	00f50023          	sb	a5,0(a0)
    80003104:	00008067          	ret

0000000080003108 <portable_fini>:
    80003108:	00050023          	sb	zero,0(a0)
    8000310c:	00008067          	ret

Disassembly of section .text.startup:

0000000080003110 <main>:
    80003110:	f6010113          	addi	sp,sp,-160
    80003114:	00004617          	auipc	a2,0x4
    80003118:	1fc62603          	lw	a2,508(a2) # 80007310 <seed1_volatile>
    8000311c:	00100593          	li	a1,1
    80003120:	00004697          	auipc	a3,0x4
    80003124:	1ec6a683          	lw	a3,492(a3) # 8000730c <seed2_volatile>
    80003128:	00004717          	auipc	a4,0x4
    8000312c:	1c872703          	lw	a4,456(a4) # 800072f0 <seed3_volatile>
    80003130:	00004797          	auipc	a5,0x4
    80003134:	1bc7a783          	lw	a5,444(a5) # 800072ec <seed4_volatile>
    80003138:	08113c23          	sd	ra,152(sp)
    8000313c:	08813823          	sd	s0,144(sp)
    80003140:	08913423          	sd	s1,136(sp)
    80003144:	09213023          	sd	s2,128(sp)
    80003148:	07313c23          	sd	s3,120(sp)
    8000314c:	06b10523          	sb	a1,106(sp)
    80003150:	00c11023          	sh	a2,0(sp)
    80003154:	00d11123          	sh	a3,2(sp)
    80003158:	00e11223          	sh	a4,4(sp)
    8000315c:	02f12623          	sw	a5,44(sp)
    80003160:	00004097          	auipc	ra,0x4
    80003164:	1a80a083          	lw	ra,424(ra) # 80007308 <seed5_volatile>
    80003168:	00009463          	bnez	ra,80003170 <main+0x60>
    8000316c:	00700093          	li	ra,7
    80003170:	00013383          	ld	t2,0(sp)
    80003174:	02112823          	sw	ra,48(sp)
    80003178:	01039293          	slli	t0,t2,0x10
    8000317c:	00029a63          	bnez	t0,80003190 <main+0x80>
    80003180:	06600313          	li	t1,102
    80003184:	00012023          	sw	zero,0(sp)
    80003188:	00611223          	sh	t1,4(sp)
    8000318c:	00013383          	ld	t2,0(sp)
    80003190:	01039413          	slli	s0,t2,0x10
    80003194:	01045493          	srli	s1,s0,0x10
    80003198:	00100513          	li	a0,1
    8000319c:	00a49c63          	bne	s1,a0,800031b4 <main+0xa4>
    800031a0:	34153837          	lui	a6,0x34153
    800031a4:	4158089b          	addiw	a7,a6,1045
    800031a8:	06600913          	li	s2,102
    800031ac:	01112023          	sw	a7,0(sp)
    800031b0:	01211223          	sh	s2,4(sp)
    800031b4:	03012783          	lw	a5,48(sp)
    800031b8:	00004997          	auipc	s3,0x4
    800031bc:	16098993          	addi	s3,s3,352 # 80007318 <static_memblk>
    800031c0:	01313423          	sd	s3,8(sp)
    800031c4:	0027f713          	andi	a4,a5,2
    800031c8:	0017fe13          	andi	t3,a5,1
    800031cc:	06011423          	sh	zero,104(sp)
    800031d0:	000e0293          	mv	t0,t3
    800031d4:	00070e9b          	sext.w	t4,a4
    800031d8:	00070863          	beqz	a4,800031e8 <main+0xd8>
    800031dc:	001e0f1b          	addiw	t5,t3,1
    800031e0:	030f1f93          	slli	t6,t5,0x30
    800031e4:	030fd293          	srli	t0,t6,0x30
    800031e8:	0047f693          	andi	a3,a5,4
    800031ec:	0006859b          	sext.w	a1,a3
    800031f0:	00068863          	beqz	a3,80003200 <main+0xf0>
    800031f4:	0012861b          	addiw	a2,t0,1
    800031f8:	03061093          	slli	ra,a2,0x30
    800031fc:	0300d293          	srli	t0,ra,0x30
    80003200:	7d000313          	li	t1,2000
    80003204:	0253553b          	divuw	a0,t1,t0
    80003208:	00000893          	li	a7,0
    8000320c:	02a12423          	sw	a0,40(sp)
    80003210:	00050393          	mv	t2,a0
    80003214:	2e0e1663          	bnez	t3,80003500 <__perf_end+0x28c>
    80003218:	2e0e9a63          	bnez	t4,8000350c <__perf_end+0x298>
    8000321c:	2c059463          	bnez	a1,800034e4 <__perf_end+0x270>
    80003220:	1c0e1a63          	bnez	t3,800033f4 <__perf_end+0x180>
    80003224:	1e071663          	bnez	a4,80003410 <__perf_end+0x19c>
    80003228:	0047f093          	andi	ra,a5,4
    8000322c:	00008a63          	beqz	ra,80003240 <main+0x130>
    80003230:	02013603          	ld	a2,32(sp)
    80003234:	00011583          	lh	a1,0(sp)
    80003238:	02812503          	lw	a0,40(sp)
    8000323c:	964fe0ef          	jal	ra,800013a0 <core_init_state>
    80003240:	02c12283          	lw	t0,44(sp)
    80003244:	22028863          	beqz	t0,80003474 <__perf_end+0x200>
    80003248:	00010493          	mv	s1,sp
    8000324c:	00004417          	auipc	s0,0x4
    80003250:	0ac40413          	addi	s0,s0,172 # 800072f8 <stop_time_val>
    80003254:	00004917          	auipc	s2,0x4
    80003258:	0ac90913          	addi	s2,s2,172 # 80007300 <start_time_val>
    8000325c:	b00022f3          	csrr	t0,mcycle
    80003260:	02029313          	slli	t1,t0,0x20
    80003264:	02035993          	srli	s3,t1,0x20
    80003268:	01393023          	sd	s3,0(s2)

000000008000326c <__perf_start>:
    8000326c:	00048513          	mv	a0,s1
    80003270:	d25fe0ef          	jal	ra,80001f94 <iterate>

0000000080003274 <__perf_end>:
    80003274:	b00024f3          	csrr	s1,mcycle
    80003278:	00015503          	lhu	a0,0(sp)
    8000327c:	02049913          	slli	s2,s1,0x20
    80003280:	02095393          	srli	t2,s2,0x20
    80003284:	00000593          	li	a1,0
    80003288:	00743023          	sd	t2,0(s0)
    8000328c:	fe8fe0ef          	jal	ra,80001a74 <crcu16>
    80003290:	00050593          	mv	a1,a0
    80003294:	00215503          	lhu	a0,2(sp)
    80003298:	fdcfe0ef          	jal	ra,80001a74 <crcu16>
    8000329c:	00050593          	mv	a1,a0
    800032a0:	00415503          	lhu	a0,4(sp)
    800032a4:	fd0fe0ef          	jal	ra,80001a74 <crcu16>
    800032a8:	00050593          	mv	a1,a0
    800032ac:	02815503          	lhu	a0,40(sp)
    800032b0:	fc4fe0ef          	jal	ra,80001a74 <crcu16>
    800032b4:	00008837          	lui	a6,0x8
    800032b8:	0005041b          	sext.w	s0,a0
    800032bc:	b0580893          	addi	a7,a6,-1275 # 7b05 <_start-0x7fff84fb>
    800032c0:	2d140663          	beq	s0,a7,8000358c <__perf_end+0x318>
    800032c4:	1688ec63          	bltu	a7,s0,8000343c <__perf_end+0x1c8>
    800032c8:	000025b7          	lui	a1,0x2
    800032cc:	8f258713          	addi	a4,a1,-1806 # 18f2 <_start-0x7fffe70e>
    800032d0:	2ae40663          	beq	s0,a4,8000357c <__perf_end+0x308>
    800032d4:	00005e37          	lui	t3,0x5
    800032d8:	eafe0613          	addi	a2,t3,-337 # 4eaf <_start-0x7fffb151>
    800032dc:	00200513          	li	a0,2
    800032e0:	16c41c63          	bne	s0,a2,80003458 <__perf_end+0x1e4>
    800032e4:	00004097          	auipc	ra,0x4
    800032e8:	00408093          	addi	ra,ra,4 # 800072e8 <default_num_contexts>
    800032ec:	03012303          	lw	t1,48(sp)
    800032f0:	0000a983          	lw	s3,0(ra)
    800032f4:	00000493          	li	s1,0
    800032f8:	00137913          	andi	s2,t1,1
    800032fc:	00000293          	li	t0,0
    80003300:	0c098c63          	beqz	s3,800033d8 <__perf_end+0x164>
    80003304:	00151793          	slli	a5,a0,0x1
    80003308:	00004397          	auipc	t2,0x4
    8000330c:	b3838393          	addi	t2,t2,-1224 # 80006e40 <intpat>
    80003310:	00f38433          	add	s0,t2,a5
    80003314:	00100893          	li	a7,1
    80003318:	00329813          	slli	a6,t0,0x3
    8000331c:	40580eb3          	sub	t4,a6,t0
    80003320:	004e9f13          	slli	t5,t4,0x4
    80003324:	07010513          	addi	a0,sp,112
    80003328:	01e50fb3          	add	t6,a0,t5
    8000332c:	fc0fa583          	lw	a1,-64(t6)
    80003330:	0014871b          	addiw	a4,s1,1
    80003334:	03071613          	slli	a2,a4,0x30
    80003338:	fe0f9c23          	sh	zero,-8(t6)
    8000333c:	0015f293          	andi	t0,a1,1
    80003340:	000f8693          	mv	a3,t6
    80003344:	000f8e13          	mv	t3,t6
    80003348:	03065493          	srli	s1,a2,0x30
    8000334c:	0025f793          	andi	a5,a1,2
    80003350:	0045f393          	andi	t2,a1,4
    80003354:	00028a63          	beqz	t0,80003368 <__perf_end+0xf4>
    80003358:	ff2fde83          	lhu	t4,-14(t6)
    8000335c:	08045803          	lhu	a6,128(s0)
    80003360:	010e8463          	beq	t4,a6,80003368 <__perf_end+0xf4>
    80003364:	ff1f9c23          	sh	a7,-8(t6)
    80003368:	00078e63          	beqz	a5,80003384 <__perf_end+0x110>
    8000336c:	ff46df03          	lhu	t5,-12(a3)
    80003370:	09045503          	lhu	a0,144(s0)
    80003374:	00af0863          	beq	t5,a0,80003384 <__perf_end+0x110>
    80003378:	ff86df83          	lhu	t6,-8(a3)
    8000337c:	001f859b          	addiw	a1,t6,1
    80003380:	feb69c23          	sh	a1,-8(a3)
    80003384:	00038e63          	beqz	t2,800033a0 <__perf_end+0x12c>
    80003388:	ff6e5683          	lhu	a3,-10(t3)
    8000338c:	0a045703          	lhu	a4,160(s0)
    80003390:	00e68863          	beq	a3,a4,800033a0 <__perf_end+0x12c>
    80003394:	ff8e5283          	lhu	t0,-8(t3)
    80003398:	0012861b          	addiw	a2,t0,1
    8000339c:	fece1c23          	sh	a2,-8(t3)
    800033a0:	0004829b          	sext.w	t0,s1
    800033a4:	f734eae3          	bltu	s1,s3,80003318 <__perf_end+0xa4>
    800033a8:	02090863          	beqz	s2,800033d8 <__perf_end+0x164>
    800033ac:	0000a083          	lw	ra,0(ra)
    800033b0:	00237493          	andi	s1,t1,2
    800033b4:	00437313          	andi	t1,t1,4
    800033b8:	0004841b          	sext.w	s0,s1
    800033bc:	00000693          	li	a3,0
    800033c0:	0003089b          	sext.w	a7,t1
    800033c4:	16041863          	bnez	s0,80003534 <__perf_end+0x2c0>
    800033c8:	00168f9b          	addiw	t6,a3,1
    800033cc:	030f9593          	slli	a1,t6,0x30
    800033d0:	0305d693          	srli	a3,a1,0x30
    800033d4:	fe16e8e3          	bltu	a3,ra,800033c4 <__perf_end+0x150>
    800033d8:	09813083          	ld	ra,152(sp)
    800033dc:	09013403          	ld	s0,144(sp)
    800033e0:	08813483          	ld	s1,136(sp)
    800033e4:	08013903          	ld	s2,128(sp)
    800033e8:	07813983          	ld	s3,120(sp)
    800033ec:	0a010113          	addi	sp,sp,160
    800033f0:	00008067          	ret
    800033f4:	00011603          	lh	a2,0(sp)
    800033f8:	01013583          	ld	a1,16(sp)
    800033fc:	f85fc0ef          	jal	ra,80000380 <core_list_init>
    80003400:	03012783          	lw	a5,48(sp)
    80003404:	02a13c23          	sd	a0,56(sp)
    80003408:	0027f713          	andi	a4,a5,2
    8000340c:	e0070ee3          	beqz	a4,80003228 <main+0x118>
    80003410:	00211503          	lh	a0,2(sp)
    80003414:	00011783          	lh	a5,0(sp)
    80003418:	01813583          	ld	a1,24(sp)
    8000341c:	01051e1b          	slliw	t3,a0,0x10
    80003420:	02812503          	lw	a0,40(sp)
    80003424:	00fe6633          	or	a2,t3,a5
    80003428:	04010693          	addi	a3,sp,64
    8000342c:	0006061b          	sext.w	a2,a2
    80003430:	aacfd0ef          	jal	ra,800006dc <core_init_matrix>
    80003434:	03012783          	lw	a5,48(sp)
    80003438:	df1ff06f          	j	80003228 <main+0x118>
    8000343c:	00009eb7          	lui	t4,0x9
    80003440:	a02e8f13          	addi	t5,t4,-1534 # 8a02 <_start-0x7fff75fe>
    80003444:	15e40063          	beq	s0,t5,80003584 <__perf_end+0x310>
    80003448:	0000ffb7          	lui	t6,0xf
    8000344c:	9f5f8693          	addi	a3,t6,-1547 # e9f5 <_start-0x7fff160b>
    80003450:	00300513          	li	a0,3
    80003454:	e8d408e3          	beq	s0,a3,800032e4 <__perf_end+0x70>
    80003458:	03012303          	lw	t1,48(sp)
    8000345c:	00137993          	andi	s3,t1,1
    80003460:	f6098ce3          	beqz	s3,800033d8 <__perf_end+0x164>
    80003464:	00004097          	auipc	ra,0x4
    80003468:	e840a083          	lw	ra,-380(ra) # 800072e8 <default_num_contexts>
    8000346c:	f40092e3          	bnez	ra,800033b0 <__perf_end+0x13c>
    80003470:	f69ff06f          	j	800033d8 <__perf_end+0x164>
    80003474:	00100313          	li	t1,1
    80003478:	02612623          	sw	t1,44(sp)
    8000347c:	00010493          	mv	s1,sp
    80003480:	00004417          	auipc	s0,0x4
    80003484:	e7840413          	addi	s0,s0,-392 # 800072f8 <stop_time_val>
    80003488:	00004917          	auipc	s2,0x4
    8000348c:	e7890913          	addi	s2,s2,-392 # 80007300 <start_time_val>
    80003490:	3e700993          	li	s3,999
    80003494:	02c12383          	lw	t2,44(sp)
    80003498:	00048513          	mv	a0,s1
    8000349c:	0023981b          	slliw	a6,t2,0x2
    800034a0:	007808bb          	addw	a7,a6,t2
    800034a4:	00189e9b          	slliw	t4,a7,0x1
    800034a8:	03d12623          	sw	t4,44(sp)
    800034ac:	ae9fe0ef          	jal	ra,80001f94 <iterate>
    800034b0:	00043f03          	ld	t5,0(s0)
    800034b4:	00093f83          	ld	t6,0(s2)
    800034b8:	41ff06bb          	subw	a3,t5,t6
    800034bc:	fcd9fce3          	bgeu	s3,a3,80003494 <__perf_end+0x220>
    800034c0:	3e800593          	li	a1,1000
    800034c4:	02b6d53b          	divuw	a0,a3,a1
    800034c8:	00a00713          	li	a4,10
    800034cc:	02c12783          	lw	a5,44(sp)
    800034d0:	02a75e3b          	divuw	t3,a4,a0
    800034d4:	001e061b          	addiw	a2,t3,1
    800034d8:	02c780bb          	mulw	ra,a5,a2
    800034dc:	02112623          	sw	ra,44(sp)
    800034e0:	d7dff06f          	j	8000325c <main+0x14c>
    800034e4:	02788fbb          	mulw	t6,a7,t2
    800034e8:	020f9693          	slli	a3,t6,0x20
    800034ec:	0206d593          	srli	a1,a3,0x20
    800034f0:	00b989b3          	add	s3,s3,a1
    800034f4:	03313023          	sd	s3,32(sp)
    800034f8:	d20e06e3          	beqz	t3,80003224 <main+0x114>
    800034fc:	ef9ff06f          	j	800033f4 <__perf_end+0x180>
    80003500:	01313823          	sd	s3,16(sp)
    80003504:	00100893          	li	a7,1
    80003508:	d00e8ae3          	beqz	t4,8000321c <main+0x10c>
    8000350c:	0278843b          	mulw	s0,a7,t2
    80003510:	0018849b          	addiw	s1,a7,1
    80003514:	03049813          	slli	a6,s1,0x30
    80003518:	03085893          	srli	a7,a6,0x30
    8000351c:	02041913          	slli	s2,s0,0x20
    80003520:	02095e93          	srli	t4,s2,0x20
    80003524:	01d98f33          	add	t5,s3,t4
    80003528:	01e13c23          	sd	t5,24(sp)
    8000352c:	ce058ae3          	beqz	a1,80003220 <main+0x110>
    80003530:	fb5ff06f          	j	800034e4 <__perf_end+0x270>
    80003534:	00000693          	li	a3,0
    80003538:	00089c63          	bnez	a7,80003550 <__perf_end+0x2dc>
    8000353c:	00168f1b          	addiw	t5,a3,1
    80003540:	030f1513          	slli	a0,t5,0x30
    80003544:	03055693          	srli	a3,a0,0x30
    80003548:	e816f0e3          	bgeu	a3,ra,800033c8 <__perf_end+0x154>
    8000354c:	fe0888e3          	beqz	a7,8000353c <__perf_end+0x2c8>
    80003550:	00000913          	li	s2,0
    80003554:	00190e1b          	addiw	t3,s2,1
    80003558:	030e1793          	slli	a5,t3,0x30
    8000355c:	00090393          	mv	t2,s2
    80003560:	0307d913          	srli	s2,a5,0x30
    80003564:	fe1968e3          	bltu	s2,ra,80003554 <__perf_end+0x2e0>
    80003568:	00238e9b          	addiw	t4,t2,2
    8000356c:	030e9813          	slli	a6,t4,0x30
    80003570:	03085693          	srli	a3,a6,0x30
    80003574:	fc16eee3          	bltu	a3,ra,80003550 <__perf_end+0x2dc>
    80003578:	fc5ff06f          	j	8000353c <__perf_end+0x2c8>
    8000357c:	00400513          	li	a0,4
    80003580:	d65ff06f          	j	800032e4 <__perf_end+0x70>
    80003584:	00000513          	li	a0,0
    80003588:	d5dff06f          	j	800032e4 <__perf_end+0x70>
    8000358c:	00100513          	li	a0,1
    80003590:	d55ff06f          	j	800032e4 <__perf_end+0x70>

Disassembly of section .text._putc:

0000000080003594 <_putc>:
    80003594:	0540006f          	j	800035e8 <__am_uartlite_putchar>

Disassembly of section .text._halt:

0000000080003598 <_halt>:
    80003598:	ff010113          	addi	sp,sp,-16
    8000359c:	00113423          	sd	ra,8(sp)
    800035a0:	00050593          	mv	a1,a0
    800035a4:	00050513          	mv	a0,a0
    800035a8:	0005006b          	0x5006b
    800035ac:	00004517          	auipc	a0,0x4
    800035b0:	a3c50513          	addi	a0,a0,-1476 # 80006fe8 <state_known_crc+0x108>
    800035b4:	01d030ef          	jal	ra,80006dd0 <printf_>
    800035b8:	0000006f          	j	800035b8 <_halt+0x20>

Disassembly of section .text._trm_init:

00000000800035bc <_trm_init>:
    800035bc:	ff010113          	addi	sp,sp,-16
    800035c0:	00113423          	sd	ra,8(sp)
    800035c4:	014000ef          	jal	ra,800035d8 <__am_init_uartlite>
    800035c8:	00004517          	auipc	a0,0x4
    800035cc:	a3550513          	addi	a0,a0,-1483 # 80006ffd <__am_mainargs>
    800035d0:	b41ff0ef          	jal	ra,80003110 <main>
    800035d4:	fc5ff0ef          	jal	ra,80003598 <_halt>

Disassembly of section .text.__am_init_uartlite:

00000000800035d8 <__am_init_uartlite>:
    800035d8:	406007b7          	lui	a5,0x40600
    800035dc:	00300713          	li	a4,3
    800035e0:	00e78623          	sb	a4,12(a5) # 4060000c <_start-0x3f9ffff4>
    800035e4:	00008067          	ret

Disassembly of section .text.__am_uartlite_putchar:

00000000800035e8 <__am_uartlite_putchar>:
    800035e8:	ff010113          	addi	sp,sp,-16
    800035ec:	00813023          	sd	s0,0(sp)
    800035f0:	00113423          	sd	ra,8(sp)
    800035f4:	00a00793          	li	a5,10
    800035f8:	00050413          	mv	s0,a0
    800035fc:	02f50463          	beq	a0,a5,80003624 <__am_uartlite_putchar+0x3c>
    80003600:	40600737          	lui	a4,0x40600
    80003604:	00874083          	lbu	ra,8(a4) # 40600008 <_start-0x3f9ffff8>
    80003608:	0080f293          	andi	t0,ra,8
    8000360c:	fe029ce3          	bnez	t0,80003604 <__am_uartlite_putchar+0x1c>
    80003610:	00870223          	sb	s0,4(a4)
    80003614:	00813083          	ld	ra,8(sp)
    80003618:	00013403          	ld	s0,0(sp)
    8000361c:	01010113          	addi	sp,sp,16
    80003620:	00008067          	ret
    80003624:	00d00513          	li	a0,13
    80003628:	fc1ff0ef          	jal	ra,800035e8 <__am_uartlite_putchar>
    8000362c:	fd5ff06f          	j	80003600 <__am_uartlite_putchar+0x18>

Disassembly of section .text._out_null:

0000000080003630 <_out_null>:
    80003630:	00008067          	ret

Disassembly of section .text._out_rev:

0000000080003634 <_out_rev>:
    80003634:	fa010113          	addi	sp,sp,-96
    80003638:	04913423          	sd	s1,72(sp)
    8000363c:	05213023          	sd	s2,64(sp)
    80003640:	03313c23          	sd	s3,56(sp)
    80003644:	03413823          	sd	s4,48(sp)
    80003648:	03613023          	sd	s6,32(sp)
    8000364c:	01713c23          	sd	s7,24(sp)
    80003650:	01813823          	sd	s8,16(sp)
    80003654:	01913423          	sd	s9,8(sp)
    80003658:	01a13023          	sd	s10,0(sp)
    8000365c:	00088c13          	mv	s8,a7
    80003660:	04113c23          	sd	ra,88(sp)
    80003664:	04813823          	sd	s0,80(sp)
    80003668:	03513423          	sd	s5,40(sp)
    8000366c:	0038f893          	andi	a7,a7,3
    80003670:	00060a13          	mv	s4,a2
    80003674:	00050493          	mv	s1,a0
    80003678:	00058913          	mv	s2,a1
    8000367c:	00068993          	mv	s3,a3
    80003680:	00070d13          	mv	s10,a4
    80003684:	00078c93          	mv	s9,a5
    80003688:	00080b93          	mv	s7,a6
    8000368c:	00060b13          	mv	s6,a2
    80003690:	1a089063          	bnez	a7,80003830 <_out_rev+0x1fc>
    80003694:	02081793          	slli	a5,a6,0x20
    80003698:	0207d093          	srli	ra,a5,0x20
    8000369c:	41908b33          	sub	s6,ra,s9
    800036a0:	00cb0b33          	add	s6,s6,a2
    800036a4:	00060413          	mv	s0,a2
    800036a8:	561cfa63          	bgeu	s9,ra,80003c1c <_out_rev+0x5e8>
    800036ac:	40cb02b3          	sub	t0,s6,a2
    800036b0:	0072f313          	andi	t1,t0,7
    800036b4:	0c030a63          	beqz	t1,80003788 <_out_rev+0x154>
    800036b8:	00100713          	li	a4,1
    800036bc:	0ae30863          	beq	t1,a4,8000376c <_out_rev+0x138>
    800036c0:	00200393          	li	t2,2
    800036c4:	08730863          	beq	t1,t2,80003754 <_out_rev+0x120>
    800036c8:	00300513          	li	a0,3
    800036cc:	06a30863          	beq	t1,a0,8000373c <_out_rev+0x108>
    800036d0:	00400813          	li	a6,4
    800036d4:	05030863          	beq	t1,a6,80003724 <_out_rev+0xf0>
    800036d8:	00500a93          	li	s5,5
    800036dc:	03530863          	beq	t1,s5,8000370c <_out_rev+0xd8>
    800036e0:	00600e13          	li	t3,6
    800036e4:	01c30863          	beq	t1,t3,800036f4 <_out_rev+0xc0>
    800036e8:	02000513          	li	a0,32
    800036ec:	00160413          	addi	s0,a2,1
    800036f0:	000480e7          	jalr	s1
    800036f4:	00040613          	mv	a2,s0
    800036f8:	00098693          	mv	a3,s3
    800036fc:	00090593          	mv	a1,s2
    80003700:	02000513          	li	a0,32
    80003704:	00140413          	addi	s0,s0,1
    80003708:	000480e7          	jalr	s1
    8000370c:	00040613          	mv	a2,s0
    80003710:	00098693          	mv	a3,s3
    80003714:	00090593          	mv	a1,s2
    80003718:	02000513          	li	a0,32
    8000371c:	00140413          	addi	s0,s0,1
    80003720:	000480e7          	jalr	s1
    80003724:	00040613          	mv	a2,s0
    80003728:	00098693          	mv	a3,s3
    8000372c:	00090593          	mv	a1,s2
    80003730:	02000513          	li	a0,32
    80003734:	00140413          	addi	s0,s0,1
    80003738:	000480e7          	jalr	s1
    8000373c:	00040613          	mv	a2,s0
    80003740:	00098693          	mv	a3,s3
    80003744:	00090593          	mv	a1,s2
    80003748:	02000513          	li	a0,32
    8000374c:	00140413          	addi	s0,s0,1
    80003750:	000480e7          	jalr	s1
    80003754:	00040613          	mv	a2,s0
    80003758:	00098693          	mv	a3,s3
    8000375c:	00090593          	mv	a1,s2
    80003760:	02000513          	li	a0,32
    80003764:	00140413          	addi	s0,s0,1
    80003768:	000480e7          	jalr	s1
    8000376c:	00040613          	mv	a2,s0
    80003770:	00098693          	mv	a3,s3
    80003774:	00140413          	addi	s0,s0,1
    80003778:	00090593          	mv	a1,s2
    8000377c:	02000513          	li	a0,32
    80003780:	000480e7          	jalr	s1
    80003784:	0b640663          	beq	s0,s6,80003830 <_out_rev+0x1fc>
    80003788:	00040613          	mv	a2,s0
    8000378c:	00098693          	mv	a3,s3
    80003790:	00090593          	mv	a1,s2
    80003794:	02000513          	li	a0,32
    80003798:	000480e7          	jalr	s1
    8000379c:	00140613          	addi	a2,s0,1
    800037a0:	00098693          	mv	a3,s3
    800037a4:	00090593          	mv	a1,s2
    800037a8:	02000513          	li	a0,32
    800037ac:	000480e7          	jalr	s1
    800037b0:	00240613          	addi	a2,s0,2
    800037b4:	00098693          	mv	a3,s3
    800037b8:	00090593          	mv	a1,s2
    800037bc:	02000513          	li	a0,32
    800037c0:	000480e7          	jalr	s1
    800037c4:	00340613          	addi	a2,s0,3
    800037c8:	00098693          	mv	a3,s3
    800037cc:	00090593          	mv	a1,s2
    800037d0:	02000513          	li	a0,32
    800037d4:	000480e7          	jalr	s1
    800037d8:	00440613          	addi	a2,s0,4
    800037dc:	00098693          	mv	a3,s3
    800037e0:	00090593          	mv	a1,s2
    800037e4:	02000513          	li	a0,32
    800037e8:	000480e7          	jalr	s1
    800037ec:	00540613          	addi	a2,s0,5
    800037f0:	00098693          	mv	a3,s3
    800037f4:	00090593          	mv	a1,s2
    800037f8:	02000513          	li	a0,32
    800037fc:	000480e7          	jalr	s1
    80003800:	00640613          	addi	a2,s0,6
    80003804:	00098693          	mv	a3,s3
    80003808:	00090593          	mv	a1,s2
    8000380c:	02000513          	li	a0,32
    80003810:	000480e7          	jalr	s1
    80003814:	00740613          	addi	a2,s0,7
    80003818:	00098693          	mv	a3,s3
    8000381c:	00840413          	addi	s0,s0,8
    80003820:	00090593          	mv	a1,s2
    80003824:	02000513          	li	a0,32
    80003828:	000480e7          	jalr	s1
    8000382c:	f5641ee3          	bne	s0,s6,80003788 <_out_rev+0x154>
    80003830:	019d0433          	add	s0,s10,s9
    80003834:	008b0ab3          	add	s5,s6,s0
    80003838:	180c8e63          	beqz	s9,800039d4 <_out_rev+0x3a0>
    8000383c:	41a405b3          	sub	a1,s0,s10
    80003840:	0075f613          	andi	a2,a1,7
    80003844:	0c060463          	beqz	a2,8000390c <_out_rev+0x2d8>
    80003848:	00100693          	li	a3,1
    8000384c:	0ad60263          	beq	a2,a3,800038f0 <_out_rev+0x2bc>
    80003850:	00200e93          	li	t4,2
    80003854:	09d60263          	beq	a2,t4,800038d8 <_out_rev+0x2a4>
    80003858:	00300f13          	li	t5,3
    8000385c:	07e60263          	beq	a2,t5,800038c0 <_out_rev+0x28c>
    80003860:	00400f93          	li	t6,4
    80003864:	05f60263          	beq	a2,t6,800038a8 <_out_rev+0x274>
    80003868:	00500893          	li	a7,5
    8000386c:	03160263          	beq	a2,a7,80003890 <_out_rev+0x25c>
    80003870:	00600793          	li	a5,6
    80003874:	38f61663          	bne	a2,a5,80003c00 <_out_rev+0x5cc>
    80003878:	fff44503          	lbu	a0,-1(s0)
    8000387c:	408a8633          	sub	a2,s5,s0
    80003880:	00098693          	mv	a3,s3
    80003884:	00090593          	mv	a1,s2
    80003888:	000480e7          	jalr	s1
    8000388c:	fff40413          	addi	s0,s0,-1
    80003890:	fff44503          	lbu	a0,-1(s0)
    80003894:	408a8633          	sub	a2,s5,s0
    80003898:	00098693          	mv	a3,s3
    8000389c:	00090593          	mv	a1,s2
    800038a0:	000480e7          	jalr	s1
    800038a4:	fff40413          	addi	s0,s0,-1
    800038a8:	fff44503          	lbu	a0,-1(s0)
    800038ac:	408a8633          	sub	a2,s5,s0
    800038b0:	00098693          	mv	a3,s3
    800038b4:	00090593          	mv	a1,s2
    800038b8:	000480e7          	jalr	s1
    800038bc:	fff40413          	addi	s0,s0,-1
    800038c0:	fff44503          	lbu	a0,-1(s0)
    800038c4:	408a8633          	sub	a2,s5,s0
    800038c8:	00098693          	mv	a3,s3
    800038cc:	00090593          	mv	a1,s2
    800038d0:	000480e7          	jalr	s1
    800038d4:	fff40413          	addi	s0,s0,-1
    800038d8:	fff44503          	lbu	a0,-1(s0)
    800038dc:	408a8633          	sub	a2,s5,s0
    800038e0:	00098693          	mv	a3,s3
    800038e4:	00090593          	mv	a1,s2
    800038e8:	000480e7          	jalr	s1
    800038ec:	fff40413          	addi	s0,s0,-1
    800038f0:	fff44503          	lbu	a0,-1(s0)
    800038f4:	408a8633          	sub	a2,s5,s0
    800038f8:	00098693          	mv	a3,s3
    800038fc:	fff40413          	addi	s0,s0,-1
    80003900:	00090593          	mv	a1,s2
    80003904:	000480e7          	jalr	s1
    80003908:	0c8d0463          	beq	s10,s0,800039d0 <_out_rev+0x39c>
    8000390c:	fff44503          	lbu	a0,-1(s0)
    80003910:	408a8633          	sub	a2,s5,s0
    80003914:	00098693          	mv	a3,s3
    80003918:	00090593          	mv	a1,s2
    8000391c:	000480e7          	jalr	s1
    80003920:	ffe44503          	lbu	a0,-2(s0)
    80003924:	fff40293          	addi	t0,s0,-1
    80003928:	405a8633          	sub	a2,s5,t0
    8000392c:	00098693          	mv	a3,s3
    80003930:	00090593          	mv	a1,s2
    80003934:	000480e7          	jalr	s1
    80003938:	ffd44503          	lbu	a0,-3(s0)
    8000393c:	ffe40313          	addi	t1,s0,-2
    80003940:	406a8633          	sub	a2,s5,t1
    80003944:	00098693          	mv	a3,s3
    80003948:	00090593          	mv	a1,s2
    8000394c:	000480e7          	jalr	s1
    80003950:	ffc44503          	lbu	a0,-4(s0)
    80003954:	ffd40713          	addi	a4,s0,-3
    80003958:	40ea8633          	sub	a2,s5,a4
    8000395c:	00098693          	mv	a3,s3
    80003960:	00090593          	mv	a1,s2
    80003964:	000480e7          	jalr	s1
    80003968:	ffb44503          	lbu	a0,-5(s0)
    8000396c:	ffc40393          	addi	t2,s0,-4
    80003970:	407a8633          	sub	a2,s5,t2
    80003974:	00098693          	mv	a3,s3
    80003978:	00090593          	mv	a1,s2
    8000397c:	000480e7          	jalr	s1
    80003980:	ffa44503          	lbu	a0,-6(s0)
    80003984:	ffb40813          	addi	a6,s0,-5
    80003988:	410a8633          	sub	a2,s5,a6
    8000398c:	00098693          	mv	a3,s3
    80003990:	00090593          	mv	a1,s2
    80003994:	000480e7          	jalr	s1
    80003998:	ff944503          	lbu	a0,-7(s0)
    8000399c:	ffa40e13          	addi	t3,s0,-6
    800039a0:	00098693          	mv	a3,s3
    800039a4:	41ca8633          	sub	a2,s5,t3
    800039a8:	00090593          	mv	a1,s2
    800039ac:	000480e7          	jalr	s1
    800039b0:	ff844503          	lbu	a0,-8(s0)
    800039b4:	ff940593          	addi	a1,s0,-7
    800039b8:	40ba8633          	sub	a2,s5,a1
    800039bc:	ff840413          	addi	s0,s0,-8
    800039c0:	00098693          	mv	a3,s3
    800039c4:	00090593          	mv	a1,s2
    800039c8:	000480e7          	jalr	s1
    800039cc:	f48d10e3          	bne	s10,s0,8000390c <_out_rev+0x2d8>
    800039d0:	019b0b33          	add	s6,s6,s9
    800039d4:	002c7c13          	andi	s8,s8,2
    800039d8:	1e0c0663          	beqz	s8,80003bc4 <_out_rev+0x590>
    800039dc:	020b9c93          	slli	s9,s7,0x20
    800039e0:	414b0d33          	sub	s10,s6,s4
    800039e4:	020cdb93          	srli	s7,s9,0x20
    800039e8:	1d7d7e63          	bgeu	s10,s7,80003bc4 <_out_rev+0x590>
    800039ec:	fffd4093          	not	ra,s10
    800039f0:	01708ab3          	add	s5,ra,s7
    800039f4:	001d0413          	addi	s0,s10,1
    800039f8:	00098693          	mv	a3,s3
    800039fc:	014d0633          	add	a2,s10,s4
    80003a00:	00090593          	mv	a1,s2
    80003a04:	02000513          	li	a0,32
    80003a08:	007afc13          	andi	s8,s5,7
    80003a0c:	000480e7          	jalr	s1
    80003a10:	19747863          	bgeu	s0,s7,80003ba0 <_out_rev+0x56c>
    80003a14:	0c0c0463          	beqz	s8,80003adc <_out_rev+0x4a8>
    80003a18:	00100513          	li	a0,1
    80003a1c:	0aac0263          	beq	s8,a0,80003ac0 <_out_rev+0x48c>
    80003a20:	00200613          	li	a2,2
    80003a24:	08cc0263          	beq	s8,a2,80003aa8 <_out_rev+0x474>
    80003a28:	00300693          	li	a3,3
    80003a2c:	06dc0263          	beq	s8,a3,80003a90 <_out_rev+0x45c>
    80003a30:	00400e93          	li	t4,4
    80003a34:	05dc0263          	beq	s8,t4,80003a78 <_out_rev+0x444>
    80003a38:	00500f13          	li	t5,5
    80003a3c:	03ec0263          	beq	s8,t5,80003a60 <_out_rev+0x42c>
    80003a40:	00600f93          	li	t6,6
    80003a44:	1ffc1063          	bne	s8,t6,80003c24 <_out_rev+0x5f0>
    80003a48:	01440633          	add	a2,s0,s4
    80003a4c:	00098693          	mv	a3,s3
    80003a50:	00090593          	mv	a1,s2
    80003a54:	02000513          	li	a0,32
    80003a58:	000480e7          	jalr	s1
    80003a5c:	00140413          	addi	s0,s0,1
    80003a60:	01440633          	add	a2,s0,s4
    80003a64:	00098693          	mv	a3,s3
    80003a68:	00090593          	mv	a1,s2
    80003a6c:	02000513          	li	a0,32
    80003a70:	000480e7          	jalr	s1
    80003a74:	00140413          	addi	s0,s0,1
    80003a78:	01440633          	add	a2,s0,s4
    80003a7c:	00098693          	mv	a3,s3
    80003a80:	00090593          	mv	a1,s2
    80003a84:	02000513          	li	a0,32
    80003a88:	000480e7          	jalr	s1
    80003a8c:	00140413          	addi	s0,s0,1
    80003a90:	01440633          	add	a2,s0,s4
    80003a94:	00098693          	mv	a3,s3
    80003a98:	00090593          	mv	a1,s2
    80003a9c:	02000513          	li	a0,32
    80003aa0:	000480e7          	jalr	s1
    80003aa4:	00140413          	addi	s0,s0,1
    80003aa8:	01440633          	add	a2,s0,s4
    80003aac:	00098693          	mv	a3,s3
    80003ab0:	00090593          	mv	a1,s2
    80003ab4:	02000513          	li	a0,32
    80003ab8:	000480e7          	jalr	s1
    80003abc:	00140413          	addi	s0,s0,1
    80003ac0:	01440633          	add	a2,s0,s4
    80003ac4:	00098693          	mv	a3,s3
    80003ac8:	00140413          	addi	s0,s0,1
    80003acc:	00090593          	mv	a1,s2
    80003ad0:	02000513          	li	a0,32
    80003ad4:	000480e7          	jalr	s1
    80003ad8:	0d747463          	bgeu	s0,s7,80003ba0 <_out_rev+0x56c>
    80003adc:	01440633          	add	a2,s0,s4
    80003ae0:	00098693          	mv	a3,s3
    80003ae4:	00090593          	mv	a1,s2
    80003ae8:	02000513          	li	a0,32
    80003aec:	000480e7          	jalr	s1
    80003af0:	00140893          	addi	a7,s0,1
    80003af4:	01488633          	add	a2,a7,s4
    80003af8:	00098693          	mv	a3,s3
    80003afc:	00090593          	mv	a1,s2
    80003b00:	02000513          	li	a0,32
    80003b04:	000480e7          	jalr	s1
    80003b08:	00240793          	addi	a5,s0,2
    80003b0c:	01478633          	add	a2,a5,s4
    80003b10:	00098693          	mv	a3,s3
    80003b14:	00090593          	mv	a1,s2
    80003b18:	02000513          	li	a0,32
    80003b1c:	000480e7          	jalr	s1
    80003b20:	00340293          	addi	t0,s0,3
    80003b24:	01428633          	add	a2,t0,s4
    80003b28:	00098693          	mv	a3,s3
    80003b2c:	00090593          	mv	a1,s2
    80003b30:	02000513          	li	a0,32
    80003b34:	000480e7          	jalr	s1
    80003b38:	00440313          	addi	t1,s0,4
    80003b3c:	01430633          	add	a2,t1,s4
    80003b40:	00098693          	mv	a3,s3
    80003b44:	00090593          	mv	a1,s2
    80003b48:	02000513          	li	a0,32
    80003b4c:	000480e7          	jalr	s1
    80003b50:	00540713          	addi	a4,s0,5
    80003b54:	01470633          	add	a2,a4,s4
    80003b58:	00098693          	mv	a3,s3
    80003b5c:	00090593          	mv	a1,s2
    80003b60:	02000513          	li	a0,32
    80003b64:	000480e7          	jalr	s1
    80003b68:	00640393          	addi	t2,s0,6
    80003b6c:	00098693          	mv	a3,s3
    80003b70:	01438633          	add	a2,t2,s4
    80003b74:	00090593          	mv	a1,s2
    80003b78:	02000513          	li	a0,32
    80003b7c:	000480e7          	jalr	s1
    80003b80:	00740813          	addi	a6,s0,7
    80003b84:	00098693          	mv	a3,s3
    80003b88:	00840413          	addi	s0,s0,8
    80003b8c:	01480633          	add	a2,a6,s4
    80003b90:	00090593          	mv	a1,s2
    80003b94:	02000513          	li	a0,32
    80003b98:	000480e7          	jalr	s1
    80003b9c:	f57460e3          	bltu	s0,s7,80003adc <_out_rev+0x4a8>
    80003ba0:	414b04b3          	sub	s1,s6,s4
    80003ba4:	00148913          	addi	s2,s1,1
    80003ba8:	00000593          	li	a1,0
    80003bac:	012be863          	bltu	s7,s2,80003bbc <_out_rev+0x588>
    80003bb0:	fffb8993          	addi	s3,s7,-1
    80003bb4:	01498e33          	add	t3,s3,s4
    80003bb8:	416e05b3          	sub	a1,t3,s6
    80003bbc:	001b0b13          	addi	s6,s6,1
    80003bc0:	01658b33          	add	s6,a1,s6
    80003bc4:	05813083          	ld	ra,88(sp)
    80003bc8:	05013403          	ld	s0,80(sp)
    80003bcc:	04813483          	ld	s1,72(sp)
    80003bd0:	04013903          	ld	s2,64(sp)
    80003bd4:	03813983          	ld	s3,56(sp)
    80003bd8:	03013a03          	ld	s4,48(sp)
    80003bdc:	02813a83          	ld	s5,40(sp)
    80003be0:	01813b83          	ld	s7,24(sp)
    80003be4:	01013c03          	ld	s8,16(sp)
    80003be8:	00813c83          	ld	s9,8(sp)
    80003bec:	00013d03          	ld	s10,0(sp)
    80003bf0:	000b0513          	mv	a0,s6
    80003bf4:	02013b03          	ld	s6,32(sp)
    80003bf8:	06010113          	addi	sp,sp,96
    80003bfc:	00008067          	ret
    80003c00:	fff44503          	lbu	a0,-1(s0)
    80003c04:	408a8633          	sub	a2,s5,s0
    80003c08:	00098693          	mv	a3,s3
    80003c0c:	00090593          	mv	a1,s2
    80003c10:	000480e7          	jalr	s1
    80003c14:	fff40413          	addi	s0,s0,-1
    80003c18:	c61ff06f          	j	80003878 <_out_rev+0x244>
    80003c1c:	00060b13          	mv	s6,a2
    80003c20:	c11ff06f          	j	80003830 <_out_rev+0x1fc>
    80003c24:	01440633          	add	a2,s0,s4
    80003c28:	00098693          	mv	a3,s3
    80003c2c:	00090593          	mv	a1,s2
    80003c30:	02000513          	li	a0,32
    80003c34:	000480e7          	jalr	s1
    80003c38:	00140413          	addi	s0,s0,1
    80003c3c:	e0dff06f          	j	80003a48 <_out_rev+0x414>

Disassembly of section .text._ntoa_format:

0000000080003c40 <_ntoa_format>:
    80003c40:	f9010113          	addi	sp,sp,-112
    80003c44:	08012303          	lw	t1,128(sp)
    80003c48:	06813423          	sd	s0,104(sp)
    80003c4c:	06913023          	sd	s1,96(sp)
    80003c50:	01037f13          	andi	t5,t1,16
    80003c54:	05213c23          	sd	s2,88(sp)
    80003c58:	05313823          	sd	s3,80(sp)
    80003c5c:	05413423          	sd	s4,72(sp)
    80003c60:	05513023          	sd	s5,64(sp)
    80003c64:	03613c23          	sd	s6,56(sp)
    80003c68:	03713823          	sd	s7,48(sp)
    80003c6c:	03813423          	sd	s8,40(sp)
    80003c70:	03913023          	sd	s9,32(sp)
    80003c74:	01a13c23          	sd	s10,24(sp)
    80003c78:	01b13823          	sd	s11,16(sp)
    80003c7c:	00237e13          	andi	t3,t1,2
    80003c80:	07012383          	lw	t2,112(sp)
    80003c84:	07812283          	lw	t0,120(sp)
    80003c88:	00080f93          	mv	t6,a6
    80003c8c:	000f0f1b          	sext.w	t5,t5
    80003c90:	2e0e1463          	bnez	t3,80003f78 <_ntoa_format+0x338>
    80003c94:	02039413          	slli	s0,t2,0x20
    80003c98:	00137493          	andi	s1,t1,1
    80003c9c:	02045993          	srli	s3,s0,0x20
    80003ca0:	3e029063          	bnez	t0,80004080 <_ntoa_format+0x440>
    80003ca4:	1537f063          	bgeu	a5,s3,80003de4 <_ntoa_format+0x1a4>
    80003ca8:	02000813          	li	a6,32
    80003cac:	51078063          	beq	a5,a6,800041ac <_ntoa_format+0x56c>
    80003cb0:	fff7ce93          	not	t4,a5
    80003cb4:	013e8c33          	add	s8,t4,s3
    80003cb8:	007c7c93          	andi	s9,s8,7
    80003cbc:	03000d13          	li	s10,48
    80003cc0:	02000d93          	li	s11,32
    80003cc4:	080c8c63          	beqz	s9,80003d5c <_ntoa_format+0x11c>
    80003cc8:	00178793          	addi	a5,a5,1
    80003ccc:	00f70e33          	add	t3,a4,a5
    80003cd0:	ffae0fa3          	sb	s10,-1(t3)
    80003cd4:	1137f863          	bgeu	a5,s3,80003de4 <_ntoa_format+0x1a4>
    80003cd8:	11b78663          	beq	a5,s11,80003de4 <_ntoa_format+0x1a4>
    80003cdc:	00100413          	li	s0,1
    80003ce0:	068c8e63          	beq	s9,s0,80003d5c <_ntoa_format+0x11c>
    80003ce4:	00200813          	li	a6,2
    80003ce8:	070c8263          	beq	s9,a6,80003d4c <_ntoa_format+0x10c>
    80003cec:	00300913          	li	s2,3
    80003cf0:	052c8663          	beq	s9,s2,80003d3c <_ntoa_format+0xfc>
    80003cf4:	00400a13          	li	s4,4
    80003cf8:	034c8a63          	beq	s9,s4,80003d2c <_ntoa_format+0xec>
    80003cfc:	00500a93          	li	s5,5
    80003d00:	015c8e63          	beq	s9,s5,80003d1c <_ntoa_format+0xdc>
    80003d04:	00600b13          	li	s6,6
    80003d08:	436c9463          	bne	s9,s6,80004130 <_ntoa_format+0x4f0>
    80003d0c:	00178793          	addi	a5,a5,1
    80003d10:	00f70eb3          	add	t4,a4,a5
    80003d14:	ffae8fa3          	sb	s10,-1(t4)
    80003d18:	0db78663          	beq	a5,s11,80003de4 <_ntoa_format+0x1a4>
    80003d1c:	00178793          	addi	a5,a5,1
    80003d20:	00f70c33          	add	s8,a4,a5
    80003d24:	ffac0fa3          	sb	s10,-1(s8)
    80003d28:	0bb78e63          	beq	a5,s11,80003de4 <_ntoa_format+0x1a4>
    80003d2c:	00178793          	addi	a5,a5,1
    80003d30:	00f70cb3          	add	s9,a4,a5
    80003d34:	ffac8fa3          	sb	s10,-1(s9)
    80003d38:	0bb78663          	beq	a5,s11,80003de4 <_ntoa_format+0x1a4>
    80003d3c:	00178793          	addi	a5,a5,1
    80003d40:	00f70e33          	add	t3,a4,a5
    80003d44:	ffae0fa3          	sb	s10,-1(t3)
    80003d48:	09b78e63          	beq	a5,s11,80003de4 <_ntoa_format+0x1a4>
    80003d4c:	00178793          	addi	a5,a5,1
    80003d50:	00f70433          	add	s0,a4,a5
    80003d54:	ffa40fa3          	sb	s10,-1(s0)
    80003d58:	09b78663          	beq	a5,s11,80003de4 <_ntoa_format+0x1a4>
    80003d5c:	00178793          	addi	a5,a5,1
    80003d60:	00f70833          	add	a6,a4,a5
    80003d64:	ffa80fa3          	sb	s10,-1(a6)
    80003d68:	00078a13          	mv	s4,a5
    80003d6c:	0737fc63          	bgeu	a5,s3,80003de4 <_ntoa_format+0x1a4>
    80003d70:	07b78a63          	beq	a5,s11,80003de4 <_ntoa_format+0x1a4>
    80003d74:	00178793          	addi	a5,a5,1
    80003d78:	00f70933          	add	s2,a4,a5
    80003d7c:	ffa90fa3          	sb	s10,-1(s2)
    80003d80:	07b78263          	beq	a5,s11,80003de4 <_ntoa_format+0x1a4>
    80003d84:	002a0793          	addi	a5,s4,2
    80003d88:	00f70ab3          	add	s5,a4,a5
    80003d8c:	ffaa8fa3          	sb	s10,-1(s5)
    80003d90:	05b78a63          	beq	a5,s11,80003de4 <_ntoa_format+0x1a4>
    80003d94:	003a0793          	addi	a5,s4,3
    80003d98:	00f70b33          	add	s6,a4,a5
    80003d9c:	ffab0fa3          	sb	s10,-1(s6)
    80003da0:	05b78263          	beq	a5,s11,80003de4 <_ntoa_format+0x1a4>
    80003da4:	004a0793          	addi	a5,s4,4
    80003da8:	00f70bb3          	add	s7,a4,a5
    80003dac:	ffab8fa3          	sb	s10,-1(s7)
    80003db0:	03b78a63          	beq	a5,s11,80003de4 <_ntoa_format+0x1a4>
    80003db4:	005a0793          	addi	a5,s4,5
    80003db8:	00f70eb3          	add	t4,a4,a5
    80003dbc:	ffae8fa3          	sb	s10,-1(t4)
    80003dc0:	03b78263          	beq	a5,s11,80003de4 <_ntoa_format+0x1a4>
    80003dc4:	006a0793          	addi	a5,s4,6
    80003dc8:	00f70c33          	add	s8,a4,a5
    80003dcc:	ffac0fa3          	sb	s10,-1(s8)
    80003dd0:	01b78a63          	beq	a5,s11,80003de4 <_ntoa_format+0x1a4>
    80003dd4:	007a0793          	addi	a5,s4,7
    80003dd8:	00f70cb3          	add	s9,a4,a5
    80003ddc:	ffac8fa3          	sb	s10,-1(s9)
    80003de0:	f7b79ee3          	bne	a5,s11,80003d5c <_ntoa_format+0x11c>
    80003de4:	18048a63          	beqz	s1,80003f78 <_ntoa_format+0x338>
    80003de8:	02029493          	slli	s1,t0,0x20
    80003dec:	0204d813          	srli	a6,s1,0x20
    80003df0:	1907f463          	bgeu	a5,a6,80003f78 <_ntoa_format+0x338>
    80003df4:	02000993          	li	s3,32
    80003df8:	37378463          	beq	a5,s3,80004160 <_ntoa_format+0x520>
    80003dfc:	fff7cd13          	not	s10,a5
    80003e00:	010d0db3          	add	s11,s10,a6
    80003e04:	007df413          	andi	s0,s11,7
    80003e08:	03000e13          	li	t3,48
    80003e0c:	02000e93          	li	t4,32
    80003e10:	0a040263          	beqz	s0,80003eb4 <_ntoa_format+0x274>
    80003e14:	00178793          	addi	a5,a5,1
    80003e18:	00f70a33          	add	s4,a4,a5
    80003e1c:	ffca0fa3          	sb	t3,-1(s4)
    80003e20:	13d78063          	beq	a5,t4,80003f40 <_ntoa_format+0x300>
    80003e24:	00100913          	li	s2,1
    80003e28:	09240663          	beq	s0,s2,80003eb4 <_ntoa_format+0x274>
    80003e2c:	00200a93          	li	s5,2
    80003e30:	07540a63          	beq	s0,s5,80003ea4 <_ntoa_format+0x264>
    80003e34:	00300b13          	li	s6,3
    80003e38:	05640e63          	beq	s0,s6,80003e94 <_ntoa_format+0x254>
    80003e3c:	00400b93          	li	s7,4
    80003e40:	05740263          	beq	s0,s7,80003e84 <_ntoa_format+0x244>
    80003e44:	00500c13          	li	s8,5
    80003e48:	03840663          	beq	s0,s8,80003e74 <_ntoa_format+0x234>
    80003e4c:	00600c93          	li	s9,6
    80003e50:	01940a63          	beq	s0,s9,80003e64 <_ntoa_format+0x224>
    80003e54:	00178793          	addi	a5,a5,1
    80003e58:	00f704b3          	add	s1,a4,a5
    80003e5c:	ffc48fa3          	sb	t3,-1(s1)
    80003e60:	0fd78063          	beq	a5,t4,80003f40 <_ntoa_format+0x300>
    80003e64:	00178793          	addi	a5,a5,1
    80003e68:	00f709b3          	add	s3,a4,a5
    80003e6c:	ffc98fa3          	sb	t3,-1(s3)
    80003e70:	0dd78863          	beq	a5,t4,80003f40 <_ntoa_format+0x300>
    80003e74:	00178793          	addi	a5,a5,1
    80003e78:	00f70d33          	add	s10,a4,a5
    80003e7c:	ffcd0fa3          	sb	t3,-1(s10)
    80003e80:	0dd78063          	beq	a5,t4,80003f40 <_ntoa_format+0x300>
    80003e84:	00178793          	addi	a5,a5,1
    80003e88:	00f70db3          	add	s11,a4,a5
    80003e8c:	ffcd8fa3          	sb	t3,-1(s11)
    80003e90:	0bd78863          	beq	a5,t4,80003f40 <_ntoa_format+0x300>
    80003e94:	00178793          	addi	a5,a5,1
    80003e98:	00f70433          	add	s0,a4,a5
    80003e9c:	ffc40fa3          	sb	t3,-1(s0)
    80003ea0:	0bd78063          	beq	a5,t4,80003f40 <_ntoa_format+0x300>
    80003ea4:	00178793          	addi	a5,a5,1
    80003ea8:	00f70a33          	add	s4,a4,a5
    80003eac:	ffca0fa3          	sb	t3,-1(s4)
    80003eb0:	09d78863          	beq	a5,t4,80003f40 <_ntoa_format+0x300>
    80003eb4:	00178793          	addi	a5,a5,1
    80003eb8:	00578a13          	addi	s4,a5,5
    80003ebc:	01470db3          	add	s11,a4,s4
    80003ec0:	00f70b33          	add	s6,a4,a5
    80003ec4:	00178413          	addi	s0,a5,1
    80003ec8:	00278493          	addi	s1,a5,2
    80003ecc:	00378913          	addi	s2,a5,3
    80003ed0:	00478993          	addi	s3,a5,4
    80003ed4:	00678a93          	addi	s5,a5,6
    80003ed8:	01b13423          	sd	s11,8(sp)
    80003edc:	ffcb0fa3          	sb	t3,-1(s6)
    80003ee0:	00870bb3          	add	s7,a4,s0
    80003ee4:	00970c33          	add	s8,a4,s1
    80003ee8:	01270cb3          	add	s9,a4,s2
    80003eec:	01370d33          	add	s10,a4,s3
    80003ef0:	01570db3          	add	s11,a4,s5
    80003ef4:	09078263          	beq	a5,a6,80003f78 <_ntoa_format+0x338>
    80003ef8:	05d78463          	beq	a5,t4,80003f40 <_ntoa_format+0x300>
    80003efc:	00778793          	addi	a5,a5,7
    80003f00:	ffcb8fa3          	sb	t3,-1(s7)
    80003f04:	00f70b33          	add	s6,a4,a5
    80003f08:	03d40c63          	beq	s0,t4,80003f40 <_ntoa_format+0x300>
    80003f0c:	ffcc0fa3          	sb	t3,-1(s8)
    80003f10:	03d48863          	beq	s1,t4,80003f40 <_ntoa_format+0x300>
    80003f14:	ffcc8fa3          	sb	t3,-1(s9)
    80003f18:	03d90463          	beq	s2,t4,80003f40 <_ntoa_format+0x300>
    80003f1c:	ffcd0fa3          	sb	t3,-1(s10)
    80003f20:	03d98063          	beq	s3,t4,80003f40 <_ntoa_format+0x300>
    80003f24:	00813403          	ld	s0,8(sp)
    80003f28:	ffc40fa3          	sb	t3,-1(s0)
    80003f2c:	01da0a63          	beq	s4,t4,80003f40 <_ntoa_format+0x300>
    80003f30:	ffcd8fa3          	sb	t3,-1(s11)
    80003f34:	01da8663          	beq	s5,t4,80003f40 <_ntoa_format+0x300>
    80003f38:	ffcb0fa3          	sb	t3,-1(s6)
    80003f3c:	f7d79ce3          	bne	a5,t4,80003eb4 <_ntoa_format+0x274>
    80003f40:	02000793          	li	a5,32
    80003f44:	060f0a63          	beqz	t5,80003fb8 <_ntoa_format+0x378>
    80003f48:	40037e13          	andi	t3,t1,1024
    80003f4c:	220e1463          	bnez	t3,80004174 <_ntoa_format+0x534>
    80003f50:	02000793          	li	a5,32
    80003f54:	0af39863          	bne	t2,a5,80004004 <_ntoa_format+0x3c4>
    80003f58:	02000793          	li	a5,32
    80003f5c:	01f00d93          	li	s11,31
    80003f60:	01000e13          	li	t3,16
    80003f64:	25c88863          	beq	a7,t3,800041b4 <_ntoa_format+0x574>
    80003f68:	00200e93          	li	t4,2
    80003f6c:	27d88063          	beq	a7,t4,800041cc <_ntoa_format+0x58c>
    80003f70:	000d8793          	mv	a5,s11
    80003f74:	0cc0006f          	j	80004040 <_ntoa_format+0x400>
    80003f78:	0c0f0c63          	beqz	t5,80004050 <_ntoa_format+0x410>
    80003f7c:	40037813          	andi	a6,t1,1024
    80003f80:	08081863          	bnez	a6,80004010 <_ntoa_format+0x3d0>
    80003f84:	06079a63          	bnez	a5,80003ff8 <_ntoa_format+0x3b8>
    80003f88:	01000793          	li	a5,16
    80003f8c:	18f88663          	beq	a7,a5,80004118 <_ntoa_format+0x4d8>
    80003f90:	00200d13          	li	s10,2
    80003f94:	21a88463          	beq	a7,s10,8000419c <_ntoa_format+0x55c>
    80003f98:	03000813          	li	a6,48
    80003f9c:	01070023          	sb	a6,0(a4)
    80003fa0:	00100793          	li	a5,1
    80003fa4:	0a0f8c63          	beqz	t6,8000405c <_ntoa_format+0x41c>
    80003fa8:	00f70eb3          	add	t4,a4,a5
    80003fac:	02d00f93          	li	t6,45
    80003fb0:	01fe8023          	sb	t6,0(t4)
    80003fb4:	00178793          	addi	a5,a5,1
    80003fb8:	06813403          	ld	s0,104(sp)
    80003fbc:	06013483          	ld	s1,96(sp)
    80003fc0:	05813903          	ld	s2,88(sp)
    80003fc4:	05013983          	ld	s3,80(sp)
    80003fc8:	04813a03          	ld	s4,72(sp)
    80003fcc:	04013a83          	ld	s5,64(sp)
    80003fd0:	03813b03          	ld	s6,56(sp)
    80003fd4:	03013b83          	ld	s7,48(sp)
    80003fd8:	02813c03          	ld	s8,40(sp)
    80003fdc:	02013c83          	ld	s9,32(sp)
    80003fe0:	01813d03          	ld	s10,24(sp)
    80003fe4:	01013d83          	ld	s11,16(sp)
    80003fe8:	00030893          	mv	a7,t1
    80003fec:	00028813          	mv	a6,t0
    80003ff0:	07010113          	addi	sp,sp,112
    80003ff4:	e40ff06f          	j	80003634 <_out_rev>
    80003ff8:	02039f13          	slli	t5,t2,0x20
    80003ffc:	020f5393          	srli	t2,t5,0x20
    80004000:	10f38663          	beq	t2,a5,8000410c <_ntoa_format+0x4cc>
    80004004:	02029e93          	slli	t4,t0,0x20
    80004008:	020ed493          	srli	s1,t4,0x20
    8000400c:	10f48063          	beq	s1,a5,8000410c <_ntoa_format+0x4cc>
    80004010:	01000913          	li	s2,16
    80004014:	09289663          	bne	a7,s2,800040a0 <_ntoa_format+0x460>
    80004018:	02037a93          	andi	s5,t1,32
    8000401c:	120a9463          	bnez	s5,80004144 <_ntoa_format+0x504>
    80004020:	02000c13          	li	s8,32
    80004024:	0d878263          	beq	a5,s8,800040e8 <_ntoa_format+0x4a8>
    80004028:	00f70cb3          	add	s9,a4,a5
    8000402c:	00178793          	addi	a5,a5,1
    80004030:	07800b93          	li	s7,120
    80004034:	017c8023          	sb	s7,0(s9)
    80004038:	02000c13          	li	s8,32
    8000403c:	f7878ee3          	beq	a5,s8,80003fb8 <_ntoa_format+0x378>
    80004040:	00f70cb3          	add	s9,a4,a5
    80004044:	03000d13          	li	s10,48
    80004048:	01ac8023          	sb	s10,0(s9)
    8000404c:	00178793          	addi	a5,a5,1
    80004050:	02000813          	li	a6,32
    80004054:	f70782e3          	beq	a5,a6,80003fb8 <_ntoa_format+0x378>
    80004058:	f40f98e3          	bnez	t6,80003fa8 <_ntoa_format+0x368>
    8000405c:	00437f13          	andi	t5,t1,4
    80004060:	080f1863          	bnez	t5,800040f0 <_ntoa_format+0x4b0>
    80004064:	00837393          	andi	t2,t1,8
    80004068:	f40388e3          	beqz	t2,80003fb8 <_ntoa_format+0x378>
    8000406c:	00f70b33          	add	s6,a4,a5
    80004070:	02000413          	li	s0,32
    80004074:	008b0023          	sb	s0,0(s6)
    80004078:	00178793          	addi	a5,a5,1
    8000407c:	f3dff06f          	j	80003fb8 <_ntoa_format+0x378>
    80004080:	02048e63          	beqz	s1,800040bc <_ntoa_format+0x47c>
    80004084:	08081063          	bnez	a6,80004104 <_ntoa_format+0x4c4>
    80004088:	00c37b13          	andi	s6,t1,12
    8000408c:	060b1c63          	bnez	s6,80004104 <_ntoa_format+0x4c4>
    80004090:	d537fce3          	bgeu	a5,s3,80003de8 <_ntoa_format+0x1a8>
    80004094:	02000b93          	li	s7,32
    80004098:	c1779ce3          	bne	a5,s7,80003cb0 <_ntoa_format+0x70>
    8000409c:	ea5ff06f          	j	80003f40 <_ntoa_format+0x300>
    800040a0:	00200993          	li	s3,2
    800040a4:	f9389ae3          	bne	a7,s3,80004038 <_ntoa_format+0x3f8>
    800040a8:	02000a13          	li	s4,32
    800040ac:	f14786e3          	beq	a5,s4,80003fb8 <_ntoa_format+0x378>
    800040b0:	00f704b3          	add	s1,a4,a5
    800040b4:	00178793          	addi	a5,a5,1
    800040b8:	1180006f          	j	800041d0 <_ntoa_format+0x590>
    800040bc:	eb37fee3          	bgeu	a5,s3,80003f78 <_ntoa_format+0x338>
    800040c0:	02000913          	li	s2,32
    800040c4:	bf2796e3          	bne	a5,s2,80003cb0 <_ntoa_format+0x70>
    800040c8:	020f0063          	beqz	t5,800040e8 <_ntoa_format+0x4a8>
    800040cc:	40037793          	andi	a5,t1,1024
    800040d0:	e80780e3          	beqz	a5,80003f50 <_ntoa_format+0x310>
    800040d4:	01000a13          	li	s4,16
    800040d8:	01488863          	beq	a7,s4,800040e8 <_ntoa_format+0x4a8>
    800040dc:	00200a93          	li	s5,2
    800040e0:	02000793          	li	a5,32
    800040e4:	ed588ae3          	beq	a7,s5,80003fb8 <_ntoa_format+0x378>
    800040e8:	02000793          	li	a5,32
    800040ec:	ecdff06f          	j	80003fb8 <_ntoa_format+0x378>
    800040f0:	00f70db3          	add	s11,a4,a5
    800040f4:	02b00e13          	li	t3,43
    800040f8:	01cd8023          	sb	t3,0(s11)
    800040fc:	00178793          	addi	a5,a5,1
    80004100:	eb9ff06f          	j	80003fb8 <_ntoa_format+0x378>
    80004104:	fff2829b          	addiw	t0,t0,-1
    80004108:	f89ff06f          	j	80004090 <_ntoa_format+0x450>
    8000410c:	fff78d93          	addi	s11,a5,-1
    80004110:	e60d8ce3          	beqz	s11,80003f88 <_ntoa_format+0x348>
    80004114:	e4dff06f          	j	80003f60 <_ntoa_format+0x320>
    80004118:	02037393          	andi	t2,t1,32
    8000411c:	06039863          	bnez	t2,8000418c <_ntoa_format+0x54c>
    80004120:	07800413          	li	s0,120
    80004124:	00870023          	sb	s0,0(a4)
    80004128:	00100793          	li	a5,1
    8000412c:	f15ff06f          	j	80004040 <_ntoa_format+0x400>
    80004130:	00178793          	addi	a5,a5,1
    80004134:	00f70bb3          	add	s7,a4,a5
    80004138:	ffab8fa3          	sb	s10,-1(s7)
    8000413c:	bdb798e3          	bne	a5,s11,80003d0c <_ntoa_format+0xcc>
    80004140:	ca5ff06f          	j	80003de4 <_ntoa_format+0x1a4>
    80004144:	02000b93          	li	s7,32
    80004148:	e77788e3          	beq	a5,s7,80003fb8 <_ntoa_format+0x378>
    8000414c:	00f70a33          	add	s4,a4,a5
    80004150:	05800a93          	li	s5,88
    80004154:	015a0023          	sb	s5,0(s4)
    80004158:	00178793          	addi	a5,a5,1
    8000415c:	eddff06f          	j	80004038 <_ntoa_format+0x3f8>
    80004160:	e40f0ce3          	beqz	t5,80003fb8 <_ntoa_format+0x378>
    80004164:	40037f13          	andi	t5,t1,1024
    80004168:	060f1e63          	bnez	t5,800041e4 <_ntoa_format+0x5a4>
    8000416c:	def388e3          	beq	t2,a5,80003f5c <_ntoa_format+0x31c>
    80004170:	def286e3          	beq	t0,a5,80003f5c <_ntoa_format+0x31c>
    80004174:	01000f93          	li	t6,16
    80004178:	e5f890e3          	bne	a7,t6,80003fb8 <_ntoa_format+0x378>
    8000417c:	02037893          	andi	a7,t1,32
    80004180:	e2089ce3          	bnez	a7,80003fb8 <_ntoa_format+0x378>
    80004184:	02000793          	li	a5,32
    80004188:	e31ff06f          	j	80003fb8 <_ntoa_format+0x378>
    8000418c:	05800b13          	li	s6,88
    80004190:	01670023          	sb	s6,0(a4)
    80004194:	00100793          	li	a5,1
    80004198:	ea9ff06f          	j	80004040 <_ntoa_format+0x400>
    8000419c:	06200f13          	li	t5,98
    800041a0:	01e70023          	sb	t5,0(a4)
    800041a4:	00100793          	li	a5,1
    800041a8:	e99ff06f          	j	80004040 <_ntoa_format+0x400>
    800041ac:	d8049ae3          	bnez	s1,80003f40 <_ntoa_format+0x300>
    800041b0:	f19ff06f          	j	800040c8 <_ntoa_format+0x488>
    800041b4:	02037913          	andi	s2,t1,32
    800041b8:	ffe78993          	addi	s3,a5,-2
    800041bc:	02091063          	bnez	s2,800041dc <_ntoa_format+0x59c>
    800041c0:	01370cb3          	add	s9,a4,s3
    800041c4:	fff78793          	addi	a5,a5,-1
    800041c8:	e69ff06f          	j	80004030 <_ntoa_format+0x3f0>
    800041cc:	01b704b3          	add	s1,a4,s11
    800041d0:	06200893          	li	a7,98
    800041d4:	01148023          	sb	a7,0(s1)
    800041d8:	e61ff06f          	j	80004038 <_ntoa_format+0x3f8>
    800041dc:	00098793          	mv	a5,s3
    800041e0:	f6dff06f          	j	8000414c <_ntoa_format+0x50c>
    800041e4:	01000f93          	li	t6,16
    800041e8:	f9f88ae3          	beq	a7,t6,8000417c <_ntoa_format+0x53c>
    800041ec:	00200393          	li	t2,2
    800041f0:	dc7884e3          	beq	a7,t2,80003fb8 <_ntoa_format+0x378>
    800041f4:	02000793          	li	a5,32
    800041f8:	dc1ff06f          	j	80003fb8 <_ntoa_format+0x378>

Disassembly of section .text._out_char:

00000000800041fc <_out_char>:
    800041fc:	00051463          	bnez	a0,80004204 <_out_char+0x8>
    80004200:	00008067          	ret
    80004204:	b90ff06f          	j	80003594 <_putc>

Disassembly of section .text._etoa.part.0:

0000000080004208 <_etoa.part.0>:
    80004208:	f20007d3          	fmv.d.x	fa5,zero
    8000420c:	f6010113          	addi	sp,sp,-160
    80004210:	08813823          	sd	s0,144(sp)
    80004214:	a2f518d3          	flt.d	a7,fa0,fa5
    80004218:	08913423          	sd	s1,136(sp)
    8000421c:	09213023          	sd	s2,128(sp)
    80004220:	07313c23          	sd	s3,120(sp)
    80004224:	07413823          	sd	s4,112(sp)
    80004228:	07613023          	sd	s6,96(sp)
    8000422c:	08113c23          	sd	ra,152(sp)
    80004230:	07513423          	sd	s5,104(sp)
    80004234:	05713c23          	sd	s7,88(sp)
    80004238:	05813823          	sd	s8,80(sp)
    8000423c:	05913423          	sd	s9,72(sp)
    80004240:	00068a13          	mv	s4,a3
    80004244:	00050413          	mv	s0,a0
    80004248:	e20506d3          	fmv.x.d	a3,fa0
    8000424c:	00058493          	mv	s1,a1
    80004250:	00060913          	mv	s2,a2
    80004254:	00078993          	mv	s3,a5
    80004258:	00080b13          	mv	s6,a6
    8000425c:	00088663          	beqz	a7,80004268 <_etoa.part.0+0x60>
    80004260:	22a51053          	fneg.d	ft0,fa0
    80004264:	e20006d3          	fmv.x.d	a3,ft0
    80004268:	400b7793          	andi	a5,s6,1024
    8000426c:	0007861b          	sext.w	a2,a5
    80004270:	00079463          	bnez	a5,80004278 <_etoa.part.0+0x70>
    80004274:	00600713          	li	a4,6
    80004278:	00003597          	auipc	a1,0x3
    8000427c:	fd85b707          	fld	fa4,-40(a1) # 80007250 <pow10.1334+0x50>
    80004280:	00003597          	auipc	a1,0x3
    80004284:	fd85b087          	fld	ft1,-40(a1) # 80007258 <pow10.1334+0x58>
    80004288:	3ff00593          	li	a1,1023
    8000428c:	0346d093          	srli	ra,a3,0x34
    80004290:	00c69393          	slli	t2,a3,0xc
    80004294:	03459813          	slli	a6,a1,0x34
    80004298:	7ff0f293          	andi	t0,ra,2047
    8000429c:	00c3d513          	srli	a0,t2,0xc
    800042a0:	c012831b          	addiw	t1,t0,-1023
    800042a4:	01056ab3          	or	s5,a0,a6
    800042a8:	d2030653          	fcvt.d.w	fa2,t1
    800042ac:	f20a81d3          	fmv.d.x	ft3,s5
    800042b0:	00003597          	auipc	a1,0x3
    800042b4:	fb05b687          	fld	fa3,-80(a1) # 80007260 <pow10.1334+0x60>
    800042b8:	0ae67143          	fmadd.d	ft2,fa2,fa4,ft1
    800042bc:	0ad1f353          	fsub.d	ft6,ft3,fa3
    800042c0:	00003797          	auipc	a5,0x3
    800042c4:	fa87b387          	fld	ft7,-88(a5) # 80007268 <pow10.1334+0x68>
    800042c8:	00003797          	auipc	a5,0x3
    800042cc:	fa87b587          	fld	fa1,-88(a5) # 80007270 <pow10.1334+0x70>
    800042d0:	00003797          	auipc	a5,0x3
    800042d4:	fa87b287          	fld	ft5,-88(a5) # 80007278 <pow10.1334+0x78>
    800042d8:	00003797          	auipc	a5,0x3
    800042dc:	fa87b207          	fld	ft4,-88(a5) # 80007280 <pow10.1334+0x80>
    800042e0:	00003797          	auipc	a5,0x3
    800042e4:	fa87b807          	fld	fa6,-88(a5) # 80007288 <pow10.1334+0x88>
    800042e8:	00003797          	auipc	a5,0x3
    800042ec:	fa87b887          	fld	fa7,-88(a5) # 80007290 <pow10.1334+0x90>
    800042f0:	12737e43          	fmadd.d	ft8,ft6,ft7,ft2
    800042f4:	00003797          	auipc	a5,0x3
    800042f8:	fa47be87          	fld	ft9,-92(a5) # 80007298 <pow10.1334+0x98>
    800042fc:	00003797          	auipc	a5,0x3
    80004300:	fa47bf07          	fld	ft10,-92(a5) # 800072a0 <pow10.1334+0xa0>
    80004304:	00003797          	auipc	a5,0x3
    80004308:	fa47bf87          	fld	ft11,-92(a5) # 800072a8 <pow10.1334+0xa8>
    8000430c:	00003797          	auipc	a5,0x3
    80004310:	fa47b007          	fld	ft0,-92(a5) # 800072b0 <pow10.1334+0xb0>
    80004314:	c20e1c53          	fcvt.w.d	s8,ft8,rtz
    80004318:	d20c07d3          	fcvt.d.w	fa5,s8
    8000431c:	000c0b9b          	sext.w	s7,s8
    80004320:	2ab7f643          	fmadd.d	fa2,fa5,fa1,ft5
    80004324:	c2061cd3          	fcvt.w.d	s9,fa2,rtz
    80004328:	d20c8753          	fcvt.d.w	fa4,s9
    8000432c:	3ffc8e1b          	addiw	t3,s9,1023
    80004330:	034e1e93          	slli	t4,t3,0x34
    80004334:	124770d3          	fmul.d	ft1,fa4,ft4
    80004338:	0b07f147          	fmsub.d	ft2,fa5,fa6,ft1
    8000433c:	122176d3          	fmul.d	fa3,ft2,ft2
    80004340:	0a2ff1d3          	fsub.d	ft3,ft11,ft2
    80004344:	02217353          	fadd.d	ft6,ft2,ft2
    80004348:	f20e8fd3          	fmv.d.x	ft11,t4
    8000434c:	1b16f3d3          	fdiv.d	ft7,fa3,fa7
    80004350:	03d3f5d3          	fadd.d	fa1,ft7,ft9
    80004354:	1ab6f2d3          	fdiv.d	ft5,fa3,fa1
    80004358:	03e2f253          	fadd.d	ft4,ft5,ft10
    8000435c:	1a46f853          	fdiv.d	fa6,fa3,ft4
    80004360:	023878d3          	fadd.d	fa7,fa6,ft3
    80004364:	1b137e53          	fdiv.d	ft8,ft6,fa7
    80004368:	020e7f53          	fadd.d	ft10,ft8,ft0
    8000436c:	f2068053          	fmv.d.x	ft0,a3
    80004370:	13ff77d3          	fmul.d	fa5,ft10,ft11
    80004374:	a2f01f53          	flt.d	t5,ft0,fa5
    80004378:	000f0663          	beqz	t5,80004384 <_etoa.part.0+0x17c>
    8000437c:	1bd7f7d3          	fdiv.d	fa5,fa5,ft9
    80004380:	fffc0b9b          	addiw	s7,s8,-1
    80004384:	063b8f9b          	addiw	t6,s7,99
    80004388:	0c600893          	li	a7,198
    8000438c:	01f8b7b3          	sltu	a5,a7,t6
    80004390:	034b1093          	slli	ra,s6,0x34
    80004394:	00478a93          	addi	s5,a5,4
    80004398:	0400d463          	bgez	ra,800043e0 <_etoa.part.0+0x1d8>
    8000439c:	f2068653          	fmv.d.x	fa2,a3
    800043a0:	00003797          	auipc	a5,0x3
    800043a4:	f187be87          	fld	ft9,-232(a5) # 800072b8 <pow10.1334+0xb8>
    800043a8:	a2ce82d3          	fle.d	t0,ft9,fa2
    800043ac:	44028863          	beqz	t0,800047fc <_etoa.part.0+0x5f4>
    800043b0:	00003797          	auipc	a5,0x3
    800043b4:	f107b707          	fld	fa4,-240(a5) # 800072c0 <pow10.1334+0xc0>
    800043b8:	a2e61353          	flt.d	t1,fa2,fa4
    800043bc:	44030063          	beqz	t1,800047fc <_etoa.part.0+0x5f4>
    800043c0:	0007061b          	sext.w	a2,a4
    800043c4:	00000713          	li	a4,0
    800043c8:	00cbd663          	bge	s7,a2,800043d4 <_etoa.part.0+0x1cc>
    800043cc:	4176073b          	subw	a4,a2,s7
    800043d0:	fff7071b          	addiw	a4,a4,-1
    800043d4:	400b6b13          	ori	s6,s6,1024
    800043d8:	00000a93          	li	s5,0
    800043dc:	00000b93          	li	s7,0
    800043e0:	00000793          	li	a5,0
    800043e4:	013af463          	bgeu	s5,s3,800043ec <_etoa.part.0+0x1e4>
    800043e8:	415987bb          	subw	a5,s3,s5
    800043ec:	002b7393          	andi	t2,s6,2
    800043f0:	00038c1b          	sext.w	s8,t2
    800043f4:	00038863          	beqz	t2,80004404 <_etoa.part.0+0x1fc>
    800043f8:	001ab513          	seqz	a0,s5
    800043fc:	40a005b3          	neg	a1,a0
    80004400:	00b7f7b3          	and	a5,a5,a1
    80004404:	000b8863          	beqz	s7,80004414 <_etoa.part.0+0x20c>
    80004408:	f20680d3          	fmv.d.x	ft1,a3
    8000440c:	1af0f153          	fdiv.d	ft2,ft1,fa5
    80004410:	e20106d3          	fmv.x.d	a3,ft2
    80004414:	f20006d3          	fmv.d.x	fa3,zero
    80004418:	a2d51853          	flt.d	a6,fa0,fa3
    8000441c:	00080863          	beqz	a6,8000442c <_etoa.part.0+0x224>
    80004420:	f2068553          	fmv.d.x	fa0,a3
    80004424:	22a511d3          	fneg.d	ft3,fa0
    80004428:	e20186d3          	fmv.x.d	a3,ft3
    8000442c:	f2068553          	fmv.d.x	fa0,a3
    80004430:	fffffcb7          	lui	s9,0xfffff
    80004434:	7ffc8e13          	addi	t3,s9,2047 # fffffffffffff7ff <_pmem_end+0xffffffff77fff7ff>
    80004438:	01cb7833          	and	a6,s6,t3
    8000443c:	000a0693          	mv	a3,s4
    80004440:	00090613          	mv	a2,s2
    80004444:	00048593          	mv	a1,s1
    80004448:	00040513          	mv	a0,s0
    8000444c:	3e0000ef          	jal	ra,8000482c <_ftoa>
    80004450:	00050c93          	mv	s9,a0
    80004454:	360a8863          	beqz	s5,800047c4 <_etoa.part.0+0x5bc>
    80004458:	020b7e93          	andi	t4,s6,32
    8000445c:	04500513          	li	a0,69
    80004460:	3a0e8663          	beqz	t4,8000480c <_etoa.part.0+0x604>
    80004464:	000c8613          	mv	a2,s9
    80004468:	00048593          	mv	a1,s1
    8000446c:	000a0693          	mv	a3,s4
    80004470:	000400e7          	jalr	s0
    80004474:	41fbdf1b          	sraiw	t5,s7,0x1f
    80004478:	01ebcfb3          	xor	t6,s7,t5
    8000447c:	001c8613          	addi	a2,s9,1
    80004480:	41ef85bb          	subw	a1,t6,t5
    80004484:	01fbd81b          	srliw	a6,s7,0x1f
    80004488:	fffa829b          	addiw	t0,s5,-1
    8000448c:	00000793          	li	a5,0
    80004490:	00a00713          	li	a4,10
    80004494:	00900b13          	li	s6,9
    80004498:	02000313          	li	t1,32
    8000449c:	02e5f8b3          	remu	a7,a1,a4
    800044a0:	00178793          	addi	a5,a5,1
    800044a4:	02010093          	addi	ra,sp,32
    800044a8:	00f08ab3          	add	s5,ra,a5
    800044ac:	00078b93          	mv	s7,a5
    800044b0:	0308839b          	addiw	t2,a7,48
    800044b4:	fe7a8fa3          	sb	t2,-1(s5)
    800044b8:	02e5d533          	divu	a0,a1,a4
    800044bc:	0ebb7463          	bgeu	s6,a1,800045a4 <_etoa.part.0+0x39c>
    800044c0:	00178793          	addi	a5,a5,1
    800044c4:	02010593          	addi	a1,sp,32
    800044c8:	00f586b3          	add	a3,a1,a5
    800044cc:	02e57cb3          	remu	s9,a0,a4
    800044d0:	030c8e1b          	addiw	t3,s9,48
    800044d4:	ffc68fa3          	sb	t3,-1(a3)
    800044d8:	02e55eb3          	divu	t4,a0,a4
    800044dc:	0cab7463          	bgeu	s6,a0,800045a4 <_etoa.part.0+0x39c>
    800044e0:	002b8793          	addi	a5,s7,2
    800044e4:	02010f13          	addi	t5,sp,32
    800044e8:	00ff0fb3          	add	t6,t5,a5
    800044ec:	02eef8b3          	remu	a7,t4,a4
    800044f0:	0308809b          	addiw	ra,a7,48
    800044f4:	fe1f8fa3          	sb	ra,-1(t6)
    800044f8:	02eedab3          	divu	s5,t4,a4
    800044fc:	0bdb7463          	bgeu	s6,t4,800045a4 <_etoa.part.0+0x39c>
    80004500:	003b8793          	addi	a5,s7,3
    80004504:	02010393          	addi	t2,sp,32
    80004508:	00f38533          	add	a0,t2,a5
    8000450c:	02eaf5b3          	remu	a1,s5,a4
    80004510:	0305869b          	addiw	a3,a1,48
    80004514:	fed50fa3          	sb	a3,-1(a0)
    80004518:	02eadcb3          	divu	s9,s5,a4
    8000451c:	095b7463          	bgeu	s6,s5,800045a4 <_etoa.part.0+0x39c>
    80004520:	004b8793          	addi	a5,s7,4
    80004524:	02010e13          	addi	t3,sp,32
    80004528:	00fe0eb3          	add	t4,t3,a5
    8000452c:	02ecff33          	remu	t5,s9,a4
    80004530:	030f0f9b          	addiw	t6,t5,48
    80004534:	fffe8fa3          	sb	t6,-1(t4)
    80004538:	02ecd8b3          	divu	a7,s9,a4
    8000453c:	079b7463          	bgeu	s6,s9,800045a4 <_etoa.part.0+0x39c>
    80004540:	005b8793          	addi	a5,s7,5
    80004544:	02010093          	addi	ra,sp,32
    80004548:	00f08ab3          	add	s5,ra,a5
    8000454c:	02e8f3b3          	remu	t2,a7,a4
    80004550:	0303851b          	addiw	a0,t2,48
    80004554:	feaa8fa3          	sb	a0,-1(s5)
    80004558:	02e8d5b3          	divu	a1,a7,a4
    8000455c:	051b7463          	bgeu	s6,a7,800045a4 <_etoa.part.0+0x39c>
    80004560:	006b8793          	addi	a5,s7,6
    80004564:	02010693          	addi	a3,sp,32
    80004568:	00f68cb3          	add	s9,a3,a5
    8000456c:	02e5fe33          	remu	t3,a1,a4
    80004570:	030e0e9b          	addiw	t4,t3,48
    80004574:	ffdc8fa3          	sb	t4,-1(s9)
    80004578:	02e5df33          	divu	t5,a1,a4
    8000457c:	02bb7463          	bgeu	s6,a1,800045a4 <_etoa.part.0+0x39c>
    80004580:	007b8793          	addi	a5,s7,7
    80004584:	02010b93          	addi	s7,sp,32
    80004588:	00fb8fb3          	add	t6,s7,a5
    8000458c:	02ef78b3          	remu	a7,t5,a4
    80004590:	0308809b          	addiw	ra,a7,48
    80004594:	fe1f8fa3          	sb	ra,-1(t6)
    80004598:	02ef55b3          	divu	a1,t5,a4
    8000459c:	01eb7463          	bgeu	s6,t5,800045a4 <_etoa.part.0+0x39c>
    800045a0:	ee679ee3          	bne	a5,t1,8000449c <_etoa.part.0+0x294>
    800045a4:	00500b13          	li	s6,5
    800045a8:	01613823          	sd	s6,16(sp)
    800045ac:	00513423          	sd	t0,8(sp)
    800045b0:	00013023          	sd	zero,0(sp)
    800045b4:	00a00893          	li	a7,10
    800045b8:	02010713          	addi	a4,sp,32
    800045bc:	000a0693          	mv	a3,s4
    800045c0:	00048593          	mv	a1,s1
    800045c4:	00040513          	mv	a0,s0
    800045c8:	e78ff0ef          	jal	ra,80003c40 <_ntoa_format>
    800045cc:	00050c93          	mv	s9,a0
    800045d0:	1e0c0a63          	beqz	s8,800047c4 <_etoa.part.0+0x5bc>
    800045d4:	02099993          	slli	s3,s3,0x20
    800045d8:	412507b3          	sub	a5,a0,s2
    800045dc:	0209d993          	srli	s3,s3,0x20
    800045e0:	1f37f263          	bgeu	a5,s3,800047c4 <_etoa.part.0+0x5bc>
    800045e4:	fff7c613          	not	a2,a5
    800045e8:	01360c33          	add	s8,a2,s3
    800045ec:	00178a93          	addi	s5,a5,1
    800045f0:	000a0693          	mv	a3,s4
    800045f4:	00f90633          	add	a2,s2,a5
    800045f8:	00048593          	mv	a1,s1
    800045fc:	02000513          	li	a0,32
    80004600:	007c7b93          	andi	s7,s8,7
    80004604:	000400e7          	jalr	s0
    80004608:	1b3af263          	bgeu	s5,s3,800047ac <_etoa.part.0+0x5a4>
    8000460c:	0c0b8e63          	beqz	s7,800046e8 <_etoa.part.0+0x4e0>
    80004610:	00100813          	li	a6,1
    80004614:	0b0b8c63          	beq	s7,a6,800046cc <_etoa.part.0+0x4c4>
    80004618:	00200293          	li	t0,2
    8000461c:	085b8c63          	beq	s7,t0,800046b4 <_etoa.part.0+0x4ac>
    80004620:	00300713          	li	a4,3
    80004624:	06eb8c63          	beq	s7,a4,8000469c <_etoa.part.0+0x494>
    80004628:	00400313          	li	t1,4
    8000462c:	046b8c63          	beq	s7,t1,80004684 <_etoa.part.0+0x47c>
    80004630:	036b8e63          	beq	s7,s6,8000466c <_etoa.part.0+0x464>
    80004634:	00600393          	li	t2,6
    80004638:	007b8e63          	beq	s7,t2,80004654 <_etoa.part.0+0x44c>
    8000463c:	01590633          	add	a2,s2,s5
    80004640:	000a0693          	mv	a3,s4
    80004644:	00048593          	mv	a1,s1
    80004648:	02000513          	li	a0,32
    8000464c:	000400e7          	jalr	s0
    80004650:	001a8a93          	addi	s5,s5,1
    80004654:	01590633          	add	a2,s2,s5
    80004658:	000a0693          	mv	a3,s4
    8000465c:	00048593          	mv	a1,s1
    80004660:	02000513          	li	a0,32
    80004664:	000400e7          	jalr	s0
    80004668:	001a8a93          	addi	s5,s5,1
    8000466c:	01590633          	add	a2,s2,s5
    80004670:	000a0693          	mv	a3,s4
    80004674:	00048593          	mv	a1,s1
    80004678:	02000513          	li	a0,32
    8000467c:	000400e7          	jalr	s0
    80004680:	001a8a93          	addi	s5,s5,1
    80004684:	01590633          	add	a2,s2,s5
    80004688:	000a0693          	mv	a3,s4
    8000468c:	00048593          	mv	a1,s1
    80004690:	02000513          	li	a0,32
    80004694:	000400e7          	jalr	s0
    80004698:	001a8a93          	addi	s5,s5,1
    8000469c:	01590633          	add	a2,s2,s5
    800046a0:	000a0693          	mv	a3,s4
    800046a4:	00048593          	mv	a1,s1
    800046a8:	02000513          	li	a0,32
    800046ac:	000400e7          	jalr	s0
    800046b0:	001a8a93          	addi	s5,s5,1
    800046b4:	01590633          	add	a2,s2,s5
    800046b8:	000a0693          	mv	a3,s4
    800046bc:	00048593          	mv	a1,s1
    800046c0:	02000513          	li	a0,32
    800046c4:	000400e7          	jalr	s0
    800046c8:	001a8a93          	addi	s5,s5,1
    800046cc:	01590633          	add	a2,s2,s5
    800046d0:	000a0693          	mv	a3,s4
    800046d4:	001a8a93          	addi	s5,s5,1
    800046d8:	00048593          	mv	a1,s1
    800046dc:	02000513          	li	a0,32
    800046e0:	000400e7          	jalr	s0
    800046e4:	0d3af463          	bgeu	s5,s3,800047ac <_etoa.part.0+0x5a4>
    800046e8:	01590633          	add	a2,s2,s5
    800046ec:	000a0693          	mv	a3,s4
    800046f0:	00048593          	mv	a1,s1
    800046f4:	02000513          	li	a0,32
    800046f8:	000400e7          	jalr	s0
    800046fc:	001a8513          	addi	a0,s5,1
    80004700:	00a90633          	add	a2,s2,a0
    80004704:	000a0693          	mv	a3,s4
    80004708:	00048593          	mv	a1,s1
    8000470c:	02000513          	li	a0,32
    80004710:	000400e7          	jalr	s0
    80004714:	002a8e13          	addi	t3,s5,2
    80004718:	01c90633          	add	a2,s2,t3
    8000471c:	000a0693          	mv	a3,s4
    80004720:	00048593          	mv	a1,s1
    80004724:	02000513          	li	a0,32
    80004728:	000400e7          	jalr	s0
    8000472c:	003a8e93          	addi	t4,s5,3
    80004730:	01d90633          	add	a2,s2,t4
    80004734:	000a0693          	mv	a3,s4
    80004738:	00048593          	mv	a1,s1
    8000473c:	02000513          	li	a0,32
    80004740:	000400e7          	jalr	s0
    80004744:	004a8f13          	addi	t5,s5,4
    80004748:	01e90633          	add	a2,s2,t5
    8000474c:	000a0693          	mv	a3,s4
    80004750:	00048593          	mv	a1,s1
    80004754:	02000513          	li	a0,32
    80004758:	000400e7          	jalr	s0
    8000475c:	005a8f93          	addi	t6,s5,5
    80004760:	01f90633          	add	a2,s2,t6
    80004764:	000a0693          	mv	a3,s4
    80004768:	00048593          	mv	a1,s1
    8000476c:	02000513          	li	a0,32
    80004770:	000400e7          	jalr	s0
    80004774:	006a8893          	addi	a7,s5,6
    80004778:	000a0693          	mv	a3,s4
    8000477c:	01190633          	add	a2,s2,a7
    80004780:	00048593          	mv	a1,s1
    80004784:	02000513          	li	a0,32
    80004788:	000400e7          	jalr	s0
    8000478c:	007a8593          	addi	a1,s5,7
    80004790:	00b90633          	add	a2,s2,a1
    80004794:	008a8a93          	addi	s5,s5,8
    80004798:	000a0693          	mv	a3,s4
    8000479c:	00048593          	mv	a1,s1
    800047a0:	02000513          	li	a0,32
    800047a4:	000400e7          	jalr	s0
    800047a8:	f53ae0e3          	bltu	s5,s3,800046e8 <_etoa.part.0+0x4e0>
    800047ac:	412c8433          	sub	s0,s9,s2
    800047b0:	00140493          	addi	s1,s0,1
    800047b4:	00000093          	li	ra,0
    800047b8:	0499fe63          	bgeu	s3,s1,80004814 <_etoa.part.0+0x60c>
    800047bc:	001c8c93          	addi	s9,s9,1
    800047c0:	01908cb3          	add	s9,ra,s9
    800047c4:	09813083          	ld	ra,152(sp)
    800047c8:	09013403          	ld	s0,144(sp)
    800047cc:	08813483          	ld	s1,136(sp)
    800047d0:	08013903          	ld	s2,128(sp)
    800047d4:	07813983          	ld	s3,120(sp)
    800047d8:	07013a03          	ld	s4,112(sp)
    800047dc:	06813a83          	ld	s5,104(sp)
    800047e0:	06013b03          	ld	s6,96(sp)
    800047e4:	05813b83          	ld	s7,88(sp)
    800047e8:	05013c03          	ld	s8,80(sp)
    800047ec:	000c8513          	mv	a0,s9
    800047f0:	04813c83          	ld	s9,72(sp)
    800047f4:	0a010113          	addi	sp,sp,160
    800047f8:	00008067          	ret
    800047fc:	be0702e3          	beqz	a4,800043e0 <_etoa.part.0+0x1d8>
    80004800:	be0600e3          	beqz	a2,800043e0 <_etoa.part.0+0x1d8>
    80004804:	fff7071b          	addiw	a4,a4,-1
    80004808:	bd9ff06f          	j	800043e0 <_etoa.part.0+0x1d8>
    8000480c:	06500513          	li	a0,101
    80004810:	c55ff06f          	j	80004464 <_etoa.part.0+0x25c>
    80004814:	fff90a13          	addi	s4,s2,-1
    80004818:	013a06b3          	add	a3,s4,s3
    8000481c:	419680b3          	sub	ra,a3,s9
    80004820:	001c8c93          	addi	s9,s9,1
    80004824:	01908cb3          	add	s9,ra,s9
    80004828:	f9dff06f          	j	800047c4 <_etoa.part.0+0x5bc>

Disassembly of section .text._ftoa:

000000008000482c <_ftoa>:
    8000482c:	a2a52353          	feq.d	t1,fa0,fa0
    80004830:	f8010113          	addi	sp,sp,-128
    80004834:	06113c23          	sd	ra,120(sp)
    80004838:	06813823          	sd	s0,112(sp)
    8000483c:	06913423          	sd	s1,104(sp)
    80004840:	07213023          	sd	s2,96(sp)
    80004844:	05313c23          	sd	s3,88(sp)
    80004848:	05413823          	sd	s4,80(sp)
    8000484c:	05513423          	sd	s5,72(sp)
    80004850:	05613023          	sd	s6,64(sp)
    80004854:	03713c23          	sd	s7,56(sp)
    80004858:	03813823          	sd	s8,48(sp)
    8000485c:	03913423          	sd	s9,40(sp)
    80004860:	03a13023          	sd	s10,32(sp)
    80004864:	00080893          	mv	a7,a6
    80004868:	40030463          	beqz	t1,80004c70 <_ftoa+0x444>
    8000486c:	00003817          	auipc	a6,0x3
    80004870:	a5c83787          	fld	fa5,-1444(a6) # 800072c8 <pow10.1334+0xc8>
    80004874:	a2f51853          	flt.d	a6,fa0,fa5
    80004878:	64081c63          	bnez	a6,80004ed0 <_ftoa+0x6a4>
    8000487c:	00068093          	mv	ra,a3
    80004880:	00003697          	auipc	a3,0x3
    80004884:	a506b007          	fld	ft0,-1456(a3) # 800072d0 <pow10.1334+0xd0>
    80004888:	a2a016d3          	flt.d	a3,ft0,fa0
    8000488c:	00050f93          	mv	t6,a0
    80004890:	00058293          	mv	t0,a1
    80004894:	00060393          	mv	t2,a2
    80004898:	3a069263          	bnez	a3,80004c3c <_ftoa+0x410>
    8000489c:	00003697          	auipc	a3,0x3
    800048a0:	a3c6b087          	fld	ft1,-1476(a3) # 800072d8 <pow10.1334+0xd8>
    800048a4:	a2a09453          	flt.d	s0,ft1,fa0
    800048a8:	60041663          	bnez	s0,80004eb4 <_ftoa+0x688>
    800048ac:	00003697          	auipc	a3,0x3
    800048b0:	a346b107          	fld	ft2,-1484(a3) # 800072e0 <pow10.1334+0xe0>
    800048b4:	a22514d3          	flt.d	s1,fa0,ft2
    800048b8:	5e049e63          	bnez	s1,80004eb4 <_ftoa+0x688>
    800048bc:	f20001d3          	fmv.d.x	ft3,zero
    800048c0:	00000513          	li	a0,0
    800048c4:	a23515d3          	flt.d	a1,fa0,ft3
    800048c8:	5c059863          	bnez	a1,80004e98 <_ftoa+0x66c>
    800048cc:	4008f613          	andi	a2,a7,1024
    800048d0:	00061463          	bnez	a2,800048d8 <_ftoa+0xac>
    800048d4:	00600713          	li	a4,6
    800048d8:	00000313          	li	t1,0
    800048dc:	00900913          	li	s2,9
    800048e0:	03000993          	li	s3,48
    800048e4:	02000e13          	li	t3,32
    800048e8:	0ae97463          	bgeu	s2,a4,80004990 <_ftoa+0x164>
    800048ec:	00130313          	addi	t1,t1,1
    800048f0:	00610a33          	add	s4,sp,t1
    800048f4:	ff3a0fa3          	sb	s3,-1(s4)
    800048f8:	fff7071b          	addiw	a4,a4,-1
    800048fc:	00030a93          	mv	s5,t1
    80004900:	08e97863          	bgeu	s2,a4,80004990 <_ftoa+0x164>
    80004904:	00130313          	addi	t1,t1,1
    80004908:	00610b33          	add	s6,sp,t1
    8000490c:	ff3b0fa3          	sb	s3,-1(s6)
    80004910:	fff7071b          	addiw	a4,a4,-1
    80004914:	06e97e63          	bgeu	s2,a4,80004990 <_ftoa+0x164>
    80004918:	002a8313          	addi	t1,s5,2
    8000491c:	00610bb3          	add	s7,sp,t1
    80004920:	ff3b8fa3          	sb	s3,-1(s7)
    80004924:	fff7071b          	addiw	a4,a4,-1
    80004928:	06e97463          	bgeu	s2,a4,80004990 <_ftoa+0x164>
    8000492c:	003a8313          	addi	t1,s5,3
    80004930:	00610c33          	add	s8,sp,t1
    80004934:	ff3c0fa3          	sb	s3,-1(s8)
    80004938:	fff7071b          	addiw	a4,a4,-1
    8000493c:	04e97a63          	bgeu	s2,a4,80004990 <_ftoa+0x164>
    80004940:	004a8313          	addi	t1,s5,4
    80004944:	00610cb3          	add	s9,sp,t1
    80004948:	ff3c8fa3          	sb	s3,-1(s9)
    8000494c:	fff7071b          	addiw	a4,a4,-1
    80004950:	04e97063          	bgeu	s2,a4,80004990 <_ftoa+0x164>
    80004954:	005a8313          	addi	t1,s5,5
    80004958:	00610d33          	add	s10,sp,t1
    8000495c:	ff3d0fa3          	sb	s3,-1(s10)
    80004960:	fff7071b          	addiw	a4,a4,-1
    80004964:	02e97663          	bgeu	s2,a4,80004990 <_ftoa+0x164>
    80004968:	006a8313          	addi	t1,s5,6
    8000496c:	00610eb3          	add	t4,sp,t1
    80004970:	ff3e8fa3          	sb	s3,-1(t4)
    80004974:	fff7071b          	addiw	a4,a4,-1
    80004978:	00e97c63          	bgeu	s2,a4,80004990 <_ftoa+0x164>
    8000497c:	007a8313          	addi	t1,s5,7
    80004980:	00610f33          	add	t5,sp,t1
    80004984:	ff3f0fa3          	sb	s3,-1(t5)
    80004988:	fff7071b          	addiw	a4,a4,-1
    8000498c:	f5c31ee3          	bne	t1,t3,800048e8 <_ftoa+0xbc>
    80004990:	c2051853          	fcvt.w.d	a6,fa0,rtz
    80004994:	02071693          	slli	a3,a4,0x20
    80004998:	0206d413          	srli	s0,a3,0x20
    8000499c:	d2080253          	fcvt.d.w	ft4,a6
    800049a0:	00341493          	slli	s1,s0,0x3
    800049a4:	00003597          	auipc	a1,0x3
    800049a8:	85c58593          	addi	a1,a1,-1956 # 80007200 <pow10.1334>
    800049ac:	0a4572d3          	fsub.d	ft5,fa0,ft4
    800049b0:	00958633          	add	a2,a1,s1
    800049b4:	00063707          	fld	fa4,0(a2)
    800049b8:	00003697          	auipc	a3,0x3
    800049bc:	8c06b687          	fld	fa3,-1856(a3) # 80007278 <pow10.1334+0x78>
    800049c0:	00080e9b          	sext.w	t4,a6
    800049c4:	12e2f353          	fmul.d	ft6,ft5,fa4
    800049c8:	c2331653          	fcvt.lu.d	a2,ft6,rtz
    800049cc:	d2367653          	fcvt.d.lu	fa2,a2
    800049d0:	0ac373d3          	fsub.d	ft7,ft6,fa2
    800049d4:	a2769953          	flt.d	s2,fa3,ft7
    800049d8:	2e090263          	beqz	s2,80004cbc <_ftoa+0x490>
    800049dc:	00160613          	addi	a2,a2,1
    800049e0:	d23675d3          	fcvt.d.lu	fa1,a2
    800049e4:	a2b70ad3          	fle.d	s5,fa4,fa1
    800049e8:	000a8663          	beqz	s5,800049f4 <_ftoa+0x1c8>
    800049ec:	00180e9b          	addiw	t4,a6,1
    800049f0:	00000613          	li	a2,0
    800049f4:	2c071e63          	bnez	a4,80004cd0 <_ftoa+0x4a4>
    800049f8:	d20e8853          	fcvt.d.w	fa6,t4
    800049fc:	0b057553          	fsub.d	fa0,fa0,fa6
    80004a00:	a2d51653          	flt.d	a2,fa0,fa3
    80004a04:	4a060063          	beqz	a2,80004ea4 <_ftoa+0x678>
    80004a08:	a2a695d3          	flt.d	a1,fa3,fa0
    80004a0c:	48059c63          	bnez	a1,80004ea4 <_ftoa+0x678>
    80004a10:	02000f13          	li	t5,32
    80004a14:	406f0433          	sub	s0,t5,t1
    80004a18:	00747813          	andi	a6,s0,7
    80004a1c:	00a00913          	li	s2,10
    80004a20:	0e080c63          	beqz	a6,80004b18 <_ftoa+0x2ec>
    80004a24:	032ee9bb          	remw	s3,t4,s2
    80004a28:	00130313          	addi	t1,t1,1
    80004a2c:	00610a33          	add	s4,sp,t1
    80004a30:	032ecebb          	divw	t4,t4,s2
    80004a34:	03098a9b          	addiw	s5,s3,48
    80004a38:	ff5a0fa3          	sb	s5,-1(s4)
    80004a3c:	1c0e8263          	beqz	t4,80004c00 <_ftoa+0x3d4>
    80004a40:	00100b13          	li	s6,1
    80004a44:	0d680a63          	beq	a6,s6,80004b18 <_ftoa+0x2ec>
    80004a48:	00200b93          	li	s7,2
    80004a4c:	0b780863          	beq	a6,s7,80004afc <_ftoa+0x2d0>
    80004a50:	00300c13          	li	s8,3
    80004a54:	09880663          	beq	a6,s8,80004ae0 <_ftoa+0x2b4>
    80004a58:	00400d13          	li	s10,4
    80004a5c:	07a80463          	beq	a6,s10,80004ac4 <_ftoa+0x298>
    80004a60:	00500713          	li	a4,5
    80004a64:	04e80263          	beq	a6,a4,80004aa8 <_ftoa+0x27c>
    80004a68:	00600493          	li	s1,6
    80004a6c:	02980063          	beq	a6,s1,80004a8c <_ftoa+0x260>
    80004a70:	032eecbb          	remw	s9,t4,s2
    80004a74:	00130313          	addi	t1,t1,1
    80004a78:	00610633          	add	a2,sp,t1
    80004a7c:	032ecebb          	divw	t4,t4,s2
    80004a80:	030c869b          	addiw	a3,s9,48
    80004a84:	fed60fa3          	sb	a3,-1(a2)
    80004a88:	160e8c63          	beqz	t4,80004c00 <_ftoa+0x3d4>
    80004a8c:	032ee5bb          	remw	a1,t4,s2
    80004a90:	00130313          	addi	t1,t1,1
    80004a94:	00610e33          	add	t3,sp,t1
    80004a98:	032ecebb          	divw	t4,t4,s2
    80004a9c:	0305841b          	addiw	s0,a1,48
    80004aa0:	fe8e0fa3          	sb	s0,-1(t3)
    80004aa4:	140e8e63          	beqz	t4,80004c00 <_ftoa+0x3d4>
    80004aa8:	032ee83b          	remw	a6,t4,s2
    80004aac:	00130313          	addi	t1,t1,1
    80004ab0:	006109b3          	add	s3,sp,t1
    80004ab4:	032ecebb          	divw	t4,t4,s2
    80004ab8:	03080a1b          	addiw	s4,a6,48
    80004abc:	ff498fa3          	sb	s4,-1(s3)
    80004ac0:	140e8063          	beqz	t4,80004c00 <_ftoa+0x3d4>
    80004ac4:	032eeabb          	remw	s5,t4,s2
    80004ac8:	00130313          	addi	t1,t1,1
    80004acc:	00610b33          	add	s6,sp,t1
    80004ad0:	032ecebb          	divw	t4,t4,s2
    80004ad4:	030a8b9b          	addiw	s7,s5,48
    80004ad8:	ff7b0fa3          	sb	s7,-1(s6)
    80004adc:	120e8263          	beqz	t4,80004c00 <_ftoa+0x3d4>
    80004ae0:	032eec3b          	remw	s8,t4,s2
    80004ae4:	00130313          	addi	t1,t1,1
    80004ae8:	00610d33          	add	s10,sp,t1
    80004aec:	032ecebb          	divw	t4,t4,s2
    80004af0:	030c071b          	addiw	a4,s8,48
    80004af4:	feed0fa3          	sb	a4,-1(s10)
    80004af8:	100e8463          	beqz	t4,80004c00 <_ftoa+0x3d4>
    80004afc:	032ee4bb          	remw	s1,t4,s2
    80004b00:	00130313          	addi	t1,t1,1
    80004b04:	00610cb3          	add	s9,sp,t1
    80004b08:	032ecebb          	divw	t4,t4,s2
    80004b0c:	0304861b          	addiw	a2,s1,48
    80004b10:	fecc8fa3          	sb	a2,-1(s9)
    80004b14:	0e0e8663          	beqz	t4,80004c00 <_ftoa+0x3d4>
    80004b18:	3de30863          	beq	t1,t5,80004ee8 <_ftoa+0x6bc>
    80004b1c:	032ec6bb          	divw	a3,t4,s2
    80004b20:	00130313          	addi	t1,t1,1
    80004b24:	00610e33          	add	t3,sp,t1
    80004b28:	00030593          	mv	a1,t1
    80004b2c:	032ee43b          	remw	s0,t4,s2
    80004b30:	0304081b          	addiw	a6,s0,48
    80004b34:	ff0e0fa3          	sb	a6,-1(t3)
    80004b38:	0c068463          	beqz	a3,80004c00 <_ftoa+0x3d4>
    80004b3c:	0326c9bb          	divw	s3,a3,s2
    80004b40:	00130313          	addi	t1,t1,1
    80004b44:	00610a33          	add	s4,sp,t1
    80004b48:	0326eabb          	remw	s5,a3,s2
    80004b4c:	030a8b1b          	addiw	s6,s5,48
    80004b50:	ff6a0fa3          	sb	s6,-1(s4)
    80004b54:	0a098663          	beqz	s3,80004c00 <_ftoa+0x3d4>
    80004b58:	0329cbbb          	divw	s7,s3,s2
    80004b5c:	00258313          	addi	t1,a1,2
    80004b60:	00610c33          	add	s8,sp,t1
    80004b64:	0329ed3b          	remw	s10,s3,s2
    80004b68:	030d071b          	addiw	a4,s10,48
    80004b6c:	feec0fa3          	sb	a4,-1(s8)
    80004b70:	080b8863          	beqz	s7,80004c00 <_ftoa+0x3d4>
    80004b74:	032bc4bb          	divw	s1,s7,s2
    80004b78:	00358313          	addi	t1,a1,3
    80004b7c:	00610cb3          	add	s9,sp,t1
    80004b80:	032be63b          	remw	a2,s7,s2
    80004b84:	03060e9b          	addiw	t4,a2,48
    80004b88:	ffdc8fa3          	sb	t4,-1(s9)
    80004b8c:	06048a63          	beqz	s1,80004c00 <_ftoa+0x3d4>
    80004b90:	0324c6bb          	divw	a3,s1,s2
    80004b94:	00458313          	addi	t1,a1,4
    80004b98:	00610e33          	add	t3,sp,t1
    80004b9c:	0324e43b          	remw	s0,s1,s2
    80004ba0:	0304081b          	addiw	a6,s0,48
    80004ba4:	ff0e0fa3          	sb	a6,-1(t3)
    80004ba8:	04068c63          	beqz	a3,80004c00 <_ftoa+0x3d4>
    80004bac:	0326c9bb          	divw	s3,a3,s2
    80004bb0:	00558313          	addi	t1,a1,5
    80004bb4:	00610a33          	add	s4,sp,t1
    80004bb8:	0326eabb          	remw	s5,a3,s2
    80004bbc:	030a8b1b          	addiw	s6,s5,48
    80004bc0:	ff6a0fa3          	sb	s6,-1(s4)
    80004bc4:	02098e63          	beqz	s3,80004c00 <_ftoa+0x3d4>
    80004bc8:	0329cbbb          	divw	s7,s3,s2
    80004bcc:	00658313          	addi	t1,a1,6
    80004bd0:	00610c33          	add	s8,sp,t1
    80004bd4:	0329ed3b          	remw	s10,s3,s2
    80004bd8:	030d071b          	addiw	a4,s10,48
    80004bdc:	feec0fa3          	sb	a4,-1(s8)
    80004be0:	020b8063          	beqz	s7,80004c00 <_ftoa+0x3d4>
    80004be4:	032bcebb          	divw	t4,s7,s2
    80004be8:	00758313          	addi	t1,a1,7
    80004bec:	006105b3          	add	a1,sp,t1
    80004bf0:	032be4bb          	remw	s1,s7,s2
    80004bf4:	03048c9b          	addiw	s9,s1,48
    80004bf8:	ff958fa3          	sb	s9,-1(a1)
    80004bfc:	f00e9ee3          	bnez	t4,80004b18 <_ftoa+0x2ec>
    80004c00:	0038f913          	andi	s2,a7,3
    80004c04:	00100f13          	li	t5,1
    80004c08:	11e90c63          	beq	s2,t5,80004d20 <_ftoa+0x4f4>
    80004c0c:	01f00e13          	li	t3,31
    80004c10:	006e6e63          	bltu	t3,t1,80004c2c <_ftoa+0x400>
    80004c14:	2e050463          	beqz	a0,80004efc <_ftoa+0x6d0>
    80004c18:	02010593          	addi	a1,sp,32
    80004c1c:	006584b3          	add	s1,a1,t1
    80004c20:	02d00c93          	li	s9,45
    80004c24:	ff948023          	sb	s9,-32(s1)
    80004c28:	00130313          	addi	t1,t1,1
    80004c2c:	00078813          	mv	a6,a5
    80004c30:	00010713          	mv	a4,sp
    80004c34:	00030793          	mv	a5,t1
    80004c38:	0200006f          	j	80004c58 <_ftoa+0x42c>
    80004c3c:	0048f313          	andi	t1,a7,4
    80004c40:	24031463          	bnez	t1,80004e88 <_ftoa+0x65c>
    80004c44:	00002717          	auipc	a4,0x2
    80004c48:	3bc70713          	addi	a4,a4,956 # 80007000 <__am_mainargs+0x3>
    80004c4c:	00300513          	li	a0,3
    80004c50:	00078813          	mv	a6,a5
    80004c54:	00050793          	mv	a5,a0
    80004c58:	00008693          	mv	a3,ra
    80004c5c:	00038613          	mv	a2,t2
    80004c60:	00028593          	mv	a1,t0
    80004c64:	000f8513          	mv	a0,t6
    80004c68:	9cdfe0ef          	jal	ra,80003634 <_out_rev>
    80004c6c:	0180006f          	j	80004c84 <_ftoa+0x458>
    80004c70:	00078813          	mv	a6,a5
    80004c74:	00002717          	auipc	a4,0x2
    80004c78:	39c70713          	addi	a4,a4,924 # 80007010 <__am_mainargs+0x13>
    80004c7c:	00300793          	li	a5,3
    80004c80:	9b5fe0ef          	jal	ra,80003634 <_out_rev>
    80004c84:	07813083          	ld	ra,120(sp)
    80004c88:	07013403          	ld	s0,112(sp)
    80004c8c:	06813483          	ld	s1,104(sp)
    80004c90:	06013903          	ld	s2,96(sp)
    80004c94:	05813983          	ld	s3,88(sp)
    80004c98:	05013a03          	ld	s4,80(sp)
    80004c9c:	04813a83          	ld	s5,72(sp)
    80004ca0:	04013b03          	ld	s6,64(sp)
    80004ca4:	03813b83          	ld	s7,56(sp)
    80004ca8:	03013c03          	ld	s8,48(sp)
    80004cac:	02813c83          	ld	s9,40(sp)
    80004cb0:	02013d03          	ld	s10,32(sp)
    80004cb4:	08010113          	addi	sp,sp,128
    80004cb8:	00008067          	ret
    80004cbc:	a2d399d3          	flt.d	s3,ft7,fa3
    80004cc0:	d2099ae3          	bnez	s3,800049f4 <_ftoa+0x1c8>
    80004cc4:	3c061a63          	bnez	a2,80005098 <_ftoa+0x86c>
    80004cc8:	00160613          	addi	a2,a2,1
    80004ccc:	d20706e3          	beqz	a4,800049f8 <_ftoa+0x1cc>
    80004cd0:	fe070b1b          	addiw	s6,a4,-32
    80004cd4:	006b0c3b          	addw	s8,s6,t1
    80004cd8:	00a00d13          	li	s10,10
    80004cdc:	00900c93          	li	s9,9
    80004ce0:	0280006f          	j	80004d08 <_ftoa+0x4dc>
    80004ce4:	03a67f33          	remu	t5,a2,s10
    80004ce8:	fff7041b          	addiw	s0,a4,-1
    80004cec:	030f069b          	addiw	a3,t5,48
    80004cf0:	fedb8fa3          	sb	a3,-1(s7)
    80004cf4:	03a654b3          	divu	s1,a2,s10
    80004cf8:	22ccf663          	bgeu	s9,a2,80004f24 <_ftoa+0x6f8>
    80004cfc:	00040713          	mv	a4,s0
    80004d00:	00080313          	mv	t1,a6
    80004d04:	00048613          	mv	a2,s1
    80004d08:	00130813          	addi	a6,t1,1
    80004d0c:	01010bb3          	add	s7,sp,a6
    80004d10:	fd871ae3          	bne	a4,s8,80004ce4 <_ftoa+0x4b8>
    80004d14:	0038f713          	andi	a4,a7,3
    80004d18:	00100e93          	li	t4,1
    80004d1c:	f1d718e3          	bne	a4,t4,80004c2c <_ftoa+0x400>
    80004d20:	ee0786e3          	beqz	a5,80004c0c <_ftoa+0x3e0>
    80004d24:	38051e63          	bnez	a0,800050c0 <_ftoa+0x894>
    80004d28:	00c8f613          	andi	a2,a7,12
    80004d2c:	38061a63          	bnez	a2,800050c0 <_ftoa+0x894>
    80004d30:	02079693          	slli	a3,a5,0x20
    80004d34:	0206de13          	srli	t3,a3,0x20
    80004d38:	edc37ae3          	bgeu	t1,t3,80004c0c <_ftoa+0x3e0>
    80004d3c:	01f00413          	li	s0,31
    80004d40:	ee6466e3          	bltu	s0,t1,80004c2c <_ftoa+0x400>
    80004d44:	fff34813          	not	a6,t1
    80004d48:	01c809b3          	add	s3,a6,t3
    80004d4c:	0079fa13          	andi	s4,s3,7
    80004d50:	03000a93          	li	s5,48
    80004d54:	02000b13          	li	s6,32
    80004d58:	0a0a0263          	beqz	s4,80004dfc <_ftoa+0x5d0>
    80004d5c:	00130313          	addi	t1,t1,1
    80004d60:	00610bb3          	add	s7,sp,t1
    80004d64:	ff5b8fa3          	sb	s5,-1(s7)
    80004d68:	ed6302e3          	beq	t1,s6,80004c2c <_ftoa+0x400>
    80004d6c:	00100c13          	li	s8,1
    80004d70:	098a0663          	beq	s4,s8,80004dfc <_ftoa+0x5d0>
    80004d74:	00200d13          	li	s10,2
    80004d78:	07aa0a63          	beq	s4,s10,80004dec <_ftoa+0x5c0>
    80004d7c:	00300713          	li	a4,3
    80004d80:	04ea0e63          	beq	s4,a4,80004ddc <_ftoa+0x5b0>
    80004d84:	00400e93          	li	t4,4
    80004d88:	05da0263          	beq	s4,t4,80004dcc <_ftoa+0x5a0>
    80004d8c:	00500593          	li	a1,5
    80004d90:	02ba0663          	beq	s4,a1,80004dbc <_ftoa+0x590>
    80004d94:	00600493          	li	s1,6
    80004d98:	009a0a63          	beq	s4,s1,80004dac <_ftoa+0x580>
    80004d9c:	00130313          	addi	t1,t1,1
    80004da0:	00610cb3          	add	s9,sp,t1
    80004da4:	ff5c8fa3          	sb	s5,-1(s9)
    80004da8:	e96302e3          	beq	t1,s6,80004c2c <_ftoa+0x400>
    80004dac:	00130313          	addi	t1,t1,1
    80004db0:	00610933          	add	s2,sp,t1
    80004db4:	ff590fa3          	sb	s5,-1(s2)
    80004db8:	e7630ae3          	beq	t1,s6,80004c2c <_ftoa+0x400>
    80004dbc:	00130313          	addi	t1,t1,1
    80004dc0:	00610f33          	add	t5,sp,t1
    80004dc4:	ff5f0fa3          	sb	s5,-1(t5)
    80004dc8:	e76302e3          	beq	t1,s6,80004c2c <_ftoa+0x400>
    80004dcc:	00130313          	addi	t1,t1,1
    80004dd0:	00610633          	add	a2,sp,t1
    80004dd4:	ff560fa3          	sb	s5,-1(a2)
    80004dd8:	e5630ae3          	beq	t1,s6,80004c2c <_ftoa+0x400>
    80004ddc:	00130313          	addi	t1,t1,1
    80004de0:	006106b3          	add	a3,sp,t1
    80004de4:	ff568fa3          	sb	s5,-1(a3)
    80004de8:	e56302e3          	beq	t1,s6,80004c2c <_ftoa+0x400>
    80004dec:	00130313          	addi	t1,t1,1
    80004df0:	00610433          	add	s0,sp,t1
    80004df4:	ff540fa3          	sb	s5,-1(s0)
    80004df8:	e3630ae3          	beq	t1,s6,80004c2c <_ftoa+0x400>
    80004dfc:	00130313          	addi	t1,t1,1
    80004e00:	00610833          	add	a6,sp,t1
    80004e04:	ff580fa3          	sb	s5,-1(a6)
    80004e08:	00030993          	mv	s3,t1
    80004e0c:	e1c300e3          	beq	t1,t3,80004c0c <_ftoa+0x3e0>
    80004e10:	e1630ee3          	beq	t1,s6,80004c2c <_ftoa+0x400>
    80004e14:	00130313          	addi	t1,t1,1
    80004e18:	00610933          	add	s2,sp,t1
    80004e1c:	ff590fa3          	sb	s5,-1(s2)
    80004e20:	e16306e3          	beq	t1,s6,80004c2c <_ftoa+0x400>
    80004e24:	00298313          	addi	t1,s3,2
    80004e28:	00610f33          	add	t5,sp,t1
    80004e2c:	ff5f0fa3          	sb	s5,-1(t5)
    80004e30:	df630ee3          	beq	t1,s6,80004c2c <_ftoa+0x400>
    80004e34:	00398313          	addi	t1,s3,3
    80004e38:	00610633          	add	a2,sp,t1
    80004e3c:	ff560fa3          	sb	s5,-1(a2)
    80004e40:	df6306e3          	beq	t1,s6,80004c2c <_ftoa+0x400>
    80004e44:	00498313          	addi	t1,s3,4
    80004e48:	006106b3          	add	a3,sp,t1
    80004e4c:	ff568fa3          	sb	s5,-1(a3)
    80004e50:	dd630ee3          	beq	t1,s6,80004c2c <_ftoa+0x400>
    80004e54:	00598313          	addi	t1,s3,5
    80004e58:	00610433          	add	s0,sp,t1
    80004e5c:	ff540fa3          	sb	s5,-1(s0)
    80004e60:	dd6306e3          	beq	t1,s6,80004c2c <_ftoa+0x400>
    80004e64:	00698313          	addi	t1,s3,6
    80004e68:	00610833          	add	a6,sp,t1
    80004e6c:	ff580fa3          	sb	s5,-1(a6)
    80004e70:	db630ee3          	beq	t1,s6,80004c2c <_ftoa+0x400>
    80004e74:	00798313          	addi	t1,s3,7
    80004e78:	006109b3          	add	s3,sp,t1
    80004e7c:	ff598fa3          	sb	s5,-1(s3)
    80004e80:	f7631ee3          	bne	t1,s6,80004dfc <_ftoa+0x5d0>
    80004e84:	da9ff06f          	j	80004c2c <_ftoa+0x400>
    80004e88:	00002717          	auipc	a4,0x2
    80004e8c:	18070713          	addi	a4,a4,384 # 80007008 <__am_mainargs+0xb>
    80004e90:	00400513          	li	a0,4
    80004e94:	dbdff06f          	j	80004c50 <_ftoa+0x424>
    80004e98:	0aa1f553          	fsub.d	fa0,ft3,fa0
    80004e9c:	00100513          	li	a0,1
    80004ea0:	a2dff06f          	j	800048cc <_ftoa+0xa0>
    80004ea4:	001efe13          	andi	t3,t4,1
    80004ea8:	b60e04e3          	beqz	t3,80004a10 <_ftoa+0x1e4>
    80004eac:	001e8e9b          	addiw	t4,t4,1
    80004eb0:	b61ff06f          	j	80004a10 <_ftoa+0x1e4>
    80004eb4:	00088813          	mv	a6,a7
    80004eb8:	00008693          	mv	a3,ra
    80004ebc:	00038613          	mv	a2,t2
    80004ec0:	00028593          	mv	a1,t0
    80004ec4:	000f8513          	mv	a0,t6
    80004ec8:	b40ff0ef          	jal	ra,80004208 <_etoa.part.0>
    80004ecc:	db9ff06f          	j	80004c84 <_ftoa+0x458>
    80004ed0:	00078813          	mv	a6,a5
    80004ed4:	00002717          	auipc	a4,0x2
    80004ed8:	14470713          	addi	a4,a4,324 # 80007018 <__am_mainargs+0x1b>
    80004edc:	00400793          	li	a5,4
    80004ee0:	f54fe0ef          	jal	ra,80003634 <_out_rev>
    80004ee4:	da1ff06f          	j	80004c84 <_ftoa+0x458>
    80004ee8:	0038fe93          	andi	t4,a7,3
    80004eec:	00100f13          	li	t5,1
    80004ef0:	d3ee9ee3          	bne	t4,t5,80004c2c <_ftoa+0x400>
    80004ef4:	e20798e3          	bnez	a5,80004d24 <_ftoa+0x4f8>
    80004ef8:	d35ff06f          	j	80004c2c <_ftoa+0x400>
    80004efc:	0048fa13          	andi	s4,a7,4
    80004f00:	1a0a1463          	bnez	s4,800050a8 <_ftoa+0x87c>
    80004f04:	0088fa93          	andi	s5,a7,8
    80004f08:	d20a82e3          	beqz	s5,80004c2c <_ftoa+0x400>
    80004f0c:	02010b13          	addi	s6,sp,32
    80004f10:	006b0bb3          	add	s7,s6,t1
    80004f14:	02000c13          	li	s8,32
    80004f18:	ff8b8023          	sb	s8,-32(s7)
    80004f1c:	00130313          	addi	t1,t1,1
    80004f20:	d0dff06f          	j	80004c2c <_ftoa+0x400>
    80004f24:	02000e13          	li	t3,32
    80004f28:	1bc80c63          	beq	a6,t3,800050e0 <_ftoa+0x8b4>
    80004f2c:	ffe7059b          	addiw	a1,a4,-2
    80004f30:	00080713          	mv	a4,a6
    80004f34:	14040663          	beqz	s0,80005080 <_ftoa+0x854>
    80004f38:	fff84913          	not	s2,a6
    80004f3c:	02059a13          	slli	s4,a1,0x20
    80004f40:	00230993          	addi	s3,t1,2
    80004f44:	020a5a93          	srli	s5,s4,0x20
    80004f48:	00797b13          	andi	s6,s2,7
    80004f4c:	01598733          	add	a4,s3,s5
    80004f50:	03000493          	li	s1,48
    80004f54:	02000c93          	li	s9,32
    80004f58:	0a0b0263          	beqz	s6,80004ffc <_ftoa+0x7d0>
    80004f5c:	00230813          	addi	a6,t1,2
    80004f60:	01010333          	add	t1,sp,a6
    80004f64:	fe930fa3          	sb	s1,-1(t1)
    80004f68:	10e80c63          	beq	a6,a4,80005080 <_ftoa+0x854>
    80004f6c:	00100b93          	li	s7,1
    80004f70:	097b0663          	beq	s6,s7,80004ffc <_ftoa+0x7d0>
    80004f74:	00200c13          	li	s8,2
    80004f78:	078b0a63          	beq	s6,s8,80004fec <_ftoa+0x7c0>
    80004f7c:	00300d13          	li	s10,3
    80004f80:	05ab0e63          	beq	s6,s10,80004fdc <_ftoa+0x7b0>
    80004f84:	00400f13          	li	t5,4
    80004f88:	05eb0263          	beq	s6,t5,80004fcc <_ftoa+0x7a0>
    80004f8c:	00500413          	li	s0,5
    80004f90:	028b0663          	beq	s6,s0,80004fbc <_ftoa+0x790>
    80004f94:	00600693          	li	a3,6
    80004f98:	00db0a63          	beq	s6,a3,80004fac <_ftoa+0x780>
    80004f9c:	00180813          	addi	a6,a6,1
    80004fa0:	01010633          	add	a2,sp,a6
    80004fa4:	fe960fa3          	sb	s1,-1(a2)
    80004fa8:	0ce80c63          	beq	a6,a4,80005080 <_ftoa+0x854>
    80004fac:	00180813          	addi	a6,a6,1
    80004fb0:	01010e33          	add	t3,sp,a6
    80004fb4:	fe9e0fa3          	sb	s1,-1(t3)
    80004fb8:	0ce80463          	beq	a6,a4,80005080 <_ftoa+0x854>
    80004fbc:	00180813          	addi	a6,a6,1
    80004fc0:	010105b3          	add	a1,sp,a6
    80004fc4:	fe958fa3          	sb	s1,-1(a1)
    80004fc8:	0ae80c63          	beq	a6,a4,80005080 <_ftoa+0x854>
    80004fcc:	00180813          	addi	a6,a6,1
    80004fd0:	01010933          	add	s2,sp,a6
    80004fd4:	fe990fa3          	sb	s1,-1(s2)
    80004fd8:	0ae80463          	beq	a6,a4,80005080 <_ftoa+0x854>
    80004fdc:	00180813          	addi	a6,a6,1
    80004fe0:	010109b3          	add	s3,sp,a6
    80004fe4:	fe998fa3          	sb	s1,-1(s3)
    80004fe8:	08e80c63          	beq	a6,a4,80005080 <_ftoa+0x854>
    80004fec:	00180813          	addi	a6,a6,1
    80004ff0:	01010a33          	add	s4,sp,a6
    80004ff4:	fe9a0fa3          	sb	s1,-1(s4)
    80004ff8:	08e80463          	beq	a6,a4,80005080 <_ftoa+0x854>
    80004ffc:	00180693          	addi	a3,a6,1
    80005000:	00d10933          	add	s2,sp,a3
    80005004:	00280613          	addi	a2,a6,2
    80005008:	00380593          	addi	a1,a6,3
    8000500c:	00480313          	addi	t1,a6,4
    80005010:	00580e13          	addi	t3,a6,5
    80005014:	00680f13          	addi	t5,a6,6
    80005018:	00780413          	addi	s0,a6,7
    8000501c:	fe990fa3          	sb	s1,-1(s2)
    80005020:	00880813          	addi	a6,a6,8
    80005024:	00c109b3          	add	s3,sp,a2
    80005028:	00b10a33          	add	s4,sp,a1
    8000502c:	00610ab3          	add	s5,sp,t1
    80005030:	01c10b33          	add	s6,sp,t3
    80005034:	01e10bb3          	add	s7,sp,t5
    80005038:	00810c33          	add	s8,sp,s0
    8000503c:	01010d33          	add	s10,sp,a6
    80005040:	09968463          	beq	a3,s9,800050c8 <_ftoa+0x89c>
    80005044:	02e68e63          	beq	a3,a4,80005080 <_ftoa+0x854>
    80005048:	fe998fa3          	sb	s1,-1(s3)
    8000504c:	02e60a63          	beq	a2,a4,80005080 <_ftoa+0x854>
    80005050:	fe9a0fa3          	sb	s1,-1(s4)
    80005054:	02e58663          	beq	a1,a4,80005080 <_ftoa+0x854>
    80005058:	fe9a8fa3          	sb	s1,-1(s5)
    8000505c:	02e30263          	beq	t1,a4,80005080 <_ftoa+0x854>
    80005060:	fe9b0fa3          	sb	s1,-1(s6)
    80005064:	00ee0e63          	beq	t3,a4,80005080 <_ftoa+0x854>
    80005068:	fe9b8fa3          	sb	s1,-1(s7)
    8000506c:	00ef0a63          	beq	t5,a4,80005080 <_ftoa+0x854>
    80005070:	fe9c0fa3          	sb	s1,-1(s8)
    80005074:	00e40663          	beq	s0,a4,80005080 <_ftoa+0x854>
    80005078:	fe9d0fa3          	sb	s1,-1(s10)
    8000507c:	f8e810e3          	bne	a6,a4,80004ffc <_ftoa+0x7d0>
    80005080:	02010493          	addi	s1,sp,32
    80005084:	00e48cb3          	add	s9,s1,a4
    80005088:	02e00693          	li	a3,46
    8000508c:	00170313          	addi	t1,a4,1
    80005090:	fedc8023          	sb	a3,-32(s9)
    80005094:	97dff06f          	j	80004a10 <_ftoa+0x1e4>
    80005098:	00167a13          	andi	s4,a2,1
    8000509c:	940a0ce3          	beqz	s4,800049f4 <_ftoa+0x1c8>
    800050a0:	00160613          	addi	a2,a2,1
    800050a4:	c29ff06f          	j	80004ccc <_ftoa+0x4a0>
    800050a8:	02010d13          	addi	s10,sp,32
    800050ac:	006d0733          	add	a4,s10,t1
    800050b0:	02b00e93          	li	t4,43
    800050b4:	ffd70023          	sb	t4,-32(a4)
    800050b8:	00130313          	addi	t1,t1,1
    800050bc:	b71ff06f          	j	80004c2c <_ftoa+0x400>
    800050c0:	fff7879b          	addiw	a5,a5,-1
    800050c4:	c6dff06f          	j	80004d30 <_ftoa+0x504>
    800050c8:	0038fe93          	andi	t4,a7,3
    800050cc:	00100713          	li	a4,1
    800050d0:	02000313          	li	t1,32
    800050d4:	b4ee9ce3          	bne	t4,a4,80004c2c <_ftoa+0x400>
    800050d8:	c40796e3          	bnez	a5,80004d24 <_ftoa+0x4f8>
    800050dc:	b51ff06f          	j	80004c2c <_ftoa+0x400>
    800050e0:	02000313          	li	t1,32
    800050e4:	c31ff06f          	j	80004d14 <_ftoa+0x4e8>

Disassembly of section .text._vsnprintf:

00000000800050e8 <_vsnprintf>:
    800050e8:	f1010113          	addi	sp,sp,-240
    800050ec:	0e813023          	sd	s0,224(sp)
    800050f0:	0c913c23          	sd	s1,216(sp)
    800050f4:	0d213823          	sd	s2,208(sp)
    800050f8:	0d313423          	sd	s3,200(sp)
    800050fc:	0b613823          	sd	s6,176(sp)
    80005100:	0e113423          	sd	ra,232(sp)
    80005104:	0d413023          	sd	s4,192(sp)
    80005108:	0b513c23          	sd	s5,184(sp)
    8000510c:	0b713423          	sd	s7,168(sp)
    80005110:	0b813023          	sd	s8,160(sp)
    80005114:	09913c23          	sd	s9,152(sp)
    80005118:	09a13823          	sd	s10,144(sp)
    8000511c:	09b13423          	sd	s11,136(sp)
    80005120:	06813c27          	fsd	fs0,120(sp)
    80005124:	06913827          	fsd	fs1,112(sp)
    80005128:	00058b13          	mv	s6,a1
    8000512c:	00060493          	mv	s1,a2
    80005130:	00068413          	mv	s0,a3
    80005134:	00070993          	mv	s3,a4
    80005138:	ffffe917          	auipc	s2,0xffffe
    8000513c:	4f890913          	addi	s2,s2,1272 # 80003630 <_out_null>
    80005140:	00058463          	beqz	a1,80005148 <_vsnprintf+0x60>
    80005144:	00050913          	mv	s2,a0
    80005148:	00044503          	lbu	a0,0(s0)
    8000514c:	00000d93          	li	s11,0
    80005150:	4c0504e3          	beqz	a0,80005e18 <_vsnprintf+0xd30>
    80005154:	00002797          	auipc	a5,0x2
    80005158:	17c7b407          	fld	fs0,380(a5) # 800072d0 <pow10.1334+0xd0>
    8000515c:	00002797          	auipc	a5,0x2
    80005160:	16c7b487          	fld	fs1,364(a5) # 800072c8 <pow10.1334+0xc8>
    80005164:	00010ab7          	lui	s5,0x10
    80005168:	00001a37          	lui	s4,0x1
    8000516c:	fffa8793          	addi	a5,s5,-1 # ffff <_start-0x7fff0001>
    80005170:	00002b97          	auipc	s7,0x2
    80005174:	eb0b8b93          	addi	s7,s7,-336 # 80007020 <__am_mainargs+0x23>
    80005178:	800a0a13          	addi	s4,s4,-2048 # 800 <_start-0x7ffff800>
    8000517c:	02f13423          	sd	a5,40(sp)
    80005180:	0200006f          	j	800051a0 <_vsnprintf+0xb8>
    80005184:	000d8613          	mv	a2,s11
    80005188:	00048693          	mv	a3,s1
    8000518c:	000b0593          	mv	a1,s6
    80005190:	001d8d93          	addi	s11,s11,1
    80005194:	000900e7          	jalr	s2
    80005198:	00044503          	lbu	a0,0(s0)
    8000519c:	16050a63          	beqz	a0,80005310 <_vsnprintf+0x228>
    800051a0:	02500093          	li	ra,37
    800051a4:	00140413          	addi	s0,s0,1
    800051a8:	fc151ee3          	bne	a0,ra,80005184 <_vsnprintf+0x9c>
    800051ac:	00000813          	li	a6,0
    800051b0:	01000613          	li	a2,16
    800051b4:	00044303          	lbu	t1,0(s0)
    800051b8:	00140713          	addi	a4,s0,1
    800051bc:	00070693          	mv	a3,a4
    800051c0:	fe03029b          	addiw	t0,t1,-32
    800051c4:	0ff2f393          	andi	t2,t0,255
    800051c8:	00766c63          	bltu	a2,t2,800051e0 <_vsnprintf+0xf8>
    800051cc:	00239513          	slli	a0,t2,0x2
    800051d0:	017505b3          	add	a1,a0,s7
    800051d4:	0005a883          	lw	a7,0(a1)
    800051d8:	01788c33          	add	s8,a7,s7
    800051dc:	000c0067          	jr	s8
    800051e0:	fd030d1b          	addiw	s10,t1,-48
    800051e4:	0ffd7e13          	andi	t3,s10,255
    800051e8:	00900e93          	li	t4,9
    800051ec:	19cef663          	bgeu	t4,t3,80005378 <_vsnprintf+0x290>
    800051f0:	02a00f13          	li	t5,42
    800051f4:	21e30263          	beq	t1,t5,800053f8 <_vsnprintf+0x310>
    800051f8:	00040693          	mv	a3,s0
    800051fc:	00000a93          	li	s5,0
    80005200:	00070413          	mv	s0,a4
    80005204:	02e00893          	li	a7,46
    80005208:	00000713          	li	a4,0
    8000520c:	1b130e63          	beq	t1,a7,800053c8 <_vsnprintf+0x2e0>
    80005210:	f983089b          	addiw	a7,t1,-104
    80005214:	0ff8fc13          	andi	s8,a7,255
    80005218:	01200c93          	li	s9,18
    8000521c:	098ce463          	bltu	s9,s8,800052a4 <_vsnprintf+0x1bc>
    80005220:	00002d17          	auipc	s10,0x2
    80005224:	e44d0d13          	addi	s10,s10,-444 # 80007064 <__am_mainargs+0x67>
    80005228:	002c1e13          	slli	t3,s8,0x2
    8000522c:	01ae0eb3          	add	t4,t3,s10
    80005230:	000eaf03          	lw	t5,0(t4)
    80005234:	01af0fb3          	add	t6,t5,s10
    80005238:	000f8067          	jr	t6
    8000523c:	00186813          	ori	a6,a6,1
    80005240:	0008081b          	sext.w	a6,a6
    80005244:	00070413          	mv	s0,a4
    80005248:	f6dff06f          	j	800051b4 <_vsnprintf+0xcc>
    8000524c:	00286313          	ori	t1,a6,2
    80005250:	0003081b          	sext.w	a6,t1
    80005254:	00070413          	mv	s0,a4
    80005258:	f5dff06f          	j	800051b4 <_vsnprintf+0xcc>
    8000525c:	00486413          	ori	s0,a6,4
    80005260:	0004081b          	sext.w	a6,s0
    80005264:	00070413          	mv	s0,a4
    80005268:	f4dff06f          	j	800051b4 <_vsnprintf+0xcc>
    8000526c:	01086693          	ori	a3,a6,16
    80005270:	0006881b          	sext.w	a6,a3
    80005274:	00070413          	mv	s0,a4
    80005278:	f3dff06f          	j	800051b4 <_vsnprintf+0xcc>
    8000527c:	00886c93          	ori	s9,a6,8
    80005280:	000c881b          	sext.w	a6,s9
    80005284:	00070413          	mv	s0,a4
    80005288:	f2dff06f          	j	800051b4 <_vsnprintf+0xcc>
    8000528c:	0016c303          	lbu	t1,1(a3)
    80005290:	06800793          	li	a5,104
    80005294:	36f304e3          	beq	t1,a5,80005dfc <_vsnprintf+0xd14>
    80005298:	08086693          	ori	a3,a6,128
    8000529c:	0006881b          	sext.w	a6,a3
    800052a0:	00140413          	addi	s0,s0,1
    800052a4:	fdb3029b          	addiw	t0,t1,-37
    800052a8:	0ff2f393          	andi	t2,t0,255
    800052ac:	05300513          	li	a0,83
    800052b0:	04756063          	bltu	a0,t2,800052f0 <_vsnprintf+0x208>
    800052b4:	00002597          	auipc	a1,0x2
    800052b8:	dfc58593          	addi	a1,a1,-516 # 800070b0 <__am_mainargs+0xb3>
    800052bc:	00239893          	slli	a7,t2,0x2
    800052c0:	00b88c33          	add	s8,a7,a1
    800052c4:	000c2c83          	lw	s9,0(s8)
    800052c8:	00bc8d33          	add	s10,s9,a1
    800052cc:	000d0067          	jr	s10
    800052d0:	0016c303          	lbu	t1,1(a3)
    800052d4:	fdb3029b          	addiw	t0,t1,-37
    800052d8:	10086813          	ori	a6,a6,256
    800052dc:	0ff2f393          	andi	t2,t0,255
    800052e0:	05300513          	li	a0,83
    800052e4:	0008081b          	sext.w	a6,a6
    800052e8:	00140413          	addi	s0,s0,1
    800052ec:	fc7574e3          	bgeu	a0,t2,800052b4 <_vsnprintf+0x1cc>
    800052f0:	000d8613          	mv	a2,s11
    800052f4:	00030513          	mv	a0,t1
    800052f8:	00048693          	mv	a3,s1
    800052fc:	000b0593          	mv	a1,s6
    80005300:	000900e7          	jalr	s2
    80005304:	00044503          	lbu	a0,0(s0)
    80005308:	001d8d93          	addi	s11,s11,1
    8000530c:	e8051ae3          	bnez	a0,800051a0 <_vsnprintf+0xb8>
    80005310:	000d8b9b          	sext.w	s7,s11
    80005314:	009de463          	bltu	s11,s1,8000531c <_vsnprintf+0x234>
    80005318:	fff48d93          	addi	s11,s1,-1
    8000531c:	00048693          	mv	a3,s1
    80005320:	000d8613          	mv	a2,s11
    80005324:	000b0593          	mv	a1,s6
    80005328:	00000513          	li	a0,0
    8000532c:	000900e7          	jalr	s2
    80005330:	0e813083          	ld	ra,232(sp)
    80005334:	0e013403          	ld	s0,224(sp)
    80005338:	0d813483          	ld	s1,216(sp)
    8000533c:	0d013903          	ld	s2,208(sp)
    80005340:	0c813983          	ld	s3,200(sp)
    80005344:	0c013a03          	ld	s4,192(sp)
    80005348:	0b813a83          	ld	s5,184(sp)
    8000534c:	0b013b03          	ld	s6,176(sp)
    80005350:	0a013c03          	ld	s8,160(sp)
    80005354:	09813c83          	ld	s9,152(sp)
    80005358:	09013d03          	ld	s10,144(sp)
    8000535c:	08813d83          	ld	s11,136(sp)
    80005360:	07813407          	fld	fs0,120(sp)
    80005364:	07013487          	fld	fs1,112(sp)
    80005368:	000b8513          	mv	a0,s7
    8000536c:	0a813b83          	ld	s7,168(sp)
    80005370:	0f010113          	addi	sp,sp,240
    80005374:	00008067          	ret
    80005378:	00000a93          	li	s5,0
    8000537c:	00900093          	li	ra,9
    80005380:	0080006f          	j	80005388 <_vsnprintf+0x2a0>
    80005384:	00170713          	addi	a4,a4,1
    80005388:	002a979b          	slliw	a5,s5,0x2
    8000538c:	01578abb          	addw	s5,a5,s5
    80005390:	001a961b          	slliw	a2,s5,0x1
    80005394:	006602bb          	addw	t0,a2,t1
    80005398:	00074303          	lbu	t1,0(a4)
    8000539c:	00040393          	mv	t2,s0
    800053a0:	fd028a9b          	addiw	s5,t0,-48
    800053a4:	fd03051b          	addiw	a0,t1,-48
    800053a8:	0ff57593          	andi	a1,a0,255
    800053ac:	00070413          	mv	s0,a4
    800053b0:	fcb0fae3          	bgeu	ra,a1,80005384 <_vsnprintf+0x29c>
    800053b4:	02e00893          	li	a7,46
    800053b8:	00070693          	mv	a3,a4
    800053bc:	00238413          	addi	s0,t2,2
    800053c0:	00000713          	li	a4,0
    800053c4:	e51316e3          	bne	t1,a7,80005210 <_vsnprintf+0x128>
    800053c8:	0016c303          	lbu	t1,1(a3)
    800053cc:	40086c13          	ori	s8,a6,1024
    800053d0:	00900c93          	li	s9,9
    800053d4:	fd03081b          	addiw	a6,t1,-48
    800053d8:	0ff87d13          	andi	s10,a6,255
    800053dc:	000c081b          	sext.w	a6,s8
    800053e0:	63acf263          	bgeu	s9,s10,80005a04 <_vsnprintf+0x91c>
    800053e4:	02a00e13          	li	t3,42
    800053e8:	65c30c63          	beq	t1,t3,80005a40 <_vsnprintf+0x958>
    800053ec:	00040693          	mv	a3,s0
    800053f0:	00140413          	addi	s0,s0,1
    800053f4:	e1dff06f          	j	80005210 <_vsnprintf+0x128>
    800053f8:	0009a703          	lw	a4,0(s3)
    800053fc:	00898993          	addi	s3,s3,8
    80005400:	00070a9b          	sext.w	s5,a4
    80005404:	00074863          	bltz	a4,80005414 <_vsnprintf+0x32c>
    80005408:	00144303          	lbu	t1,1(s0)
    8000540c:	00240413          	addi	s0,s0,2
    80005410:	df5ff06f          	j	80005204 <_vsnprintf+0x11c>
    80005414:	00286f93          	ori	t6,a6,2
    80005418:	00144303          	lbu	t1,1(s0)
    8000541c:	000f881b          	sext.w	a6,t6
    80005420:	40e00abb          	negw	s5,a4
    80005424:	00240413          	addi	s0,s0,2
    80005428:	dddff06f          	j	80005204 <_vsnprintf+0x11c>
    8000542c:	07800f13          	li	t5,120
    80005430:	00898c13          	addi	s8,s3,8
    80005434:	69e30ae3          	beq	t1,t5,800062c8 <_vsnprintf+0x11e0>
    80005438:	05800793          	li	a5,88
    8000543c:	1ef302e3          	beq	t1,a5,80005e20 <_vsnprintf+0xd38>
    80005440:	06f00e13          	li	t3,111
    80005444:	01c31463          	bne	t1,t3,8000544c <_vsnprintf+0x364>
    80005448:	4bc0106f          	j	80006904 <_vsnprintf+0x181c>
    8000544c:	06200613          	li	a2,98
    80005450:	00c31463          	bne	t1,a2,80005458 <_vsnprintf+0x370>
    80005454:	6dc0106f          	j	80006b30 <_vsnprintf+0x1a48>
    80005458:	fef87e93          	andi	t4,a6,-17
    8000545c:	40087d13          	andi	s10,a6,1024
    80005460:	06900513          	li	a0,105
    80005464:	000e859b          	sext.w	a1,t4
    80005468:	000d0c9b          	sext.w	s9,s10
    8000546c:	00a30463          	beq	t1,a0,80005474 <_vsnprintf+0x38c>
    80005470:	1550106f          	j	80006dc4 <_vsnprintf+0x1cdc>
    80005474:	6e0c84e3          	beqz	s9,8000635c <_vsnprintf+0x1274>
    80005478:	00a00093          	li	ra,10
    8000547c:	00a00893          	li	a7,10
    80005480:	6650006f          	j	800062e4 <_vsnprintf+0x11fc>
    80005484:	0016c303          	lbu	t1,1(a3)
    80005488:	06c00093          	li	ra,108
    8000548c:	e41314e3          	bne	t1,ra,800052d4 <_vsnprintf+0x1ec>
    80005490:	30086413          	ori	s0,a6,768
    80005494:	0004081b          	sext.w	a6,s0
    80005498:	0026c303          	lbu	t1,2(a3)
    8000549c:	00368413          	addi	s0,a3,3
    800054a0:	e05ff06f          	j	800052a4 <_vsnprintf+0x1bc>
    800054a4:	04600093          	li	ra,70
    800054a8:	66130e63          	beq	t1,ra,80005b24 <_vsnprintf+0xa3c>
    800054ac:	0009b507          	fld	fa0,0(s3)
    800054b0:	000d8613          	mv	a2,s11
    800054b4:	000a8793          	mv	a5,s5
    800054b8:	00048693          	mv	a3,s1
    800054bc:	000b0593          	mv	a1,s6
    800054c0:	00090513          	mv	a0,s2
    800054c4:	b68ff0ef          	jal	ra,8000482c <_ftoa>
    800054c8:	00898993          	addi	s3,s3,8
    800054cc:	00050d93          	mv	s11,a0
    800054d0:	cc9ff06f          	j	80005198 <_vsnprintf+0xb0>
    800054d4:	000d8613          	mv	a2,s11
    800054d8:	00048693          	mv	a3,s1
    800054dc:	000b0593          	mv	a1,s6
    800054e0:	02500513          	li	a0,37
    800054e4:	001d8d93          	addi	s11,s11,1
    800054e8:	000900e7          	jalr	s2
    800054ec:	cadff06f          	j	80005198 <_vsnprintf+0xb0>
    800054f0:	0009bc03          	ld	s8,0(s3)
    800054f4:	00898993          	addi	s3,s3,8
    800054f8:	05313023          	sd	s3,64(sp)
    800054fc:	000c4503          	lbu	a0,0(s8)
    80005500:	5a071c63          	bnez	a4,80005ab8 <_vsnprintf+0x9d0>
    80005504:	ffe00e93          	li	t4,-2
    80005508:	00051463          	bnez	a0,80005510 <_vsnprintf+0x428>
    8000550c:	0610106f          	j	80006d6c <_vsnprintf+0x1c84>
    80005510:	001e8f13          	addi	t5,t4,1
    80005514:	007f7f93          	andi	t6,t5,7
    80005518:	01ec00b3          	add	ra,s8,t5
    8000551c:	000c0693          	mv	a3,s8
    80005520:	080f8063          	beqz	t6,800055a0 <_vsnprintf+0x4b8>
    80005524:	00100793          	li	a5,1
    80005528:	06ff8463          	beq	t6,a5,80005590 <_vsnprintf+0x4a8>
    8000552c:	00200613          	li	a2,2
    80005530:	04cf8a63          	beq	t6,a2,80005584 <_vsnprintf+0x49c>
    80005534:	00300293          	li	t0,3
    80005538:	045f8063          	beq	t6,t0,80005578 <_vsnprintf+0x490>
    8000553c:	00400393          	li	t2,4
    80005540:	027f8663          	beq	t6,t2,8000556c <_vsnprintf+0x484>
    80005544:	00500593          	li	a1,5
    80005548:	00bf8c63          	beq	t6,a1,80005560 <_vsnprintf+0x478>
    8000554c:	00600893          	li	a7,6
    80005550:	631f96e3          	bne	t6,a7,8000637c <_vsnprintf+0x1294>
    80005554:	0016cd03          	lbu	s10,1(a3)
    80005558:	00168693          	addi	a3,a3,1
    8000555c:	0a0d0463          	beqz	s10,80005604 <_vsnprintf+0x51c>
    80005560:	0016c983          	lbu	s3,1(a3)
    80005564:	00168693          	addi	a3,a3,1
    80005568:	08098e63          	beqz	s3,80005604 <_vsnprintf+0x51c>
    8000556c:	0016c303          	lbu	t1,1(a3)
    80005570:	00168693          	addi	a3,a3,1
    80005574:	08030863          	beqz	t1,80005604 <_vsnprintf+0x51c>
    80005578:	0016ce03          	lbu	t3,1(a3)
    8000557c:	00168693          	addi	a3,a3,1
    80005580:	080e0263          	beqz	t3,80005604 <_vsnprintf+0x51c>
    80005584:	0016ce83          	lbu	t4,1(a3)
    80005588:	00168693          	addi	a3,a3,1
    8000558c:	060e8c63          	beqz	t4,80005604 <_vsnprintf+0x51c>
    80005590:	0016cf83          	lbu	t6,1(a3)
    80005594:	00168693          	addi	a3,a3,1
    80005598:	060f8663          	beqz	t6,80005604 <_vsnprintf+0x51c>
    8000559c:	06168ae3          	beq	a3,ra,80005e10 <_vsnprintf+0xd28>
    800055a0:	0016c783          	lbu	a5,1(a3)
    800055a4:	00168693          	addi	a3,a3,1
    800055a8:	00068613          	mv	a2,a3
    800055ac:	04078c63          	beqz	a5,80005604 <_vsnprintf+0x51c>
    800055b0:	0016c283          	lbu	t0,1(a3)
    800055b4:	00168693          	addi	a3,a3,1
    800055b8:	04028663          	beqz	t0,80005604 <_vsnprintf+0x51c>
    800055bc:	00264383          	lbu	t2,2(a2)
    800055c0:	00260693          	addi	a3,a2,2
    800055c4:	04038063          	beqz	t2,80005604 <_vsnprintf+0x51c>
    800055c8:	00364583          	lbu	a1,3(a2)
    800055cc:	00360693          	addi	a3,a2,3
    800055d0:	02058a63          	beqz	a1,80005604 <_vsnprintf+0x51c>
    800055d4:	00464883          	lbu	a7,4(a2)
    800055d8:	00460693          	addi	a3,a2,4
    800055dc:	02088463          	beqz	a7,80005604 <_vsnprintf+0x51c>
    800055e0:	00564c83          	lbu	s9,5(a2)
    800055e4:	00560693          	addi	a3,a2,5
    800055e8:	000c8e63          	beqz	s9,80005604 <_vsnprintf+0x51c>
    800055ec:	00664d03          	lbu	s10,6(a2)
    800055f0:	00660693          	addi	a3,a2,6
    800055f4:	000d0863          	beqz	s10,80005604 <_vsnprintf+0x51c>
    800055f8:	00764983          	lbu	s3,7(a2)
    800055fc:	00760693          	addi	a3,a2,7
    80005600:	f8099ee3          	bnez	s3,8000559c <_vsnprintf+0x4b4>
    80005604:	41868cbb          	subw	s9,a3,s8
    80005608:	40087f13          	andi	t5,a6,1024
    8000560c:	000f0d1b          	sext.w	s10,t5
    80005610:	000f0a63          	beqz	t5,80005624 <_vsnprintf+0x53c>
    80005614:	00070093          	mv	ra,a4
    80005618:	00ecf463          	bgeu	s9,a4,80005620 <_vsnprintf+0x538>
    8000561c:	000c8093          	mv	ra,s9
    80005620:	00008c9b          	sext.w	s9,ra
    80005624:	00287813          	andi	a6,a6,2
    80005628:	0008031b          	sext.w	t1,a6
    8000562c:	02613c23          	sd	t1,56(sp)
    80005630:	080804e3          	beqz	a6,80005eb8 <_vsnprintf+0xdd0>
    80005634:	5a050263          	beqz	a0,80005bd8 <_vsnprintf+0xaf0>
    80005638:	780d0a63          	beqz	s10,80005dcc <_vsnprintf+0xce4>
    8000563c:	02071d13          	slli	s10,a4,0x20
    80005640:	020d5313          	srli	t1,s10,0x20
    80005644:	01b30eb3          	add	t4,t1,s11
    80005648:	00337e13          	andi	t3,t1,3
    8000564c:	03d13823          	sd	t4,48(sp)
    80005650:	000d8993          	mv	s3,s11
    80005654:	560e0863          	beqz	t3,80005bc4 <_vsnprintf+0xadc>
    80005658:	05c13423          	sd	t3,72(sp)
    8000565c:	00048693          	mv	a3,s1
    80005660:	000d8613          	mv	a2,s11
    80005664:	000b0593          	mv	a1,s6
    80005668:	000900e7          	jalr	s2
    8000566c:	001d8d13          	addi	s10,s11,1
    80005670:	41bd0533          	sub	a0,s10,s11
    80005674:	00ac0fb3          	add	t6,s8,a0
    80005678:	000fc503          	lbu	a0,0(t6)
    8000567c:	06050663          	beqz	a0,800056e8 <_vsnprintf+0x600>
    80005680:	04813603          	ld	a2,72(sp)
    80005684:	00100793          	li	a5,1
    80005688:	000d0993          	mv	s3,s10
    8000568c:	52f60c63          	beq	a2,a5,80005bc4 <_vsnprintf+0xadc>
    80005690:	00200293          	li	t0,2
    80005694:	02560663          	beq	a2,t0,800056c0 <_vsnprintf+0x5d8>
    80005698:	002d8d13          	addi	s10,s11,2
    8000569c:	00098613          	mv	a2,s3
    800056a0:	00048693          	mv	a3,s1
    800056a4:	000b0593          	mv	a1,s6
    800056a8:	000900e7          	jalr	s2
    800056ac:	41bd09b3          	sub	s3,s10,s11
    800056b0:	013c03b3          	add	t2,s8,s3
    800056b4:	0003c503          	lbu	a0,0(t2)
    800056b8:	000d0993          	mv	s3,s10
    800056bc:	02050663          	beqz	a0,800056e8 <_vsnprintf+0x600>
    800056c0:	00098613          	mv	a2,s3
    800056c4:	000b0593          	mv	a1,s6
    800056c8:	00048693          	mv	a3,s1
    800056cc:	000900e7          	jalr	s2
    800056d0:	001d0d13          	addi	s10,s10,1
    800056d4:	41bd05b3          	sub	a1,s10,s11
    800056d8:	00bc08b3          	add	a7,s8,a1
    800056dc:	0008c503          	lbu	a0,0(a7)
    800056e0:	000d0993          	mv	s3,s10
    800056e4:	4e051063          	bnez	a0,80005bc4 <_vsnprintf+0xadc>
    800056e8:	000d0d93          	mv	s11,s10
    800056ec:	03813c03          	ld	s8,56(sp)
    800056f0:	4e0c1463          	bnez	s8,80005bd8 <_vsnprintf+0xaf0>
    800056f4:	04013983          	ld	s3,64(sp)
    800056f8:	aa1ff06f          	j	80005198 <_vsnprintf+0xb0>
    800056fc:	0009be03          	ld	t3,0(s3)
    80005700:	00898993          	addi	s3,s3,8
    80005704:	360e0063          	beqz	t3,80005a64 <_vsnprintf+0x97c>
    80005708:	02186813          	ori	a6,a6,33
    8000570c:	00080f9b          	sext.w	t6,a6
    80005710:	00fe7c13          	andi	s8,t3,15
    80005714:	00900a93          	li	s5,9
    80005718:	05010c93          	addi	s9,sp,80
    8000571c:	00f00293          	li	t0,15
    80005720:	02000393          	li	t2,32
    80005724:	037c0793          	addi	a5,s8,55
    80005728:	018ae463          	bltu	s5,s8,80005730 <_vsnprintf+0x648>
    8000572c:	030c0793          	addi	a5,s8,48
    80005730:	00fc8023          	sb	a5,0(s9)
    80005734:	004e5813          	srli	a6,t3,0x4
    80005738:	00100793          	li	a5,1
    8000573c:	35c2f263          	bgeu	t0,t3,80005a80 <_vsnprintf+0x998>
    80005740:	00f87593          	andi	a1,a6,15
    80005744:	03758893          	addi	a7,a1,55
    80005748:	00bae463          	bltu	s5,a1,80005750 <_vsnprintf+0x668>
    8000574c:	03058893          	addi	a7,a1,48
    80005750:	00178d13          	addi	s10,a5,1
    80005754:	01ac8f33          	add	t5,s9,s10
    80005758:	ff1f0fa3          	sb	a7,-1(t5)
    8000575c:	000d0793          	mv	a5,s10
    80005760:	00485e13          	srli	t3,a6,0x4
    80005764:	3102fe63          	bgeu	t0,a6,80005a80 <_vsnprintf+0x998>
    80005768:	307d0c63          	beq	s10,t2,80005a80 <_vsnprintf+0x998>
    8000576c:	00fe7813          	andi	a6,t3,15
    80005770:	03780613          	addi	a2,a6,55
    80005774:	010ae463          	bltu	s5,a6,8000577c <_vsnprintf+0x694>
    80005778:	03080613          	addi	a2,a6,48
    8000577c:	001d0793          	addi	a5,s10,1
    80005780:	00fc8eb3          	add	t4,s9,a5
    80005784:	fece8fa3          	sb	a2,-1(t4)
    80005788:	004e5513          	srli	a0,t3,0x4
    8000578c:	2fc2fa63          	bgeu	t0,t3,80005a80 <_vsnprintf+0x998>
    80005790:	00f57c13          	andi	s8,a0,15
    80005794:	037c0593          	addi	a1,s8,55
    80005798:	018ae463          	bltu	s5,s8,800057a0 <_vsnprintf+0x6b8>
    8000579c:	030c0593          	addi	a1,s8,48
    800057a0:	002d0793          	addi	a5,s10,2
    800057a4:	00fc86b3          	add	a3,s9,a5
    800057a8:	feb68fa3          	sb	a1,-1(a3)
    800057ac:	00455893          	srli	a7,a0,0x4
    800057b0:	2ca2f863          	bgeu	t0,a0,80005a80 <_vsnprintf+0x998>
    800057b4:	00f8ff13          	andi	t5,a7,15
    800057b8:	037f0e13          	addi	t3,t5,55
    800057bc:	01eae463          	bltu	s5,t5,800057c4 <_vsnprintf+0x6dc>
    800057c0:	030f0e13          	addi	t3,t5,48
    800057c4:	003d0793          	addi	a5,s10,3
    800057c8:	00fc8833          	add	a6,s9,a5
    800057cc:	ffc80fa3          	sb	t3,-1(a6)
    800057d0:	0048d313          	srli	t1,a7,0x4
    800057d4:	2b12f663          	bgeu	t0,a7,80005a80 <_vsnprintf+0x998>
    800057d8:	00f37613          	andi	a2,t1,15
    800057dc:	03760513          	addi	a0,a2,55
    800057e0:	00cae463          	bltu	s5,a2,800057e8 <_vsnprintf+0x700>
    800057e4:	03060513          	addi	a0,a2,48
    800057e8:	004d0793          	addi	a5,s10,4
    800057ec:	00fc8c33          	add	s8,s9,a5
    800057f0:	feac0fa3          	sb	a0,-1(s8)
    800057f4:	00435093          	srli	ra,t1,0x4
    800057f8:	2862f463          	bgeu	t0,t1,80005a80 <_vsnprintf+0x998>
    800057fc:	00f0f593          	andi	a1,ra,15
    80005800:	03758893          	addi	a7,a1,55
    80005804:	00bae463          	bltu	s5,a1,8000580c <_vsnprintf+0x724>
    80005808:	03058893          	addi	a7,a1,48
    8000580c:	005d0793          	addi	a5,s10,5
    80005810:	00fc8d33          	add	s10,s9,a5
    80005814:	ff1d0fa3          	sb	a7,-1(s10)
    80005818:	0040d813          	srli	a6,ra,0x4
    8000581c:	f212e2e3          	bltu	t0,ra,80005740 <_vsnprintf+0x658>
    80005820:	2600006f          	j	80005a80 <_vsnprintf+0x998>
    80005824:	00898f93          	addi	t6,s3,8
    80005828:	001d8c13          	addi	s8,s11,1
    8000582c:	00287713          	andi	a4,a6,2
    80005830:	03f13823          	sd	t6,48(sp)
    80005834:	000c0d13          	mv	s10,s8
    80005838:	0a0706e3          	beqz	a4,800060e4 <_vsnprintf+0xffc>
    8000583c:	0009c503          	lbu	a0,0(s3)
    80005840:	00048693          	mv	a3,s1
    80005844:	000d8613          	mv	a2,s11
    80005848:	000b0593          	mv	a1,s6
    8000584c:	000900e7          	jalr	s2
    80005850:	00100293          	li	t0,1
    80005854:	3352fce3          	bgeu	t0,s5,8000638c <_vsnprintf+0x12a4>
    80005858:	ffea899b          	addiw	s3,s5,-2
    8000585c:	02099a93          	slli	s5,s3,0x20
    80005860:	020ad993          	srli	s3,s5,0x20
    80005864:	002d8a93          	addi	s5,s11,2
    80005868:	013a8cb3          	add	s9,s5,s3
    8000586c:	41ac83b3          	sub	t2,s9,s10
    80005870:	0073ff13          	andi	t5,t2,7
    80005874:	0c0f0e63          	beqz	t5,80005950 <_vsnprintf+0x868>
    80005878:	0a5f0e63          	beq	t5,t0,80005934 <_vsnprintf+0x84c>
    8000587c:	00200793          	li	a5,2
    80005880:	08ff0e63          	beq	t5,a5,8000591c <_vsnprintf+0x834>
    80005884:	00300e13          	li	t3,3
    80005888:	07cf0e63          	beq	t5,t3,80005904 <_vsnprintf+0x81c>
    8000588c:	00400313          	li	t1,4
    80005890:	046f0e63          	beq	t5,t1,800058ec <_vsnprintf+0x804>
    80005894:	00500613          	li	a2,5
    80005898:	02cf0e63          	beq	t5,a2,800058d4 <_vsnprintf+0x7ec>
    8000589c:	00600e93          	li	t4,6
    800058a0:	01df0e63          	beq	t5,t4,800058bc <_vsnprintf+0x7d4>
    800058a4:	00048693          	mv	a3,s1
    800058a8:	000c0613          	mv	a2,s8
    800058ac:	000b0593          	mv	a1,s6
    800058b0:	02000513          	li	a0,32
    800058b4:	002d8d13          	addi	s10,s11,2
    800058b8:	000900e7          	jalr	s2
    800058bc:	000d0613          	mv	a2,s10
    800058c0:	00048693          	mv	a3,s1
    800058c4:	000b0593          	mv	a1,s6
    800058c8:	02000513          	li	a0,32
    800058cc:	001d0d13          	addi	s10,s10,1
    800058d0:	000900e7          	jalr	s2
    800058d4:	000d0613          	mv	a2,s10
    800058d8:	00048693          	mv	a3,s1
    800058dc:	000b0593          	mv	a1,s6
    800058e0:	02000513          	li	a0,32
    800058e4:	001d0d13          	addi	s10,s10,1
    800058e8:	000900e7          	jalr	s2
    800058ec:	000d0613          	mv	a2,s10
    800058f0:	00048693          	mv	a3,s1
    800058f4:	000b0593          	mv	a1,s6
    800058f8:	02000513          	li	a0,32
    800058fc:	001d0d13          	addi	s10,s10,1
    80005900:	000900e7          	jalr	s2
    80005904:	000d0613          	mv	a2,s10
    80005908:	00048693          	mv	a3,s1
    8000590c:	000b0593          	mv	a1,s6
    80005910:	02000513          	li	a0,32
    80005914:	001d0d13          	addi	s10,s10,1
    80005918:	000900e7          	jalr	s2
    8000591c:	000d0613          	mv	a2,s10
    80005920:	00048693          	mv	a3,s1
    80005924:	000b0593          	mv	a1,s6
    80005928:	02000513          	li	a0,32
    8000592c:	001d0d13          	addi	s10,s10,1
    80005930:	000900e7          	jalr	s2
    80005934:	000d0613          	mv	a2,s10
    80005938:	00048693          	mv	a3,s1
    8000593c:	001d0d13          	addi	s10,s10,1
    80005940:	000b0593          	mv	a1,s6
    80005944:	02000513          	li	a0,32
    80005948:	000900e7          	jalr	s2
    8000594c:	0b9d0663          	beq	s10,s9,800059f8 <_vsnprintf+0x910>
    80005950:	000d0613          	mv	a2,s10
    80005954:	00048693          	mv	a3,s1
    80005958:	000b0593          	mv	a1,s6
    8000595c:	02000513          	li	a0,32
    80005960:	000900e7          	jalr	s2
    80005964:	001d0613          	addi	a2,s10,1
    80005968:	00048693          	mv	a3,s1
    8000596c:	000b0593          	mv	a1,s6
    80005970:	02000513          	li	a0,32
    80005974:	000900e7          	jalr	s2
    80005978:	002d0613          	addi	a2,s10,2
    8000597c:	00048693          	mv	a3,s1
    80005980:	000b0593          	mv	a1,s6
    80005984:	02000513          	li	a0,32
    80005988:	000900e7          	jalr	s2
    8000598c:	003d0613          	addi	a2,s10,3
    80005990:	00048693          	mv	a3,s1
    80005994:	000b0593          	mv	a1,s6
    80005998:	02000513          	li	a0,32
    8000599c:	000900e7          	jalr	s2
    800059a0:	004d0613          	addi	a2,s10,4
    800059a4:	00048693          	mv	a3,s1
    800059a8:	000b0593          	mv	a1,s6
    800059ac:	02000513          	li	a0,32
    800059b0:	000900e7          	jalr	s2
    800059b4:	005d0613          	addi	a2,s10,5
    800059b8:	00048693          	mv	a3,s1
    800059bc:	000b0593          	mv	a1,s6
    800059c0:	02000513          	li	a0,32
    800059c4:	000900e7          	jalr	s2
    800059c8:	006d0613          	addi	a2,s10,6
    800059cc:	00048693          	mv	a3,s1
    800059d0:	000b0593          	mv	a1,s6
    800059d4:	02000513          	li	a0,32
    800059d8:	000900e7          	jalr	s2
    800059dc:	007d0613          	addi	a2,s10,7
    800059e0:	00048693          	mv	a3,s1
    800059e4:	008d0d13          	addi	s10,s10,8
    800059e8:	000b0593          	mv	a1,s6
    800059ec:	02000513          	li	a0,32
    800059f0:	000900e7          	jalr	s2
    800059f4:	f59d1ee3          	bne	s10,s9,80005950 <_vsnprintf+0x868>
    800059f8:	013a8db3          	add	s11,s5,s3
    800059fc:	03013983          	ld	s3,48(sp)
    80005a00:	f98ff06f          	j	80005198 <_vsnprintf+0xb0>
    80005a04:	00900f93          	li	t6,9
    80005a08:	0027109b          	slliw	ra,a4,0x2
    80005a0c:	00e087bb          	addw	a5,ra,a4
    80005a10:	00040613          	mv	a2,s0
    80005a14:	0017929b          	slliw	t0,a5,0x1
    80005a18:	00140413          	addi	s0,s0,1
    80005a1c:	006283bb          	addw	t2,t0,t1
    80005a20:	00044303          	lbu	t1,0(s0)
    80005a24:	fd03871b          	addiw	a4,t2,-48
    80005a28:	fd03051b          	addiw	a0,t1,-48
    80005a2c:	0ff57593          	andi	a1,a0,255
    80005a30:	fcbffce3          	bgeu	t6,a1,80005a08 <_vsnprintf+0x920>
    80005a34:	00040693          	mv	a3,s0
    80005a38:	00260413          	addi	s0,a2,2
    80005a3c:	fd4ff06f          	j	80005210 <_vsnprintf+0x128>
    80005a40:	0009ae83          	lw	t4,0(s3)
    80005a44:	0026c303          	lbu	t1,2(a3)
    80005a48:	00368413          	addi	s0,a3,3
    80005a4c:	fffecf13          	not	t5,t4
    80005a50:	43ff5713          	srai	a4,t5,0x3f
    80005a54:	00eef733          	and	a4,t4,a4
    80005a58:	00898993          	addi	s3,s3,8
    80005a5c:	00268693          	addi	a3,a3,2
    80005a60:	fb0ff06f          	j	80005210 <_vsnprintf+0x128>
    80005a64:	fef87313          	andi	t1,a6,-17
    80005a68:	02136e93          	ori	t4,t1,33
    80005a6c:	40087513          	andi	a0,a6,1024
    80005a70:	000e8f9b          	sext.w	t6,t4
    80005a74:	c8050ee3          	beqz	a0,80005710 <_vsnprintf+0x628>
    80005a78:	00000793          	li	a5,0
    80005a7c:	05010c93          	addi	s9,sp,80
    80005a80:	000d8613          	mv	a2,s11
    80005a84:	01000d93          	li	s11,16
    80005a88:	01b13423          	sd	s11,8(sp)
    80005a8c:	00e13023          	sd	a4,0(sp)
    80005a90:	01f13823          	sd	t6,16(sp)
    80005a94:	01000893          	li	a7,16
    80005a98:	00000813          	li	a6,0
    80005a9c:	000c8713          	mv	a4,s9
    80005aa0:	00048693          	mv	a3,s1
    80005aa4:	000b0593          	mv	a1,s6
    80005aa8:	00090513          	mv	a0,s2
    80005aac:	994fe0ef          	jal	ra,80003c40 <_ntoa_format>
    80005ab0:	00050d93          	mv	s11,a0
    80005ab4:	ee4ff06f          	j	80005198 <_vsnprintf+0xb0>
    80005ab8:	02071313          	slli	t1,a4,0x20
    80005abc:	02035e13          	srli	t3,t1,0x20
    80005ac0:	00051463          	bnez	a0,80005ac8 <_vsnprintf+0x9e0>
    80005ac4:	2a80106f          	j	80006d6c <_vsnprintf+0x1c84>
    80005ac8:	fffe0e93          	addi	t4,t3,-1
    80005acc:	a45ff06f          	j	80005510 <_vsnprintf+0x428>
    80005ad0:	0df37c13          	andi	s8,t1,223
    80005ad4:	04700593          	li	a1,71
    80005ad8:	2cbc0a63          	beq	s8,a1,80005dac <_vsnprintf+0xcc4>
    80005adc:	04500e13          	li	t3,69
    80005ae0:	2fc30063          	beq	t1,t3,80005dc0 <_vsnprintf+0xcd8>
    80005ae4:	0009b507          	fld	fa0,0(s3)
    80005ae8:	00898993          	addi	s3,s3,8
    80005aec:	a2a52cd3          	feq.d	s9,fa0,fa0
    80005af0:	280c8e63          	beqz	s9,80005d8c <_vsnprintf+0xca4>
    80005af4:	a2a41553          	flt.d	a0,fs0,fa0
    80005af8:	28051a63          	bnez	a0,80005d8c <_vsnprintf+0xca4>
    80005afc:	a29512d3          	flt.d	t0,fa0,fs1
    80005b00:	28029663          	bnez	t0,80005d8c <_vsnprintf+0xca4>
    80005b04:	000d8613          	mv	a2,s11
    80005b08:	000a8793          	mv	a5,s5
    80005b0c:	00048693          	mv	a3,s1
    80005b10:	000b0593          	mv	a1,s6
    80005b14:	00090513          	mv	a0,s2
    80005b18:	ef0fe0ef          	jal	ra,80004208 <_etoa.part.0>
    80005b1c:	00050d93          	mv	s11,a0
    80005b20:	e78ff06f          	j	80005198 <_vsnprintf+0xb0>
    80005b24:	02086893          	ori	a7,a6,32
    80005b28:	0008881b          	sext.w	a6,a7
    80005b2c:	981ff06f          	j	800054ac <_vsnprintf+0x3c4>
    80005b30:	00048693          	mv	a3,s1
    80005b34:	00098613          	mv	a2,s3
    80005b38:	000b0593          	mv	a1,s6
    80005b3c:	000900e7          	jalr	s2
    80005b40:	00198d13          	addi	s10,s3,1
    80005b44:	41bd0f33          	sub	t5,s10,s11
    80005b48:	01ec0733          	add	a4,s8,t5
    80005b4c:	00074503          	lbu	a0,0(a4)
    80005b50:	b8050ce3          	beqz	a0,800056e8 <_vsnprintf+0x600>
    80005b54:	000d0613          	mv	a2,s10
    80005b58:	00048693          	mv	a3,s1
    80005b5c:	000b0593          	mv	a1,s6
    80005b60:	000900e7          	jalr	s2
    80005b64:	00298d13          	addi	s10,s3,2
    80005b68:	41bd0833          	sub	a6,s10,s11
    80005b6c:	010c0333          	add	t1,s8,a6
    80005b70:	00034503          	lbu	a0,0(t1)
    80005b74:	b6050ae3          	beqz	a0,800056e8 <_vsnprintf+0x600>
    80005b78:	00048693          	mv	a3,s1
    80005b7c:	00298613          	addi	a2,s3,2
    80005b80:	000b0593          	mv	a1,s6
    80005b84:	000900e7          	jalr	s2
    80005b88:	00398d13          	addi	s10,s3,3
    80005b8c:	41bd0e33          	sub	t3,s10,s11
    80005b90:	01cc0eb3          	add	t4,s8,t3
    80005b94:	000ec503          	lbu	a0,0(t4)
    80005b98:	b40508e3          	beqz	a0,800056e8 <_vsnprintf+0x600>
    80005b9c:	00048693          	mv	a3,s1
    80005ba0:	00398613          	addi	a2,s3,3
    80005ba4:	000b0593          	mv	a1,s6
    80005ba8:	000900e7          	jalr	s2
    80005bac:	00498d13          	addi	s10,s3,4
    80005bb0:	41bd0533          	sub	a0,s10,s11
    80005bb4:	00ac0fb3          	add	t6,s8,a0
    80005bb8:	000fc503          	lbu	a0,0(t6)
    80005bbc:	b20506e3          	beqz	a0,800056e8 <_vsnprintf+0x600>
    80005bc0:	000d0993          	mv	s3,s10
    80005bc4:	03013683          	ld	a3,48(sp)
    80005bc8:	f73694e3          	bne	a3,s3,80005b30 <_vsnprintf+0xa48>
    80005bcc:	03813c03          	ld	s8,56(sp)
    80005bd0:	00068d93          	mv	s11,a3
    80005bd4:	b20c00e3          	beqz	s8,800056f4 <_vsnprintf+0x60c>
    80005bd8:	000d8d13          	mv	s10,s11
    80005bdc:	b15cfce3          	bgeu	s9,s5,800056f4 <_vsnprintf+0x60c>
    80005be0:	fffa8a9b          	addiw	s5,s5,-1
    80005be4:	419a80bb          	subw	ra,s5,s9
    80005be8:	02009c93          	slli	s9,ra,0x20
    80005bec:	020cd793          	srli	a5,s9,0x20
    80005bf0:	001d8d93          	addi	s11,s11,1
    80005bf4:	01b78db3          	add	s11,a5,s11
    80005bf8:	41ad8633          	sub	a2,s11,s10
    80005bfc:	00767293          	andi	t0,a2,7
    80005c00:	0e028063          	beqz	t0,80005ce0 <_vsnprintf+0xbf8>
    80005c04:	00100993          	li	s3,1
    80005c08:	0b328e63          	beq	t0,s3,80005cc4 <_vsnprintf+0xbdc>
    80005c0c:	00200393          	li	t2,2
    80005c10:	08728e63          	beq	t0,t2,80005cac <_vsnprintf+0xbc4>
    80005c14:	00300593          	li	a1,3
    80005c18:	06b28e63          	beq	t0,a1,80005c94 <_vsnprintf+0xbac>
    80005c1c:	00400893          	li	a7,4
    80005c20:	05128e63          	beq	t0,a7,80005c7c <_vsnprintf+0xb94>
    80005c24:	00500693          	li	a3,5
    80005c28:	02d28e63          	beq	t0,a3,80005c64 <_vsnprintf+0xb7c>
    80005c2c:	00600f13          	li	t5,6
    80005c30:	01e28e63          	beq	t0,t5,80005c4c <_vsnprintf+0xb64>
    80005c34:	000d0613          	mv	a2,s10
    80005c38:	00048693          	mv	a3,s1
    80005c3c:	000b0593          	mv	a1,s6
    80005c40:	02000513          	li	a0,32
    80005c44:	001d0d13          	addi	s10,s10,1
    80005c48:	000900e7          	jalr	s2
    80005c4c:	000d0613          	mv	a2,s10
    80005c50:	00048693          	mv	a3,s1
    80005c54:	000b0593          	mv	a1,s6
    80005c58:	02000513          	li	a0,32
    80005c5c:	001d0d13          	addi	s10,s10,1
    80005c60:	000900e7          	jalr	s2
    80005c64:	000d0613          	mv	a2,s10
    80005c68:	00048693          	mv	a3,s1
    80005c6c:	000b0593          	mv	a1,s6
    80005c70:	02000513          	li	a0,32
    80005c74:	001d0d13          	addi	s10,s10,1
    80005c78:	000900e7          	jalr	s2
    80005c7c:	000d0613          	mv	a2,s10
    80005c80:	00048693          	mv	a3,s1
    80005c84:	000b0593          	mv	a1,s6
    80005c88:	02000513          	li	a0,32
    80005c8c:	001d0d13          	addi	s10,s10,1
    80005c90:	000900e7          	jalr	s2
    80005c94:	000d0613          	mv	a2,s10
    80005c98:	00048693          	mv	a3,s1
    80005c9c:	000b0593          	mv	a1,s6
    80005ca0:	02000513          	li	a0,32
    80005ca4:	001d0d13          	addi	s10,s10,1
    80005ca8:	000900e7          	jalr	s2
    80005cac:	000d0613          	mv	a2,s10
    80005cb0:	00048693          	mv	a3,s1
    80005cb4:	000b0593          	mv	a1,s6
    80005cb8:	02000513          	li	a0,32
    80005cbc:	001d0d13          	addi	s10,s10,1
    80005cc0:	000900e7          	jalr	s2
    80005cc4:	000d0613          	mv	a2,s10
    80005cc8:	00048693          	mv	a3,s1
    80005ccc:	001d0d13          	addi	s10,s10,1
    80005cd0:	000b0593          	mv	a1,s6
    80005cd4:	02000513          	li	a0,32
    80005cd8:	000900e7          	jalr	s2
    80005cdc:	a1bd0ce3          	beq	s10,s11,800056f4 <_vsnprintf+0x60c>
    80005ce0:	000d0613          	mv	a2,s10
    80005ce4:	00048693          	mv	a3,s1
    80005ce8:	000b0593          	mv	a1,s6
    80005cec:	02000513          	li	a0,32
    80005cf0:	000900e7          	jalr	s2
    80005cf4:	001d0613          	addi	a2,s10,1
    80005cf8:	00048693          	mv	a3,s1
    80005cfc:	000b0593          	mv	a1,s6
    80005d00:	02000513          	li	a0,32
    80005d04:	000900e7          	jalr	s2
    80005d08:	002d0613          	addi	a2,s10,2
    80005d0c:	00048693          	mv	a3,s1
    80005d10:	000b0593          	mv	a1,s6
    80005d14:	02000513          	li	a0,32
    80005d18:	000900e7          	jalr	s2
    80005d1c:	003d0613          	addi	a2,s10,3
    80005d20:	00048693          	mv	a3,s1
    80005d24:	000b0593          	mv	a1,s6
    80005d28:	02000513          	li	a0,32
    80005d2c:	000900e7          	jalr	s2
    80005d30:	004d0613          	addi	a2,s10,4
    80005d34:	00048693          	mv	a3,s1
    80005d38:	000b0593          	mv	a1,s6
    80005d3c:	02000513          	li	a0,32
    80005d40:	000900e7          	jalr	s2
    80005d44:	005d0613          	addi	a2,s10,5
    80005d48:	00048693          	mv	a3,s1
    80005d4c:	000b0593          	mv	a1,s6
    80005d50:	02000513          	li	a0,32
    80005d54:	000900e7          	jalr	s2
    80005d58:	006d0613          	addi	a2,s10,6
    80005d5c:	00048693          	mv	a3,s1
    80005d60:	000b0593          	mv	a1,s6
    80005d64:	02000513          	li	a0,32
    80005d68:	000900e7          	jalr	s2
    80005d6c:	007d0613          	addi	a2,s10,7
    80005d70:	00048693          	mv	a3,s1
    80005d74:	008d0d13          	addi	s10,s10,8
    80005d78:	000b0593          	mv	a1,s6
    80005d7c:	02000513          	li	a0,32
    80005d80:	000900e7          	jalr	s2
    80005d84:	f5bd1ee3          	bne	s10,s11,80005ce0 <_vsnprintf+0xbf8>
    80005d88:	96dff06f          	j	800056f4 <_vsnprintf+0x60c>
    80005d8c:	000d8613          	mv	a2,s11
    80005d90:	000a8793          	mv	a5,s5
    80005d94:	00048693          	mv	a3,s1
    80005d98:	000b0593          	mv	a1,s6
    80005d9c:	00090513          	mv	a0,s2
    80005da0:	a8dfe0ef          	jal	ra,8000482c <_ftoa>
    80005da4:	00050d93          	mv	s11,a0
    80005da8:	bf0ff06f          	j	80005198 <_vsnprintf+0xb0>
    80005dac:	01486833          	or	a6,a6,s4
    80005db0:	0fd37d13          	andi	s10,t1,253
    80005db4:	04500f13          	li	t5,69
    80005db8:	0008081b          	sext.w	a6,a6
    80005dbc:	d3ed14e3          	bne	s10,t5,80005ae4 <_vsnprintf+0x9fc>
    80005dc0:	02086393          	ori	t2,a6,32
    80005dc4:	0003881b          	sext.w	a6,t2
    80005dc8:	d1dff06f          	j	80005ae4 <_vsnprintf+0x9fc>
    80005dcc:	000d8d13          	mv	s10,s11
    80005dd0:	000d0613          	mv	a2,s10
    80005dd4:	00048693          	mv	a3,s1
    80005dd8:	000b0593          	mv	a1,s6
    80005ddc:	000900e7          	jalr	s2
    80005de0:	001d0d13          	addi	s10,s10,1
    80005de4:	41bd0733          	sub	a4,s10,s11
    80005de8:	00ec0833          	add	a6,s8,a4
    80005dec:	00084503          	lbu	a0,0(a6)
    80005df0:	fe0510e3          	bnez	a0,80005dd0 <_vsnprintf+0xce8>
    80005df4:	000d0d93          	mv	s11,s10
    80005df8:	8f5ff06f          	j	800056ec <_vsnprintf+0x604>
    80005dfc:	0c086613          	ori	a2,a6,192
    80005e00:	0026c303          	lbu	t1,2(a3)
    80005e04:	0006081b          	sext.w	a6,a2
    80005e08:	00368413          	addi	s0,a3,3
    80005e0c:	c98ff06f          	j	800052a4 <_vsnprintf+0x1bc>
    80005e10:	000f0c9b          	sext.w	s9,t5
    80005e14:	ff4ff06f          	j	80005608 <_vsnprintf+0x520>
    80005e18:	00000b93          	li	s7,0
    80005e1c:	cf8ff06f          	j	80005314 <_vsnprintf+0x22c>
    80005e20:	ff387893          	andi	a7,a6,-13
    80005e24:	0008839b          	sext.w	t2,a7
    80005e28:	40087f13          	andi	t5,a6,1024
    80005e2c:	0203e593          	ori	a1,t2,32
    80005e30:	540f1063          	bnez	t5,80006370 <_vsnprintf+0x1288>
    80005e34:	20087793          	andi	a5,a6,512
    80005e38:	00078e1b          	sext.w	t3,a5
    80005e3c:	01000093          	li	ra,16
    80005e40:	01000893          	li	a7,16
    80005e44:	160e1ae3          	bnez	t3,800067b8 <_vsnprintf+0x16d0>
    80005e48:	1005ff93          	andi	t6,a1,256
    80005e4c:	00058293          	mv	t0,a1
    80005e50:	520f96e3          	bnez	t6,80006b7c <_vsnprintf+0x1a94>
    80005e54:	0405f393          	andi	t2,a1,64
    80005e58:	500386e3          	beqz	t2,80006b64 <_vsnprintf+0x1a7c>
    80005e5c:	0009c783          	lbu	a5,0(s3)
    80005e60:	02079e13          	slli	t3,a5,0x20
    80005e64:	020e5613          	srli	a2,t3,0x20
    80005e68:	000612e3          	bnez	a2,8000666c <_vsnprintf+0x1584>
    80005e6c:	fef5f313          	andi	t1,a1,-17
    80005e70:	4005fe93          	andi	t4,a1,1024
    80005e74:	0003059b          	sext.w	a1,t1
    80005e78:	7e0e8a63          	beqz	t4,8000666c <_vsnprintf+0x1584>
    80005e7c:	00000793          	li	a5,0
    80005e80:	05010e13          	addi	t3,sp,80
    80005e84:	000d8613          	mv	a2,s11
    80005e88:	00b13823          	sd	a1,16(sp)
    80005e8c:	01513423          	sd	s5,8(sp)
    80005e90:	00e13023          	sd	a4,0(sp)
    80005e94:	00000813          	li	a6,0
    80005e98:	000e0713          	mv	a4,t3
    80005e9c:	00048693          	mv	a3,s1
    80005ea0:	000b0593          	mv	a1,s6
    80005ea4:	00090513          	mv	a0,s2
    80005ea8:	d99fd0ef          	jal	ra,80003c40 <_ntoa_format>
    80005eac:	00050d93          	mv	s11,a0
    80005eb0:	000c0993          	mv	s3,s8
    80005eb4:	ae4ff06f          	j	80005198 <_vsnprintf+0xb0>
    80005eb8:	001c8e1b          	addiw	t3,s9,1
    80005ebc:	6f5cf8e3          	bgeu	s9,s5,80006dac <_vsnprintf+0x1cc4>
    80005ec0:	fffa851b          	addiw	a0,s5,-1
    80005ec4:	41950ebb          	subw	t4,a0,s9
    80005ec8:	020e9f93          	slli	t6,t4,0x20
    80005ecc:	020fd793          	srli	a5,t6,0x20
    80005ed0:	001d8c93          	addi	s9,s11,1
    80005ed4:	0077f613          	andi	a2,a5,7
    80005ed8:	019789b3          	add	s3,a5,s9
    80005edc:	1c060863          	beqz	a2,800060ac <_vsnprintf+0xfc4>
    80005ee0:	04c13423          	sd	a2,72(sp)
    80005ee4:	02e13823          	sd	a4,48(sp)
    80005ee8:	000d8613          	mv	a2,s11
    80005eec:	00048693          	mv	a3,s1
    80005ef0:	000b0593          	mv	a1,s6
    80005ef4:	02000513          	li	a0,32
    80005ef8:	000900e7          	jalr	s2
    80005efc:	04813383          	ld	t2,72(sp)
    80005f00:	00100293          	li	t0,1
    80005f04:	000c8d93          	mv	s11,s9
    80005f08:	03013703          	ld	a4,48(sp)
    80005f0c:	001c8c93          	addi	s9,s9,1
    80005f10:	18538e63          	beq	t2,t0,800060ac <_vsnprintf+0xfc4>
    80005f14:	00200593          	li	a1,2
    80005f18:	0cb38a63          	beq	t2,a1,80005fec <_vsnprintf+0xf04>
    80005f1c:	00300893          	li	a7,3
    80005f20:	0b138463          	beq	t2,a7,80005fc8 <_vsnprintf+0xee0>
    80005f24:	00400693          	li	a3,4
    80005f28:	06d38e63          	beq	t2,a3,80005fa4 <_vsnprintf+0xebc>
    80005f2c:	00500f13          	li	t5,5
    80005f30:	05e38863          	beq	t2,t5,80005f80 <_vsnprintf+0xe98>
    80005f34:	00600093          	li	ra,6
    80005f38:	02138263          	beq	t2,ra,80005f5c <_vsnprintf+0xe74>
    80005f3c:	000d8613          	mv	a2,s11
    80005f40:	00048693          	mv	a3,s1
    80005f44:	000b0593          	mv	a1,s6
    80005f48:	02000513          	li	a0,32
    80005f4c:	000900e7          	jalr	s2
    80005f50:	03013703          	ld	a4,48(sp)
    80005f54:	000c8d93          	mv	s11,s9
    80005f58:	001c8c93          	addi	s9,s9,1
    80005f5c:	02e13823          	sd	a4,48(sp)
    80005f60:	000d8613          	mv	a2,s11
    80005f64:	00048693          	mv	a3,s1
    80005f68:	000b0593          	mv	a1,s6
    80005f6c:	02000513          	li	a0,32
    80005f70:	000900e7          	jalr	s2
    80005f74:	03013703          	ld	a4,48(sp)
    80005f78:	000c8d93          	mv	s11,s9
    80005f7c:	001c8c93          	addi	s9,s9,1
    80005f80:	02e13823          	sd	a4,48(sp)
    80005f84:	000d8613          	mv	a2,s11
    80005f88:	00048693          	mv	a3,s1
    80005f8c:	000b0593          	mv	a1,s6
    80005f90:	02000513          	li	a0,32
    80005f94:	000900e7          	jalr	s2
    80005f98:	03013703          	ld	a4,48(sp)
    80005f9c:	000c8d93          	mv	s11,s9
    80005fa0:	001c8c93          	addi	s9,s9,1
    80005fa4:	02e13823          	sd	a4,48(sp)
    80005fa8:	000d8613          	mv	a2,s11
    80005fac:	00048693          	mv	a3,s1
    80005fb0:	000b0593          	mv	a1,s6
    80005fb4:	02000513          	li	a0,32
    80005fb8:	000900e7          	jalr	s2
    80005fbc:	03013703          	ld	a4,48(sp)
    80005fc0:	000c8d93          	mv	s11,s9
    80005fc4:	001c8c93          	addi	s9,s9,1
    80005fc8:	02e13823          	sd	a4,48(sp)
    80005fcc:	000d8613          	mv	a2,s11
    80005fd0:	00048693          	mv	a3,s1
    80005fd4:	000b0593          	mv	a1,s6
    80005fd8:	02000513          	li	a0,32
    80005fdc:	000900e7          	jalr	s2
    80005fe0:	03013703          	ld	a4,48(sp)
    80005fe4:	000c8d93          	mv	s11,s9
    80005fe8:	001c8c93          	addi	s9,s9,1
    80005fec:	02e13823          	sd	a4,48(sp)
    80005ff0:	000d8613          	mv	a2,s11
    80005ff4:	00048693          	mv	a3,s1
    80005ff8:	000b0593          	mv	a1,s6
    80005ffc:	02000513          	li	a0,32
    80006000:	000900e7          	jalr	s2
    80006004:	000c8d93          	mv	s11,s9
    80006008:	03013703          	ld	a4,48(sp)
    8000600c:	001c8c93          	addi	s9,s9,1
    80006010:	09c0006f          	j	800060ac <_vsnprintf+0xfc4>
    80006014:	000c8613          	mv	a2,s9
    80006018:	00048693          	mv	a3,s1
    8000601c:	000b0593          	mv	a1,s6
    80006020:	02000513          	li	a0,32
    80006024:	000900e7          	jalr	s2
    80006028:	001c8613          	addi	a2,s9,1
    8000602c:	00048693          	mv	a3,s1
    80006030:	000b0593          	mv	a1,s6
    80006034:	02000513          	li	a0,32
    80006038:	000900e7          	jalr	s2
    8000603c:	002c8613          	addi	a2,s9,2
    80006040:	00048693          	mv	a3,s1
    80006044:	000b0593          	mv	a1,s6
    80006048:	02000513          	li	a0,32
    8000604c:	000900e7          	jalr	s2
    80006050:	003c8613          	addi	a2,s9,3
    80006054:	00048693          	mv	a3,s1
    80006058:	000b0593          	mv	a1,s6
    8000605c:	02000513          	li	a0,32
    80006060:	000900e7          	jalr	s2
    80006064:	004c8613          	addi	a2,s9,4
    80006068:	00048693          	mv	a3,s1
    8000606c:	000b0593          	mv	a1,s6
    80006070:	02000513          	li	a0,32
    80006074:	000900e7          	jalr	s2
    80006078:	005c8613          	addi	a2,s9,5
    8000607c:	00048693          	mv	a3,s1
    80006080:	000b0593          	mv	a1,s6
    80006084:	02000513          	li	a0,32
    80006088:	000900e7          	jalr	s2
    8000608c:	006c8613          	addi	a2,s9,6
    80006090:	00048693          	mv	a3,s1
    80006094:	000b0593          	mv	a1,s6
    80006098:	02000513          	li	a0,32
    8000609c:	000900e7          	jalr	s2
    800060a0:	03013703          	ld	a4,48(sp)
    800060a4:	007c8d93          	addi	s11,s9,7
    800060a8:	008c8c93          	addi	s9,s9,8
    800060ac:	02e13823          	sd	a4,48(sp)
    800060b0:	000d8613          	mv	a2,s11
    800060b4:	00048693          	mv	a3,s1
    800060b8:	000b0593          	mv	a1,s6
    800060bc:	02000513          	li	a0,32
    800060c0:	000900e7          	jalr	s2
    800060c4:	03013703          	ld	a4,48(sp)
    800060c8:	000c8d93          	mv	s11,s9
    800060cc:	f53c94e3          	bne	s9,s3,80006014 <_vsnprintf+0xf2c>
    800060d0:	000c4503          	lbu	a0,0(s8)
    800060d4:	001a8c9b          	addiw	s9,s5,1
    800060d8:	d6051063          	bnez	a0,80005638 <_vsnprintf+0x550>
    800060dc:	04013983          	ld	s3,64(sp)
    800060e0:	8b8ff06f          	j	80005198 <_vsnprintf+0xb0>
    800060e4:	00100513          	li	a0,1
    800060e8:	4b557ce3          	bgeu	a0,s5,80006da0 <_vsnprintf+0x1cb8>
    800060ec:	ffea809b          	addiw	ra,s5,-2
    800060f0:	02009593          	slli	a1,ra,0x20
    800060f4:	0205d693          	srli	a3,a1,0x20
    800060f8:	0076fa93          	andi	s5,a3,7
    800060fc:	01868cb3          	add	s9,a3,s8
    80006100:	180a8863          	beqz	s5,80006290 <_vsnprintf+0x11a8>
    80006104:	000d8613          	mv	a2,s11
    80006108:	00048693          	mv	a3,s1
    8000610c:	000b0593          	mv	a1,s6
    80006110:	02000513          	li	a0,32
    80006114:	000900e7          	jalr	s2
    80006118:	00100893          	li	a7,1
    8000611c:	000c0d93          	mv	s11,s8
    80006120:	001c0c13          	addi	s8,s8,1
    80006124:	171a8663          	beq	s5,a7,80006290 <_vsnprintf+0x11a8>
    80006128:	00200813          	li	a6,2
    8000612c:	0b0a8863          	beq	s5,a6,800061dc <_vsnprintf+0x10f4>
    80006130:	00300713          	li	a4,3
    80006134:	08ea8663          	beq	s5,a4,800061c0 <_vsnprintf+0x10d8>
    80006138:	00400f93          	li	t6,4
    8000613c:	07fa8463          	beq	s5,t6,800061a4 <_vsnprintf+0x10bc>
    80006140:	00500293          	li	t0,5
    80006144:	045a8263          	beq	s5,t0,80006188 <_vsnprintf+0x10a0>
    80006148:	00600393          	li	t2,6
    8000614c:	027a8063          	beq	s5,t2,8000616c <_vsnprintf+0x1084>
    80006150:	00048693          	mv	a3,s1
    80006154:	000d0613          	mv	a2,s10
    80006158:	000b0593          	mv	a1,s6
    8000615c:	02000513          	li	a0,32
    80006160:	000c0d93          	mv	s11,s8
    80006164:	000900e7          	jalr	s2
    80006168:	001c0c13          	addi	s8,s8,1
    8000616c:	000d8613          	mv	a2,s11
    80006170:	00048693          	mv	a3,s1
    80006174:	000b0593          	mv	a1,s6
    80006178:	02000513          	li	a0,32
    8000617c:	000c0d93          	mv	s11,s8
    80006180:	000900e7          	jalr	s2
    80006184:	001c0c13          	addi	s8,s8,1
    80006188:	000d8613          	mv	a2,s11
    8000618c:	00048693          	mv	a3,s1
    80006190:	000b0593          	mv	a1,s6
    80006194:	02000513          	li	a0,32
    80006198:	000c0d93          	mv	s11,s8
    8000619c:	000900e7          	jalr	s2
    800061a0:	001c0c13          	addi	s8,s8,1
    800061a4:	000d8613          	mv	a2,s11
    800061a8:	00048693          	mv	a3,s1
    800061ac:	000b0593          	mv	a1,s6
    800061b0:	02000513          	li	a0,32
    800061b4:	000c0d93          	mv	s11,s8
    800061b8:	000900e7          	jalr	s2
    800061bc:	001c0c13          	addi	s8,s8,1
    800061c0:	000d8613          	mv	a2,s11
    800061c4:	00048693          	mv	a3,s1
    800061c8:	000b0593          	mv	a1,s6
    800061cc:	02000513          	li	a0,32
    800061d0:	000c0d93          	mv	s11,s8
    800061d4:	000900e7          	jalr	s2
    800061d8:	001c0c13          	addi	s8,s8,1
    800061dc:	000d8613          	mv	a2,s11
    800061e0:	00048693          	mv	a3,s1
    800061e4:	000b0593          	mv	a1,s6
    800061e8:	02000513          	li	a0,32
    800061ec:	000c0d93          	mv	s11,s8
    800061f0:	000900e7          	jalr	s2
    800061f4:	001c0c13          	addi	s8,s8,1
    800061f8:	0980006f          	j	80006290 <_vsnprintf+0x11a8>
    800061fc:	000c0613          	mv	a2,s8
    80006200:	00048693          	mv	a3,s1
    80006204:	000b0593          	mv	a1,s6
    80006208:	02000513          	li	a0,32
    8000620c:	000900e7          	jalr	s2
    80006210:	001c0613          	addi	a2,s8,1
    80006214:	00048693          	mv	a3,s1
    80006218:	000b0593          	mv	a1,s6
    8000621c:	02000513          	li	a0,32
    80006220:	000900e7          	jalr	s2
    80006224:	002c0613          	addi	a2,s8,2
    80006228:	00048693          	mv	a3,s1
    8000622c:	000b0593          	mv	a1,s6
    80006230:	02000513          	li	a0,32
    80006234:	000900e7          	jalr	s2
    80006238:	003c0613          	addi	a2,s8,3
    8000623c:	00048693          	mv	a3,s1
    80006240:	000b0593          	mv	a1,s6
    80006244:	02000513          	li	a0,32
    80006248:	000900e7          	jalr	s2
    8000624c:	004c0613          	addi	a2,s8,4
    80006250:	00048693          	mv	a3,s1
    80006254:	000b0593          	mv	a1,s6
    80006258:	02000513          	li	a0,32
    8000625c:	000900e7          	jalr	s2
    80006260:	005c0613          	addi	a2,s8,5
    80006264:	00048693          	mv	a3,s1
    80006268:	000b0593          	mv	a1,s6
    8000626c:	02000513          	li	a0,32
    80006270:	000900e7          	jalr	s2
    80006274:	006c0613          	addi	a2,s8,6
    80006278:	00048693          	mv	a3,s1
    8000627c:	000b0593          	mv	a1,s6
    80006280:	02000513          	li	a0,32
    80006284:	007c0d93          	addi	s11,s8,7
    80006288:	000900e7          	jalr	s2
    8000628c:	008c0c13          	addi	s8,s8,8
    80006290:	00048693          	mv	a3,s1
    80006294:	000d8613          	mv	a2,s11
    80006298:	000b0593          	mv	a1,s6
    8000629c:	02000513          	li	a0,32
    800062a0:	000900e7          	jalr	s2
    800062a4:	f59c1ce3          	bne	s8,s9,800061fc <_vsnprintf+0x1114>
    800062a8:	001c8d93          	addi	s11,s9,1
    800062ac:	0009c503          	lbu	a0,0(s3)
    800062b0:	00048693          	mv	a3,s1
    800062b4:	000c8613          	mv	a2,s9
    800062b8:	000b0593          	mv	a1,s6
    800062bc:	000900e7          	jalr	s2
    800062c0:	03013983          	ld	s3,48(sp)
    800062c4:	ed5fe06f          	j	80005198 <_vsnprintf+0xb0>
    800062c8:	40087613          	andi	a2,a6,1024
    800062cc:	00060e9b          	sext.w	t4,a2
    800062d0:	01000093          	li	ra,16
    800062d4:	01000893          	li	a7,16
    800062d8:	ff387d13          	andi	s10,a6,-13
    800062dc:	000d059b          	sext.w	a1,s10
    800062e0:	000e8663          	beqz	t4,800062ec <_vsnprintf+0x1204>
    800062e4:	ffe5f513          	andi	a0,a1,-2
    800062e8:	0005059b          	sext.w	a1,a0
    800062ec:	2005fc93          	andi	s9,a1,512
    800062f0:	06900693          	li	a3,105
    800062f4:	000c8e1b          	sext.w	t3,s9
    800062f8:	00d30663          	beq	t1,a3,80006304 <_vsnprintf+0x121c>
    800062fc:	06400813          	li	a6,100
    80006300:	b50312e3          	bne	t1,a6,80005e44 <_vsnprintf+0xd5c>
    80006304:	1c0e1a63          	bnez	t3,800064d8 <_vsnprintf+0x13f0>
    80006308:	1005fe13          	andi	t3,a1,256
    8000630c:	00058d13          	mv	s10,a1
    80006310:	640e1863          	bnez	t3,80006960 <_vsnprintf+0x1878>
    80006314:	0405f693          	andi	a3,a1,64
    80006318:	0009af03          	lw	t5,0(s3)
    8000631c:	7a068463          	beqz	a3,80006ac4 <_vsnprintf+0x19dc>
    80006320:	0fff7f13          	andi	t5,t5,255
    80006324:	000f0393          	mv	t2,t5
    80006328:	01ff581b          	srliw	a6,t5,0x1f
    8000632c:	060f1663          	bnez	t5,80006398 <_vsnprintf+0x12b0>
    80006330:	fef5fe93          	andi	t4,a1,-17
    80006334:	4005f613          	andi	a2,a1,1024
    80006338:	000e859b          	sext.w	a1,t4
    8000633c:	04060e63          	beqz	a2,80006398 <_vsnprintf+0x12b0>
    80006340:	00000793          	li	a5,0
    80006344:	05010e13          	addi	t3,sp,80
    80006348:	000d8613          	mv	a2,s11
    8000634c:	00b13823          	sd	a1,16(sp)
    80006350:	01513423          	sd	s5,8(sp)
    80006354:	00e13023          	sd	a4,0(sp)
    80006358:	b41ff06f          	j	80005e98 <_vsnprintf+0xdb0>
    8000635c:	20087313          	andi	t1,a6,512
    80006360:	00030e1b          	sext.w	t3,t1
    80006364:	00a00093          	li	ra,10
    80006368:	00a00893          	li	a7,10
    8000636c:	f99ff06f          	j	80006304 <_vsnprintf+0x121c>
    80006370:	01000093          	li	ra,16
    80006374:	01000893          	li	a7,16
    80006378:	f6dff06f          	j	800062e4 <_vsnprintf+0x11fc>
    8000637c:	001c4c83          	lbu	s9,1(s8)
    80006380:	001c0693          	addi	a3,s8,1
    80006384:	9c0c9863          	bnez	s9,80005554 <_vsnprintf+0x46c>
    80006388:	a7cff06f          	j	80005604 <_vsnprintf+0x51c>
    8000638c:	03013983          	ld	s3,48(sp)
    80006390:	000c0d93          	mv	s11,s8
    80006394:	e05fe06f          	j	80005198 <_vsnprintf+0xb0>
    80006398:	0205fe13          	andi	t3,a1,32
    8000639c:	06100d13          	li	s10,97
    800063a0:	000e0463          	beqz	t3,800063a8 <_vsnprintf+0x12c0>
    800063a4:	04100d13          	li	s10,65
    800063a8:	0213f6b3          	remu	a3,t2,ra
    800063ac:	00900f13          	li	t5,9
    800063b0:	05010e13          	addi	t3,sp,80
    800063b4:	ff6d0f9b          	addiw	t6,s10,-10
    800063b8:	02000313          	li	t1,32
    800063bc:	0ff6f793          	andi	a5,a3,255
    800063c0:	78df6c63          	bltu	t5,a3,80006b58 <_vsnprintf+0x1a70>
    800063c4:	03078513          	addi	a0,a5,48
    800063c8:	00ae0023          	sb	a0,0(t3)
    800063cc:	0213deb3          	divu	t4,t2,ra
    800063d0:	00100793          	li	a5,1
    800063d4:	f613eae3          	bltu	t2,ra,80006348 <_vsnprintf+0x1260>
    800063d8:	021ef9b3          	remu	s3,t4,ra
    800063dc:	0ff9f393          	andi	t2,s3,255
    800063e0:	0f3f6663          	bltu	t5,s3,800064cc <_vsnprintf+0x13e4>
    800063e4:	03038d13          	addi	s10,t2,48
    800063e8:	00178613          	addi	a2,a5,1
    800063ec:	00ce06b3          	add	a3,t3,a2
    800063f0:	ffa68fa3          	sb	s10,-1(a3)
    800063f4:	021edcb3          	divu	s9,t4,ra
    800063f8:	00060793          	mv	a5,a2
    800063fc:	f41ee6e3          	bltu	t4,ra,80006348 <_vsnprintf+0x1260>
    80006400:	f46604e3          	beq	a2,t1,80006348 <_vsnprintf+0x1260>
    80006404:	021cf7b3          	remu	a5,s9,ra
    80006408:	0ff7fe93          	andi	t4,a5,255
    8000640c:	22ff6463          	bltu	t5,a5,80006634 <_vsnprintf+0x154c>
    80006410:	030e8393          	addi	t2,t4,48
    80006414:	00160793          	addi	a5,a2,1
    80006418:	00fe09b3          	add	s3,t3,a5
    8000641c:	fe798fa3          	sb	t2,-1(s3)
    80006420:	021cd2b3          	divu	t0,s9,ra
    80006424:	f21ce2e3          	bltu	s9,ra,80006348 <_vsnprintf+0x1260>
    80006428:	0212fd33          	remu	s10,t0,ra
    8000642c:	0ffd7693          	andi	a3,s10,255
    80006430:	21af7863          	bgeu	t5,s10,80006640 <_vsnprintf+0x1558>
    80006434:	00df8cbb          	addw	s9,t6,a3
    80006438:	0ffcfe93          	andi	t4,s9,255
    8000643c:	00260793          	addi	a5,a2,2
    80006440:	00fe0533          	add	a0,t3,a5
    80006444:	ffd50fa3          	sb	t4,-1(a0)
    80006448:	0212d3b3          	divu	t2,t0,ra
    8000644c:	ee12eee3          	bltu	t0,ra,80006348 <_vsnprintf+0x1260>
    80006450:	0213f7b3          	remu	a5,t2,ra
    80006454:	0ff7f993          	andi	s3,a5,255
    80006458:	1eff7863          	bgeu	t5,a5,80006648 <_vsnprintf+0x1560>
    8000645c:	013f82bb          	addw	t0,t6,s3
    80006460:	0ff2fd13          	andi	s10,t0,255
    80006464:	00360793          	addi	a5,a2,3
    80006468:	00fe06b3          	add	a3,t3,a5
    8000646c:	ffa68fa3          	sb	s10,-1(a3)
    80006470:	0213dcb3          	divu	s9,t2,ra
    80006474:	ec13eae3          	bltu	t2,ra,80006348 <_vsnprintf+0x1260>
    80006478:	021cf533          	remu	a0,s9,ra
    8000647c:	0ff57e93          	andi	t4,a0,255
    80006480:	1caf7863          	bgeu	t5,a0,80006650 <_vsnprintf+0x1568>
    80006484:	01df83bb          	addw	t2,t6,t4
    80006488:	0ff3f993          	andi	s3,t2,255
    8000648c:	00460793          	addi	a5,a2,4
    80006490:	00fe02b3          	add	t0,t3,a5
    80006494:	ff328fa3          	sb	s3,-1(t0)
    80006498:	021cdd33          	divu	s10,s9,ra
    8000649c:	ea1ce6e3          	bltu	s9,ra,80006348 <_vsnprintf+0x1260>
    800064a0:	021d77b3          	remu	a5,s10,ra
    800064a4:	0ff7f693          	andi	a3,a5,255
    800064a8:	1aff7e63          	bgeu	t5,a5,80006664 <_vsnprintf+0x157c>
    800064ac:	00df8cbb          	addw	s9,t6,a3
    800064b0:	0ffcf513          	andi	a0,s9,255
    800064b4:	00560793          	addi	a5,a2,5
    800064b8:	00fe0633          	add	a2,t3,a5
    800064bc:	fea60fa3          	sb	a0,-1(a2)
    800064c0:	021d5eb3          	divu	t4,s10,ra
    800064c4:	f01d7ae3          	bgeu	s10,ra,800063d8 <_vsnprintf+0x12f0>
    800064c8:	e81ff06f          	j	80006348 <_vsnprintf+0x1260>
    800064cc:	007f82bb          	addw	t0,t6,t2
    800064d0:	0ff2fd13          	andi	s10,t0,255
    800064d4:	f15ff06f          	j	800063e8 <_vsnprintf+0x1300>
    800064d8:	0009be03          	ld	t3,0(s3)
    800064dc:	43fe5813          	srai	a6,t3,0x3f
    800064e0:	01c846b3          	xor	a3,a6,t3
    800064e4:	41068cb3          	sub	s9,a3,a6
    800064e8:	03fe5813          	srli	a6,t3,0x3f
    800064ec:	000e1a63          	bnez	t3,80006500 <_vsnprintf+0x1418>
    800064f0:	fef5f293          	andi	t0,a1,-17
    800064f4:	4005fe93          	andi	t4,a1,1024
    800064f8:	0002859b          	sext.w	a1,t0
    800064fc:	e40e92e3          	bnez	t4,80006340 <_vsnprintf+0x1258>
    80006500:	0205f313          	andi	t1,a1,32
    80006504:	06100f93          	li	t6,97
    80006508:	00030463          	beqz	t1,80006510 <_vsnprintf+0x1428>
    8000650c:	04100f93          	li	t6,65
    80006510:	021cf7b3          	remu	a5,s9,ra
    80006514:	00900d13          	li	s10,9
    80006518:	05010e13          	addi	t3,sp,80
    8000651c:	ff6f8f1b          	addiw	t5,t6,-10
    80006520:	02000393          	li	t2,32
    80006524:	0ff7f993          	andi	s3,a5,255
    80006528:	7efd6e63          	bltu	s10,a5,80006d24 <_vsnprintf+0x1c3c>
    8000652c:	03098513          	addi	a0,s3,48
    80006530:	00ae0023          	sb	a0,0(t3)
    80006534:	021cdeb3          	divu	t4,s9,ra
    80006538:	00100793          	li	a5,1
    8000653c:	e01ce6e3          	bltu	s9,ra,80006348 <_vsnprintf+0x1260>
    80006540:	021ef6b3          	remu	a3,t4,ra
    80006544:	0ff6fc93          	andi	s9,a3,255
    80006548:	10dd6863          	bltu	s10,a3,80006658 <_vsnprintf+0x1570>
    8000654c:	030c8313          	addi	t1,s9,48
    80006550:	00178613          	addi	a2,a5,1
    80006554:	00ce0fb3          	add	t6,t3,a2
    80006558:	fe6f8fa3          	sb	t1,-1(t6)
    8000655c:	021ed6b3          	divu	a3,t4,ra
    80006560:	00060793          	mv	a5,a2
    80006564:	de1ee2e3          	bltu	t4,ra,80006348 <_vsnprintf+0x1260>
    80006568:	de7600e3          	beq	a2,t2,80006348 <_vsnprintf+0x1260>
    8000656c:	0216f7b3          	remu	a5,a3,ra
    80006570:	0ff7fe93          	andi	t4,a5,255
    80006574:	3cfd6463          	bltu	s10,a5,8000693c <_vsnprintf+0x1854>
    80006578:	030e8513          	addi	a0,t4,48
    8000657c:	00160793          	addi	a5,a2,1
    80006580:	00fe0cb3          	add	s9,t3,a5
    80006584:	feac8fa3          	sb	a0,-1(s9)
    80006588:	0216d2b3          	divu	t0,a3,ra
    8000658c:	da16eee3          	bltu	a3,ra,80006348 <_vsnprintf+0x1260>
    80006590:	0212f333          	remu	t1,t0,ra
    80006594:	0ff37f93          	andi	t6,t1,255
    80006598:	3a6d7863          	bgeu	s10,t1,80006948 <_vsnprintf+0x1860>
    8000659c:	01ff06bb          	addw	a3,t5,t6
    800065a0:	0ff6fe93          	andi	t4,a3,255
    800065a4:	00260793          	addi	a5,a2,2
    800065a8:	00fe09b3          	add	s3,t3,a5
    800065ac:	ffd98fa3          	sb	t4,-1(s3)
    800065b0:	0212dcb3          	divu	s9,t0,ra
    800065b4:	d812eae3          	bltu	t0,ra,80006348 <_vsnprintf+0x1260>
    800065b8:	021cf7b3          	remu	a5,s9,ra
    800065bc:	0ff7f513          	andi	a0,a5,255
    800065c0:	4efd7e63          	bgeu	s10,a5,80006abc <_vsnprintf+0x19d4>
    800065c4:	00af02bb          	addw	t0,t5,a0
    800065c8:	0ff2f313          	andi	t1,t0,255
    800065cc:	00360793          	addi	a5,a2,3
    800065d0:	00fe0fb3          	add	t6,t3,a5
    800065d4:	fe6f8fa3          	sb	t1,-1(t6)
    800065d8:	021cd6b3          	divu	a3,s9,ra
    800065dc:	d61ce6e3          	bltu	s9,ra,80006348 <_vsnprintf+0x1260>
    800065e0:	0216f9b3          	remu	s3,a3,ra
    800065e4:	0ff9fe93          	andi	t4,s3,255
    800065e8:	513d7c63          	bgeu	s10,s3,80006b00 <_vsnprintf+0x1a18>
    800065ec:	01df0cbb          	addw	s9,t5,t4
    800065f0:	0ffcf513          	andi	a0,s9,255
    800065f4:	00460793          	addi	a5,a2,4
    800065f8:	00fe02b3          	add	t0,t3,a5
    800065fc:	fea28fa3          	sb	a0,-1(t0)
    80006600:	0216d333          	divu	t1,a3,ra
    80006604:	d416e2e3          	bltu	a3,ra,80006348 <_vsnprintf+0x1260>
    80006608:	021377b3          	remu	a5,t1,ra
    8000660c:	0ff7ff93          	andi	t6,a5,255
    80006610:	50fd7263          	bgeu	s10,a5,80006b14 <_vsnprintf+0x1a2c>
    80006614:	01ff06bb          	addw	a3,t5,t6
    80006618:	0ff6f993          	andi	s3,a3,255
    8000661c:	00560793          	addi	a5,a2,5
    80006620:	00fe0633          	add	a2,t3,a5
    80006624:	ff360fa3          	sb	s3,-1(a2)
    80006628:	02135eb3          	divu	t4,t1,ra
    8000662c:	f0137ae3          	bgeu	t1,ra,80006540 <_vsnprintf+0x1458>
    80006630:	d19ff06f          	j	80006348 <_vsnprintf+0x1260>
    80006634:	01df853b          	addw	a0,t6,t4
    80006638:	0ff57393          	andi	t2,a0,255
    8000663c:	dd9ff06f          	j	80006414 <_vsnprintf+0x132c>
    80006640:	03068e93          	addi	t4,a3,48
    80006644:	df9ff06f          	j	8000643c <_vsnprintf+0x1354>
    80006648:	03098d13          	addi	s10,s3,48
    8000664c:	e19ff06f          	j	80006464 <_vsnprintf+0x137c>
    80006650:	030e8993          	addi	s3,t4,48
    80006654:	e39ff06f          	j	8000648c <_vsnprintf+0x13a4>
    80006658:	019f02bb          	addw	t0,t5,s9
    8000665c:	0ff2f313          	andi	t1,t0,255
    80006660:	ef1ff06f          	j	80006550 <_vsnprintf+0x1468>
    80006664:	03068513          	addi	a0,a3,48
    80006668:	e4dff06f          	j	800064b4 <_vsnprintf+0x13cc>
    8000666c:	0205fd13          	andi	s10,a1,32
    80006670:	06100513          	li	a0,97
    80006674:	000d0463          	beqz	s10,8000667c <_vsnprintf+0x1594>
    80006678:	04100513          	li	a0,65
    8000667c:	02167cb3          	remu	s9,a2,ra
    80006680:	00900693          	li	a3,9
    80006684:	05010e13          	addi	t3,sp,80
    80006688:	ff650f1b          	addiw	t5,a0,-10
    8000668c:	02000293          	li	t0,32
    80006690:	0ffcf813          	andi	a6,s9,255
    80006694:	6996e263          	bltu	a3,s9,80006d18 <_vsnprintf+0x1c30>
    80006698:	03080393          	addi	t2,a6,48
    8000669c:	007e0023          	sb	t2,0(t3)
    800066a0:	02165533          	divu	a0,a2,ra
    800066a4:	00100793          	li	a5,1
    800066a8:	fc166e63          	bltu	a2,ra,80005e84 <_vsnprintf+0xd9c>
    800066ac:	021579b3          	remu	s3,a0,ra
    800066b0:	0ff9f613          	andi	a2,s3,255
    800066b4:	0f36e663          	bltu	a3,s3,800067a0 <_vsnprintf+0x16b8>
    800066b8:	03060e93          	addi	t4,a2,48
    800066bc:	00178d13          	addi	s10,a5,1
    800066c0:	01ae07b3          	add	a5,t3,s10
    800066c4:	ffd78fa3          	sb	t4,-1(a5)
    800066c8:	02155cb3          	divu	s9,a0,ra
    800066cc:	000d0793          	mv	a5,s10
    800066d0:	fa156a63          	bltu	a0,ra,80005e84 <_vsnprintf+0xd9c>
    800066d4:	fa5d0863          	beq	s10,t0,80005e84 <_vsnprintf+0xd9c>
    800066d8:	021cf533          	remu	a0,s9,ra
    800066dc:	0ff57813          	andi	a6,a0,255
    800066e0:	0ca6e663          	bltu	a3,a0,800067ac <_vsnprintf+0x16c4>
    800066e4:	03080993          	addi	s3,a6,48
    800066e8:	001d0793          	addi	a5,s10,1
    800066ec:	00fe03b3          	add	t2,t3,a5
    800066f0:	ff338fa3          	sb	s3,-1(t2)
    800066f4:	021cd633          	divu	a2,s9,ra
    800066f8:	f81ce663          	bltu	s9,ra,80005e84 <_vsnprintf+0xd9c>
    800066fc:	02167333          	remu	t1,a2,ra
    80006700:	0ff37e93          	andi	t4,t1,255
    80006704:	2266f863          	bgeu	a3,t1,80006934 <_vsnprintf+0x184c>
    80006708:	01df07bb          	addw	a5,t5,t4
    8000670c:	0ff7fc93          	andi	s9,a5,255
    80006710:	002d0793          	addi	a5,s10,2
    80006714:	00fe0533          	add	a0,t3,a5
    80006718:	ff950fa3          	sb	s9,-1(a0)
    8000671c:	02165fb3          	divu	t6,a2,ra
    80006720:	f6166263          	bltu	a2,ra,80005e84 <_vsnprintf+0xd9c>
    80006724:	021ff9b3          	remu	s3,t6,ra
    80006728:	0ff9f813          	andi	a6,s3,255
    8000672c:	2336f263          	bgeu	a3,s3,80006950 <_vsnprintf+0x1868>
    80006730:	010f03bb          	addw	t2,t5,a6
    80006734:	0ff3f613          	andi	a2,t2,255
    80006738:	003d0793          	addi	a5,s10,3
    8000673c:	00fe0333          	add	t1,t3,a5
    80006740:	fec30fa3          	sb	a2,-1(t1)
    80006744:	021fdeb3          	divu	t4,t6,ra
    80006748:	f21fee63          	bltu	t6,ra,80005e84 <_vsnprintf+0xd9c>
    8000674c:	021ef7b3          	remu	a5,t4,ra
    80006750:	0ff7fc93          	andi	s9,a5,255
    80006754:	20f6f263          	bgeu	a3,a5,80006958 <_vsnprintf+0x1870>
    80006758:	019f053b          	addw	a0,t5,s9
    8000675c:	0ff57993          	andi	s3,a0,255
    80006760:	004d0793          	addi	a5,s10,4
    80006764:	00fe0fb3          	add	t6,t3,a5
    80006768:	ff3f8fa3          	sb	s3,-1(t6)
    8000676c:	021ed3b3          	divu	t2,t4,ra
    80006770:	f01eea63          	bltu	t4,ra,80005e84 <_vsnprintf+0xd9c>
    80006774:	0213f633          	remu	a2,t2,ra
    80006778:	0ff67813          	andi	a6,a2,255
    8000677c:	36c6f863          	bgeu	a3,a2,80006aec <_vsnprintf+0x1a04>
    80006780:	010f033b          	addw	t1,t5,a6
    80006784:	0ff37e93          	andi	t4,t1,255
    80006788:	005d0793          	addi	a5,s10,5
    8000678c:	00fe0d33          	add	s10,t3,a5
    80006790:	ffdd0fa3          	sb	t4,-1(s10)
    80006794:	0213d533          	divu	a0,t2,ra
    80006798:	f013fae3          	bgeu	t2,ra,800066ac <_vsnprintf+0x15c4>
    8000679c:	ee8ff06f          	j	80005e84 <_vsnprintf+0xd9c>
    800067a0:	00cf033b          	addw	t1,t5,a2
    800067a4:	0ff37e93          	andi	t4,t1,255
    800067a8:	f15ff06f          	j	800066bc <_vsnprintf+0x15d4>
    800067ac:	010f0fbb          	addw	t6,t5,a6
    800067b0:	0ffff993          	andi	s3,t6,255
    800067b4:	f35ff06f          	j	800066e8 <_vsnprintf+0x1600>
    800067b8:	0009bc83          	ld	s9,0(s3)
    800067bc:	000c9a63          	bnez	s9,800067d0 <_vsnprintf+0x16e8>
    800067c0:	fef5f993          	andi	s3,a1,-17
    800067c4:	4005f813          	andi	a6,a1,1024
    800067c8:	0009859b          	sext.w	a1,s3
    800067cc:	ea081863          	bnez	a6,80005e7c <_vsnprintf+0xd94>
    800067d0:	0205fe93          	andi	t4,a1,32
    800067d4:	06100293          	li	t0,97
    800067d8:	000e8463          	beqz	t4,800067e0 <_vsnprintf+0x16f8>
    800067dc:	04100293          	li	t0,65
    800067e0:	021cffb3          	remu	t6,s9,ra
    800067e4:	00900d13          	li	s10,9
    800067e8:	05010e13          	addi	t3,sp,80
    800067ec:	ff62869b          	addiw	a3,t0,-10
    800067f0:	02000f13          	li	t5,32
    800067f4:	0ffff613          	andi	a2,t6,255
    800067f8:	59fd6263          	bltu	s10,t6,80006d7c <_vsnprintf+0x1c94>
    800067fc:	03060793          	addi	a5,a2,48
    80006800:	00fe0023          	sb	a5,0(t3)
    80006804:	021cd633          	divu	a2,s9,ra
    80006808:	00100793          	li	a5,1
    8000680c:	e61cec63          	bltu	s9,ra,80005e84 <_vsnprintf+0xd9c>
    80006810:	02167533          	remu	a0,a2,ra
    80006814:	0ff57313          	andi	t1,a0,255
    80006818:	2cad6e63          	bltu	s10,a0,80006af4 <_vsnprintf+0x1a0c>
    8000681c:	03030993          	addi	s3,t1,48
    80006820:	00178e93          	addi	t4,a5,1
    80006824:	01de02b3          	add	t0,t3,t4
    80006828:	ff328fa3          	sb	s3,-1(t0)
    8000682c:	02165fb3          	divu	t6,a2,ra
    80006830:	000e8793          	mv	a5,t4
    80006834:	e4166863          	bltu	a2,ra,80005e84 <_vsnprintf+0xd9c>
    80006838:	e5ee8663          	beq	t4,t5,80005e84 <_vsnprintf+0xd9c>
    8000683c:	021ff633          	remu	a2,t6,ra
    80006840:	0ff67813          	andi	a6,a2,255
    80006844:	2ccd6263          	bltu	s10,a2,80006b08 <_vsnprintf+0x1a20>
    80006848:	03080513          	addi	a0,a6,48
    8000684c:	001e8793          	addi	a5,t4,1
    80006850:	00fe0333          	add	t1,t3,a5
    80006854:	fea30fa3          	sb	a0,-1(t1)
    80006858:	021fdcb3          	divu	s9,t6,ra
    8000685c:	e21fe463          	bltu	t6,ra,80005e84 <_vsnprintf+0xd9c>
    80006860:	021cf7b3          	remu	a5,s9,ra
    80006864:	0ff7f993          	andi	s3,a5,255
    80006868:	2afd7a63          	bgeu	s10,a5,80006b1c <_vsnprintf+0x1a34>
    8000686c:	013682bb          	addw	t0,a3,s3
    80006870:	0ff2f613          	andi	a2,t0,255
    80006874:	002e8793          	addi	a5,t4,2
    80006878:	00fe0fb3          	add	t6,t3,a5
    8000687c:	fecf8fa3          	sb	a2,-1(t6)
    80006880:	021cd333          	divu	t1,s9,ra
    80006884:	e01ce063          	bltu	s9,ra,80005e84 <_vsnprintf+0xd9c>
    80006888:	021373b3          	remu	t2,t1,ra
    8000688c:	0ff3f813          	andi	a6,t2,255
    80006890:	2a7d7a63          	bgeu	s10,t2,80006b44 <_vsnprintf+0x1a5c>
    80006894:	0106853b          	addw	a0,a3,a6
    80006898:	0ff57c93          	andi	s9,a0,255
    8000689c:	003e8793          	addi	a5,t4,3
    800068a0:	00fe09b3          	add	s3,t3,a5
    800068a4:	ff998fa3          	sb	s9,-1(s3)
    800068a8:	021352b3          	divu	t0,t1,ra
    800068ac:	dc136c63          	bltu	t1,ra,80005e84 <_vsnprintf+0xd9c>
    800068b0:	0212f7b3          	remu	a5,t0,ra
    800068b4:	0ff7f613          	andi	a2,a5,255
    800068b8:	28fd7263          	bgeu	s10,a5,80006b3c <_vsnprintf+0x1a54>
    800068bc:	00c68fbb          	addw	t6,a3,a2
    800068c0:	0ffff313          	andi	t1,t6,255
    800068c4:	004e8793          	addi	a5,t4,4
    800068c8:	00fe03b3          	add	t2,t3,a5
    800068cc:	fe638fa3          	sb	t1,-1(t2)
    800068d0:	0212dcb3          	divu	s9,t0,ra
    800068d4:	da12e863          	bltu	t0,ra,80005e84 <_vsnprintf+0xd9c>
    800068d8:	021cf533          	remu	a0,s9,ra
    800068dc:	0ff57813          	andi	a6,a0,255
    800068e0:	2cad7c63          	bgeu	s10,a0,80006bb8 <_vsnprintf+0x1ad0>
    800068e4:	010689bb          	addw	s3,a3,a6
    800068e8:	0ff9f293          	andi	t0,s3,255
    800068ec:	005e8793          	addi	a5,t4,5
    800068f0:	00fe0eb3          	add	t4,t3,a5
    800068f4:	fe5e8fa3          	sb	t0,-1(t4)
    800068f8:	021cd633          	divu	a2,s9,ra
    800068fc:	f01cfae3          	bgeu	s9,ra,80006810 <_vsnprintf+0x1728>
    80006900:	d84ff06f          	j	80005e84 <_vsnprintf+0xd9c>
    80006904:	00800093          	li	ra,8
    80006908:	00800893          	li	a7,8
    8000690c:	00080593          	mv	a1,a6
    80006910:	4005f693          	andi	a3,a1,1024
    80006914:	06400813          	li	a6,100
    80006918:	00058f93          	mv	t6,a1
    8000691c:	00068e9b          	sext.w	t4,a3
    80006920:	49031e63          	bne	t1,a6,80006dbc <_vsnprintf+0x1cd4>
    80006924:	9c0e90e3          	bnez	t4,800062e4 <_vsnprintf+0x11fc>
    80006928:	200ff293          	andi	t0,t6,512
    8000692c:	00028e1b          	sext.w	t3,t0
    80006930:	9d5ff06f          	j	80006304 <_vsnprintf+0x121c>
    80006934:	030e8c93          	addi	s9,t4,48
    80006938:	dd9ff06f          	j	80006710 <_vsnprintf+0x1628>
    8000693c:	01df09bb          	addw	s3,t5,t4
    80006940:	0ff9f513          	andi	a0,s3,255
    80006944:	c39ff06f          	j	8000657c <_vsnprintf+0x1494>
    80006948:	030f8e93          	addi	t4,t6,48
    8000694c:	c59ff06f          	j	800065a4 <_vsnprintf+0x14bc>
    80006950:	03080613          	addi	a2,a6,48
    80006954:	de5ff06f          	j	80006738 <_vsnprintf+0x1650>
    80006958:	030c8993          	addi	s3,s9,48
    8000695c:	e05ff06f          	j	80006760 <_vsnprintf+0x1678>
    80006960:	0009be03          	ld	t3,0(s3)
    80006964:	43fe5813          	srai	a6,t3,0x3f
    80006968:	01c84f33          	xor	t5,a6,t3
    8000696c:	410f0333          	sub	t1,t5,a6
    80006970:	03fe5813          	srli	a6,t3,0x3f
    80006974:	000e1a63          	bnez	t3,80006988 <_vsnprintf+0x18a0>
    80006978:	fefd7593          	andi	a1,s10,-17
    8000697c:	400d7f93          	andi	t6,s10,1024
    80006980:	0005859b          	sext.w	a1,a1
    80006984:	9a0f9ee3          	bnez	t6,80006340 <_vsnprintf+0x1258>
    80006988:	0205f393          	andi	t2,a1,32
    8000698c:	06100993          	li	s3,97
    80006990:	00038463          	beqz	t2,80006998 <_vsnprintf+0x18b0>
    80006994:	04100993          	li	s3,65
    80006998:	02137d33          	remu	s10,t1,ra
    8000699c:	00900693          	li	a3,9
    800069a0:	05010e13          	addi	t3,sp,80
    800069a4:	ff698c9b          	addiw	s9,s3,-10
    800069a8:	02000293          	li	t0,32
    800069ac:	0ffd7793          	andi	a5,s10,255
    800069b0:	3da6ec63          	bltu	a3,s10,80006d88 <_vsnprintf+0x1ca0>
    800069b4:	03078613          	addi	a2,a5,48
    800069b8:	00ce0023          	sb	a2,0(t3)
    800069bc:	02135f33          	divu	t5,t1,ra
    800069c0:	00100793          	li	a5,1
    800069c4:	981362e3          	bltu	t1,ra,80006348 <_vsnprintf+0x1260>
    800069c8:	021f7eb3          	remu	t4,t5,ra
    800069cc:	0ffef313          	andi	t1,t4,255
    800069d0:	15d6ea63          	bltu	a3,t4,80006b24 <_vsnprintf+0x1a3c>
    800069d4:	03030393          	addi	t2,t1,48
    800069d8:	00178d13          	addi	s10,a5,1
    800069dc:	01ae09b3          	add	s3,t3,s10
    800069e0:	fe798fa3          	sb	t2,-1(s3)
    800069e4:	021f5633          	divu	a2,t5,ra
    800069e8:	000d0793          	mv	a5,s10
    800069ec:	941f6ee3          	bltu	t5,ra,80006348 <_vsnprintf+0x1260>
    800069f0:	945d0ce3          	beq	s10,t0,80006348 <_vsnprintf+0x1260>
    800069f4:	021677b3          	remu	a5,a2,ra
    800069f8:	0ff7ff13          	andi	t5,a5,255
    800069fc:	14f6e863          	bltu	a3,a5,80006b4c <_vsnprintf+0x1a64>
    80006a00:	030f0e93          	addi	t4,t5,48
    80006a04:	001d0793          	addi	a5,s10,1
    80006a08:	00fe0333          	add	t1,t3,a5
    80006a0c:	ffd30fa3          	sb	t4,-1(t1)
    80006a10:	02165fb3          	divu	t6,a2,ra
    80006a14:	92166ae3          	bltu	a2,ra,80006348 <_vsnprintf+0x1260>
    80006a18:	021ff3b3          	remu	t2,t6,ra
    80006a1c:	0ff3f993          	andi	s3,t2,255
    80006a20:	1a76f463          	bgeu	a3,t2,80006bc8 <_vsnprintf+0x1ae0>
    80006a24:	013c863b          	addw	a2,s9,s3
    80006a28:	0ff67f13          	andi	t5,a2,255
    80006a2c:	002d0793          	addi	a5,s10,2
    80006a30:	00fe0533          	add	a0,t3,a5
    80006a34:	ffe50fa3          	sb	t5,-1(a0)
    80006a38:	021fdeb3          	divu	t4,t6,ra
    80006a3c:	901fe6e3          	bltu	t6,ra,80006348 <_vsnprintf+0x1260>
    80006a40:	021ef7b3          	remu	a5,t4,ra
    80006a44:	0ff7f313          	andi	t1,a5,255
    80006a48:	16f6fc63          	bgeu	a3,a5,80006bc0 <_vsnprintf+0x1ad8>
    80006a4c:	006c8fbb          	addw	t6,s9,t1
    80006a50:	0ffff393          	andi	t2,t6,255
    80006a54:	003d0793          	addi	a5,s10,3
    80006a58:	00fe09b3          	add	s3,t3,a5
    80006a5c:	fe798fa3          	sb	t2,-1(s3)
    80006a60:	021ed633          	divu	a2,t4,ra
    80006a64:	8e1ee2e3          	bltu	t4,ra,80006348 <_vsnprintf+0x1260>
    80006a68:	02167533          	remu	a0,a2,ra
    80006a6c:	0ff57f13          	andi	t5,a0,255
    80006a70:	16a6f063          	bgeu	a3,a0,80006bd0 <_vsnprintf+0x1ae8>
    80006a74:	01ec8ebb          	addw	t4,s9,t5
    80006a78:	0ffef313          	andi	t1,t4,255
    80006a7c:	004d0793          	addi	a5,s10,4
    80006a80:	00fe0fb3          	add	t6,t3,a5
    80006a84:	fe6f8fa3          	sb	t1,-1(t6)
    80006a88:	021653b3          	divu	t2,a2,ra
    80006a8c:	8a166ee3          	bltu	a2,ra,80006348 <_vsnprintf+0x1260>
    80006a90:	0213f7b3          	remu	a5,t2,ra
    80006a94:	0ff7f993          	andi	s3,a5,255
    80006a98:	28f6fc63          	bgeu	a3,a5,80006d30 <_vsnprintf+0x1c48>
    80006a9c:	013c863b          	addw	a2,s9,s3
    80006aa0:	0ff67513          	andi	a0,a2,255
    80006aa4:	005d0793          	addi	a5,s10,5
    80006aa8:	00fe0d33          	add	s10,t3,a5
    80006aac:	fead0fa3          	sb	a0,-1(s10)
    80006ab0:	0213df33          	divu	t5,t2,ra
    80006ab4:	f013fae3          	bgeu	t2,ra,800069c8 <_vsnprintf+0x18e0>
    80006ab8:	891ff06f          	j	80006348 <_vsnprintf+0x1260>
    80006abc:	03050313          	addi	t1,a0,48
    80006ac0:	b0dff06f          	j	800065cc <_vsnprintf+0x14e4>
    80006ac4:	080d7793          	andi	a5,s10,128
    80006ac8:	28078263          	beqz	a5,80006d4c <_vsnprintf+0x1c64>
    80006acc:	010f1c9b          	slliw	s9,t5,0x10
    80006ad0:	410cdf1b          	sraiw	t5,s9,0x10
    80006ad4:	40ff551b          	sraiw	a0,t5,0xf
    80006ad8:	00af4833          	xor	a6,t5,a0
    80006adc:	40a809bb          	subw	s3,a6,a0
    80006ae0:	03099293          	slli	t0,s3,0x30
    80006ae4:	0302d393          	srli	t2,t0,0x30
    80006ae8:	841ff06f          	j	80006328 <_vsnprintf+0x1240>
    80006aec:	03080e93          	addi	t4,a6,48
    80006af0:	c99ff06f          	j	80006788 <_vsnprintf+0x16a0>
    80006af4:	00668cbb          	addw	s9,a3,t1
    80006af8:	0ffcf993          	andi	s3,s9,255
    80006afc:	d25ff06f          	j	80006820 <_vsnprintf+0x1738>
    80006b00:	030e8513          	addi	a0,t4,48
    80006b04:	af1ff06f          	j	800065f4 <_vsnprintf+0x150c>
    80006b08:	010683bb          	addw	t2,a3,a6
    80006b0c:	0ff3f513          	andi	a0,t2,255
    80006b10:	d3dff06f          	j	8000684c <_vsnprintf+0x1764>
    80006b14:	030f8993          	addi	s3,t6,48
    80006b18:	b05ff06f          	j	8000661c <_vsnprintf+0x1534>
    80006b1c:	03098613          	addi	a2,s3,48
    80006b20:	d55ff06f          	j	80006874 <_vsnprintf+0x178c>
    80006b24:	006c8fbb          	addw	t6,s9,t1
    80006b28:	0ffff393          	andi	t2,t6,255
    80006b2c:	eadff06f          	j	800069d8 <_vsnprintf+0x18f0>
    80006b30:	00200093          	li	ra,2
    80006b34:	00200893          	li	a7,2
    80006b38:	dd5ff06f          	j	8000690c <_vsnprintf+0x1824>
    80006b3c:	03060313          	addi	t1,a2,48
    80006b40:	d85ff06f          	j	800068c4 <_vsnprintf+0x17dc>
    80006b44:	03080c93          	addi	s9,a6,48
    80006b48:	d55ff06f          	j	8000689c <_vsnprintf+0x17b4>
    80006b4c:	01ec853b          	addw	a0,s9,t5
    80006b50:	0ff57e93          	andi	t4,a0,255
    80006b54:	eb1ff06f          	j	80006a04 <_vsnprintf+0x191c>
    80006b58:	00ff8cbb          	addw	s9,t6,a5
    80006b5c:	0ffcf513          	andi	a0,s9,255
    80006b60:	869ff06f          	j	800063c8 <_vsnprintf+0x12e0>
    80006b64:	0802ff13          	andi	t5,t0,128
    80006b68:	0009a783          	lw	a5,0(s3)
    80006b6c:	ae0f0a63          	beqz	t5,80005e60 <_vsnprintf+0xd78>
    80006b70:	02813983          	ld	s3,40(sp)
    80006b74:	00f9f7b3          	and	a5,s3,a5
    80006b78:	ae8ff06f          	j	80005e60 <_vsnprintf+0xd78>
    80006b7c:	0009b683          	ld	a3,0(s3)
    80006b80:	04069c63          	bnez	a3,80006bd8 <_vsnprintf+0x1af0>
    80006b84:	fef2f593          	andi	a1,t0,-17
    80006b88:	4002fe13          	andi	t3,t0,1024
    80006b8c:	0005859b          	sext.w	a1,a1
    80006b90:	040e0463          	beqz	t3,80006bd8 <_vsnprintf+0x1af0>
    80006b94:	00000793          	li	a5,0
    80006b98:	05010993          	addi	s3,sp,80
    80006b9c:	00e13023          	sd	a4,0(sp)
    80006ba0:	000d8613          	mv	a2,s11
    80006ba4:	00b13823          	sd	a1,16(sp)
    80006ba8:	01513423          	sd	s5,8(sp)
    80006bac:	00000813          	li	a6,0
    80006bb0:	00098713          	mv	a4,s3
    80006bb4:	ae8ff06f          	j	80005e9c <_vsnprintf+0xdb4>
    80006bb8:	03080293          	addi	t0,a6,48
    80006bbc:	d31ff06f          	j	800068ec <_vsnprintf+0x1804>
    80006bc0:	03030393          	addi	t2,t1,48
    80006bc4:	e91ff06f          	j	80006a54 <_vsnprintf+0x196c>
    80006bc8:	03098f13          	addi	t5,s3,48
    80006bcc:	e61ff06f          	j	80006a2c <_vsnprintf+0x1944>
    80006bd0:	030f0313          	addi	t1,t5,48
    80006bd4:	ea9ff06f          	j	80006a7c <_vsnprintf+0x1994>
    80006bd8:	0205ff13          	andi	t5,a1,32
    80006bdc:	06100293          	li	t0,97
    80006be0:	000f0463          	beqz	t5,80006be8 <_vsnprintf+0x1b00>
    80006be4:	04100293          	li	t0,65
    80006be8:	0216f7b3          	remu	a5,a3,ra
    80006bec:	00900c93          	li	s9,9
    80006bf0:	05010993          	addi	s3,sp,80
    80006bf4:	ff62881b          	addiw	a6,t0,-10
    80006bf8:	02000e93          	li	t4,32
    80006bfc:	0ff7ff93          	andi	t6,a5,255
    80006c00:	18fcea63          	bltu	s9,a5,80006d94 <_vsnprintf+0x1cac>
    80006c04:	030f8613          	addi	a2,t6,48
    80006c08:	00c98023          	sb	a2,0(s3)
    80006c0c:	0216d333          	divu	t1,a3,ra
    80006c10:	00100793          	li	a5,1
    80006c14:	f816e4e3          	bltu	a3,ra,80006b9c <_vsnprintf+0x1ab4>
    80006c18:	02137d33          	remu	s10,t1,ra
    80006c1c:	0ffd7513          	andi	a0,s10,255
    80006c20:	0face663          	bltu	s9,s10,80006d0c <_vsnprintf+0x1c24>
    80006c24:	03050e13          	addi	t3,a0,48
    80006c28:	00178f13          	addi	t5,a5,1
    80006c2c:	01e982b3          	add	t0,s3,t5
    80006c30:	ffc28fa3          	sb	t3,-1(t0)
    80006c34:	02135fb3          	divu	t6,t1,ra
    80006c38:	000f0793          	mv	a5,t5
    80006c3c:	f61360e3          	bltu	t1,ra,80006b9c <_vsnprintf+0x1ab4>
    80006c40:	f5df0ee3          	beq	t5,t4,80006b9c <_vsnprintf+0x1ab4>
    80006c44:	021ff7b3          	remu	a5,t6,ra
    80006c48:	0ff7f313          	andi	t1,a5,255
    80006c4c:	0efce663          	bltu	s9,a5,80006d38 <_vsnprintf+0x1c50>
    80006c50:	03030613          	addi	a2,t1,48
    80006c54:	001f0793          	addi	a5,t5,1
    80006c58:	00f98d33          	add	s10,s3,a5
    80006c5c:	fecd0fa3          	sb	a2,-1(s10)
    80006c60:	021fd6b3          	divu	a3,t6,ra
    80006c64:	f21fece3          	bltu	t6,ra,80006b9c <_vsnprintf+0x1ab4>
    80006c68:	0216f533          	remu	a0,a3,ra
    80006c6c:	0ff57e13          	andi	t3,a0,255
    80006c70:	0cacfa63          	bgeu	s9,a0,80006d44 <_vsnprintf+0x1c5c>
    80006c74:	01c802bb          	addw	t0,a6,t3
    80006c78:	0ff2f313          	andi	t1,t0,255
    80006c7c:	002f0793          	addi	a5,t5,2
    80006c80:	00f98fb3          	add	t6,s3,a5
    80006c84:	fe6f8fa3          	sb	t1,-1(t6)
    80006c88:	0216d633          	divu	a2,a3,ra
    80006c8c:	f016e8e3          	bltu	a3,ra,80006b9c <_vsnprintf+0x1ab4>
    80006c90:	021677b3          	remu	a5,a2,ra
    80006c94:	0ff7f393          	andi	t2,a5,255
    80006c98:	0cfcf263          	bgeu	s9,a5,80006d5c <_vsnprintf+0x1c74>
    80006c9c:	00780d3b          	addw	s10,a6,t2
    80006ca0:	0ffd7693          	andi	a3,s10,255
    80006ca4:	003f0793          	addi	a5,t5,3
    80006ca8:	00f98533          	add	a0,s3,a5
    80006cac:	fed50fa3          	sb	a3,-1(a0)
    80006cb0:	02165e33          	divu	t3,a2,ra
    80006cb4:	ee1664e3          	bltu	a2,ra,80006b9c <_vsnprintf+0x1ab4>
    80006cb8:	021e72b3          	remu	t0,t3,ra
    80006cbc:	0ff2f313          	andi	t1,t0,255
    80006cc0:	0a5cf263          	bgeu	s9,t0,80006d64 <_vsnprintf+0x1c7c>
    80006cc4:	00680fbb          	addw	t6,a6,t1
    80006cc8:	0ffff613          	andi	a2,t6,255
    80006ccc:	004f0793          	addi	a5,t5,4
    80006cd0:	00f983b3          	add	t2,s3,a5
    80006cd4:	fec38fa3          	sb	a2,-1(t2)
    80006cd8:	021e5d33          	divu	s10,t3,ra
    80006cdc:	ec1e60e3          	bltu	t3,ra,80006b9c <_vsnprintf+0x1ab4>
    80006ce0:	021d77b3          	remu	a5,s10,ra
    80006ce4:	0ff7f693          	andi	a3,a5,255
    80006ce8:	08fcf663          	bgeu	s9,a5,80006d74 <_vsnprintf+0x1c8c>
    80006cec:	00d8053b          	addw	a0,a6,a3
    80006cf0:	0ff57e13          	andi	t3,a0,255
    80006cf4:	005f0793          	addi	a5,t5,5
    80006cf8:	00f98f33          	add	t5,s3,a5
    80006cfc:	ffcf0fa3          	sb	t3,-1(t5)
    80006d00:	021d5333          	divu	t1,s10,ra
    80006d04:	f01d7ae3          	bgeu	s10,ra,80006c18 <_vsnprintf+0x1b30>
    80006d08:	e95ff06f          	j	80006b9c <_vsnprintf+0x1ab4>
    80006d0c:	00a806bb          	addw	a3,a6,a0
    80006d10:	0ff6fe13          	andi	t3,a3,255
    80006d14:	f15ff06f          	j	80006c28 <_vsnprintf+0x1b40>
    80006d18:	010f0fbb          	addw	t6,t5,a6
    80006d1c:	0ffff393          	andi	t2,t6,255
    80006d20:	97dff06f          	j	8000669c <_vsnprintf+0x15b4>
    80006d24:	013f063b          	addw	a2,t5,s3
    80006d28:	0ff67513          	andi	a0,a2,255
    80006d2c:	805ff06f          	j	80006530 <_vsnprintf+0x1448>
    80006d30:	03098513          	addi	a0,s3,48
    80006d34:	d71ff06f          	j	80006aa4 <_vsnprintf+0x19bc>
    80006d38:	006803bb          	addw	t2,a6,t1
    80006d3c:	0ff3f613          	andi	a2,t2,255
    80006d40:	f15ff06f          	j	80006c54 <_vsnprintf+0x1b6c>
    80006d44:	030e0313          	addi	t1,t3,48
    80006d48:	f35ff06f          	j	80006c7c <_vsnprintf+0x1b94>
    80006d4c:	41ff5f9b          	sraiw	t6,t5,0x1f
    80006d50:	01ff4333          	xor	t1,t5,t6
    80006d54:	41f303bb          	subw	t2,t1,t6
    80006d58:	dd0ff06f          	j	80006328 <_vsnprintf+0x1240>
    80006d5c:	03038693          	addi	a3,t2,48
    80006d60:	f45ff06f          	j	80006ca4 <_vsnprintf+0x1bbc>
    80006d64:	03030613          	addi	a2,t1,48
    80006d68:	f65ff06f          	j	80006ccc <_vsnprintf+0x1be4>
    80006d6c:	00000c93          	li	s9,0
    80006d70:	899fe06f          	j	80005608 <_vsnprintf+0x520>
    80006d74:	03068e13          	addi	t3,a3,48
    80006d78:	f7dff06f          	j	80006cf4 <_vsnprintf+0x1c0c>
    80006d7c:	00c683bb          	addw	t2,a3,a2
    80006d80:	0ff3f793          	andi	a5,t2,255
    80006d84:	a7dff06f          	j	80006800 <_vsnprintf+0x1718>
    80006d88:	00fc853b          	addw	a0,s9,a5
    80006d8c:	0ff57613          	andi	a2,a0,255
    80006d90:	c29ff06f          	j	800069b8 <_vsnprintf+0x18d0>
    80006d94:	01f803bb          	addw	t2,a6,t6
    80006d98:	0ff3f613          	andi	a2,t2,255
    80006d9c:	e6dff06f          	j	80006c08 <_vsnprintf+0x1b20>
    80006da0:	000d8c93          	mv	s9,s11
    80006da4:	000c0d93          	mv	s11,s8
    80006da8:	d04ff06f          	j	800062ac <_vsnprintf+0x11c4>
    80006dac:	000e0c93          	mv	s9,t3
    80006db0:	00050463          	beqz	a0,80006db8 <_vsnprintf+0x1cd0>
    80006db4:	885fe06f          	j	80005638 <_vsnprintf+0x550>
    80006db8:	b24ff06f          	j	800060dc <_vsnprintf+0xff4>
    80006dbc:	00058813          	mv	a6,a1
    80006dc0:	d18ff06f          	j	800062d8 <_vsnprintf+0x11f0>
    80006dc4:	00a00093          	li	ra,10
    80006dc8:	00a00893          	li	a7,10
    80006dcc:	b45ff06f          	j	80006910 <_vsnprintf+0x1828>

Disassembly of section .text.printf_:

0000000080006dd0 <printf_>:
    80006dd0:	fa010113          	addi	sp,sp,-96
    80006dd4:	02810313          	addi	t1,sp,40
    80006dd8:	02b13423          	sd	a1,40(sp)
    80006ddc:	02c13823          	sd	a2,48(sp)
    80006de0:	02d13c23          	sd	a3,56(sp)
    80006de4:	04e13023          	sd	a4,64(sp)
    80006de8:	00050693          	mv	a3,a0
    80006dec:	00010593          	mv	a1,sp
    80006df0:	00030713          	mv	a4,t1
    80006df4:	fff00613          	li	a2,-1
    80006df8:	ffffd517          	auipc	a0,0xffffd
    80006dfc:	40450513          	addi	a0,a0,1028 # 800041fc <_out_char>
    80006e00:	00113c23          	sd	ra,24(sp)
    80006e04:	04f13423          	sd	a5,72(sp)
    80006e08:	05013823          	sd	a6,80(sp)
    80006e0c:	05113c23          	sd	a7,88(sp)
    80006e10:	00613423          	sd	t1,8(sp)
    80006e14:	ad4fe0ef          	jal	ra,800050e8 <_vsnprintf>
    80006e18:	01813083          	ld	ra,24(sp)
    80006e1c:	06010113          	addi	sp,sp,96
    80006e20:	00008067          	ret
