
/home/bread/xs-env/nexus-am/apps/eh1cmark/build/eh1cmark-riscv64-nutshell.elf:     file format elf64-littleriscv


Disassembly of section .text:

0000000080000000 <_start>:
    80000000:	00000413          	li	s0,0
    80000004:	00013117          	auipc	sp,0x13
    80000008:	ffc10113          	addi	sp,sp,-4 # 80013000 <_end>
    8000000c:	238080ef          	jal	ra,80008244 <_trm_init>

0000000080000010 <cmp_idx>:
    80000010:	00060a63          	beqz	a2,80000024 <cmp_idx+0x14>
    80000014:	00251503          	lh	a0,2(a0)
    80000018:	00259583          	lh	a1,2(a1)
    8000001c:	40b5053b          	subw	a0,a0,a1
    80000020:	00008067          	ret
    80000024:	00051783          	lh	a5,0(a0)
    80000028:	0107971b          	slliw	a4,a5,0x10
    8000002c:	0107529b          	srliw	t0,a4,0x10
    80000030:	f007f313          	andi	t1,a5,-256
    80000034:	0082d39b          	srliw	t2,t0,0x8
    80000038:	00736633          	or	a2,t1,t2
    8000003c:	00c51023          	sh	a2,0(a0)
    80000040:	00059683          	lh	a3,0(a1)
    80000044:	00251503          	lh	a0,2(a0)
    80000048:	0106981b          	slliw	a6,a3,0x10
    8000004c:	0108589b          	srliw	a7,a6,0x10
    80000050:	f006fe13          	andi	t3,a3,-256
    80000054:	0088de9b          	srliw	t4,a7,0x8
    80000058:	01de6f33          	or	t5,t3,t4
    8000005c:	01e59023          	sh	t5,0(a1)
    80000060:	00259583          	lh	a1,2(a1)
    80000064:	40b5053b          	subw	a0,a0,a1
    80000068:	00008067          	ret

000000008000006c <copy_info>:
    8000006c:	00059703          	lh	a4,0(a1)
    80000070:	00259783          	lh	a5,2(a1)
    80000074:	00e51023          	sh	a4,0(a0)
    80000078:	00f51123          	sh	a5,2(a0)
    8000007c:	00008067          	ret

0000000080000080 <core_list_init>:
    80000080:	01400793          	li	a5,20
    80000084:	02f55ebb          	divuw	t4,a0,a5
    80000088:	ff010113          	addi	sp,sp,-16
    8000008c:	00813423          	sd	s0,8(sp)
    80000090:	ffff86b7          	lui	a3,0xffff8
    80000094:	0005b023          	sd	zero,0(a1)
    80000098:	08068813          	addi	a6,a3,128 # ffffffffffff8080 <_pmem_end+0xffffffff77ff8080>
    8000009c:	02058893          	addi	a7,a1,32
    800000a0:	00060313          	mv	t1,a2
    800000a4:	01058793          	addi	a5,a1,16
    800000a8:	ffee8e9b          	addiw	t4,t4,-2
    800000ac:	020e9713          	slli	a4,t4,0x20
    800000b0:	02075293          	srli	t0,a4,0x20
    800000b4:	00429513          	slli	a0,t0,0x4
    800000b8:	00a58533          	add	a0,a1,a0
    800000bc:	00a5b423          	sd	a0,8(a1)
    800000c0:	00229393          	slli	t2,t0,0x2
    800000c4:	01051023          	sh	a6,0(a0)
    800000c8:	00051123          	sh	zero,2(a0)
    800000cc:	000e8f9b          	sext.w	t6,t4
    800000d0:	00750833          	add	a6,a0,t2
    800000d4:	00450713          	addi	a4,a0,4
    800000d8:	4aa8f263          	bgeu	a7,a0,8000057c <core_list_init+0x4fc>
    800000dc:	00850613          	addi	a2,a0,8
    800000e0:	49067e63          	bgeu	a2,a6,8000057c <core_list_init+0x4fc>
    800000e4:	00f5b023          	sd	a5,0(a1)
    800000e8:	00e5bc23          	sd	a4,24(a1)
    800000ec:	0005b823          	sd	zero,16(a1)
    800000f0:	fff6c413          	not	s0,a3
    800000f4:	fff00e13          	li	t3,-1
    800000f8:	00078693          	mv	a3,a5
    800000fc:	01c51223          	sh	t3,4(a0)
    80000100:	00851323          	sh	s0,6(a0)
    80000104:	00060713          	mv	a4,a2
    80000108:	00088793          	mv	a5,a7
    8000010c:	220f8c63          	beqz	t6,80000344 <core_list_init+0x2c4>
    80000110:	03031f13          	slli	t5,t1,0x30
    80000114:	ffff82b7          	lui	t0,0xffff8
    80000118:	003ff893          	andi	a7,t6,3
    8000011c:	030f5f13          	srli	t5,t5,0x30
    80000120:	00000613          	li	a2,0
    80000124:	fff2ce13          	not	t3,t0
    80000128:	10088663          	beqz	a7,80000234 <core_list_init+0x1b4>
    8000012c:	00100393          	li	t2,1
    80000130:	0a788463          	beq	a7,t2,800001d8 <core_list_init+0x158>
    80000134:	00200413          	li	s0,2
    80000138:	04888463          	beq	a7,s0,80000180 <core_list_init+0x100>
    8000013c:	01078893          	addi	a7,a5,16
    80000140:	20a8f263          	bgeu	a7,a0,80000344 <core_list_init+0x2c4>
    80000144:	00470293          	addi	t0,a4,4
    80000148:	0302fa63          	bgeu	t0,a6,8000017c <core_list_init+0xfc>
    8000014c:	003f161b          	slliw	a2,t5,0x3
    80000150:	00d7b023          	sd	a3,0(a5)
    80000154:	07867693          	andi	a3,a2,120
    80000158:	00f5b023          	sd	a5,0(a1)
    8000015c:	0086939b          	slliw	t2,a3,0x8
    80000160:	00e7b423          	sd	a4,8(a5)
    80000164:	0076e433          	or	s0,a3,t2
    80000168:	00871023          	sh	s0,0(a4)
    8000016c:	01c71123          	sh	t3,2(a4)
    80000170:	00078693          	mv	a3,a5
    80000174:	00028713          	mv	a4,t0
    80000178:	00088793          	mv	a5,a7
    8000017c:	00100613          	li	a2,1
    80000180:	01078393          	addi	t2,a5,16
    80000184:	1ca3f063          	bgeu	t2,a0,80000344 <core_list_init+0x2c4>
    80000188:	00470413          	addi	s0,a4,4
    8000018c:	05047463          	bgeu	s0,a6,800001d4 <core_list_init+0x154>
    80000190:	03061893          	slli	a7,a2,0x30
    80000194:	0308d293          	srli	t0,a7,0x30
    80000198:	01e2c8b3          	xor	a7,t0,t5
    8000019c:	0038989b          	slliw	a7,a7,0x3
    800001a0:	0788f893          	andi	a7,a7,120
    800001a4:	0072f293          	andi	t0,t0,7
    800001a8:	00d7b023          	sd	a3,0(a5)
    800001ac:	0058e6b3          	or	a3,a7,t0
    800001b0:	00f5b023          	sd	a5,0(a1)
    800001b4:	0086989b          	slliw	a7,a3,0x8
    800001b8:	00e7b423          	sd	a4,8(a5)
    800001bc:	0116e2b3          	or	t0,a3,a7
    800001c0:	00571023          	sh	t0,0(a4)
    800001c4:	01c71123          	sh	t3,2(a4)
    800001c8:	00078693          	mv	a3,a5
    800001cc:	00040713          	mv	a4,s0
    800001d0:	00038793          	mv	a5,t2
    800001d4:	0016061b          	addiw	a2,a2,1
    800001d8:	01078393          	addi	t2,a5,16
    800001dc:	16a3f463          	bgeu	t2,a0,80000344 <core_list_init+0x2c4>
    800001e0:	00470413          	addi	s0,a4,4
    800001e4:	05047463          	bgeu	s0,a6,8000022c <core_list_init+0x1ac>
    800001e8:	03061893          	slli	a7,a2,0x30
    800001ec:	0308d293          	srli	t0,a7,0x30
    800001f0:	01e2c8b3          	xor	a7,t0,t5
    800001f4:	0038989b          	slliw	a7,a7,0x3
    800001f8:	0788f893          	andi	a7,a7,120
    800001fc:	0072f293          	andi	t0,t0,7
    80000200:	00d7b023          	sd	a3,0(a5)
    80000204:	0058e6b3          	or	a3,a7,t0
    80000208:	00f5b023          	sd	a5,0(a1)
    8000020c:	0086989b          	slliw	a7,a3,0x8
    80000210:	00e7b423          	sd	a4,8(a5)
    80000214:	0116e2b3          	or	t0,a3,a7
    80000218:	00571023          	sh	t0,0(a4)
    8000021c:	01c71123          	sh	t3,2(a4)
    80000220:	00078693          	mv	a3,a5
    80000224:	00040713          	mv	a4,s0
    80000228:	00038793          	mv	a5,t2
    8000022c:	0016061b          	addiw	a2,a2,1
    80000230:	10cf8a63          	beq	t6,a2,80000344 <core_list_init+0x2c4>
    80000234:	01078393          	addi	t2,a5,16
    80000238:	10a3f663          	bgeu	t2,a0,80000344 <core_list_init+0x2c4>
    8000023c:	00470413          	addi	s0,a4,4
    80000240:	05047463          	bgeu	s0,a6,80000288 <core_list_init+0x208>
    80000244:	03061893          	slli	a7,a2,0x30
    80000248:	0308d293          	srli	t0,a7,0x30
    8000024c:	01e2c8b3          	xor	a7,t0,t5
    80000250:	0038989b          	slliw	a7,a7,0x3
    80000254:	0788f893          	andi	a7,a7,120
    80000258:	0072f293          	andi	t0,t0,7
    8000025c:	00d7b023          	sd	a3,0(a5)
    80000260:	0058e6b3          	or	a3,a7,t0
    80000264:	00f5b023          	sd	a5,0(a1)
    80000268:	0086989b          	slliw	a7,a3,0x8
    8000026c:	00e7b423          	sd	a4,8(a5)
    80000270:	0116e2b3          	or	t0,a3,a7
    80000274:	00571023          	sh	t0,0(a4)
    80000278:	01c71123          	sh	t3,2(a4)
    8000027c:	00078693          	mv	a3,a5
    80000280:	00040713          	mv	a4,s0
    80000284:	00038793          	mv	a5,t2
    80000288:	01078393          	addi	t2,a5,16
    8000028c:	0016061b          	addiw	a2,a2,1
    80000290:	0aa3fa63          	bgeu	t2,a0,80000344 <core_list_init+0x2c4>
    80000294:	00470413          	addi	s0,a4,4
    80000298:	05047463          	bgeu	s0,a6,800002e0 <core_list_init+0x260>
    8000029c:	03061893          	slli	a7,a2,0x30
    800002a0:	0308d293          	srli	t0,a7,0x30
    800002a4:	01e2c8b3          	xor	a7,t0,t5
    800002a8:	0038989b          	slliw	a7,a7,0x3
    800002ac:	0788f893          	andi	a7,a7,120
    800002b0:	0072f293          	andi	t0,t0,7
    800002b4:	00d7b023          	sd	a3,0(a5)
    800002b8:	0058e6b3          	or	a3,a7,t0
    800002bc:	00f5b023          	sd	a5,0(a1)
    800002c0:	0086989b          	slliw	a7,a3,0x8
    800002c4:	00e7b423          	sd	a4,8(a5)
    800002c8:	0116e2b3          	or	t0,a3,a7
    800002cc:	00571023          	sh	t0,0(a4)
    800002d0:	01c71123          	sh	t3,2(a4)
    800002d4:	00078693          	mv	a3,a5
    800002d8:	00040713          	mv	a4,s0
    800002dc:	00038793          	mv	a5,t2
    800002e0:	01078393          	addi	t2,a5,16
    800002e4:	0016089b          	addiw	a7,a2,1
    800002e8:	04a3fe63          	bgeu	t2,a0,80000344 <core_list_init+0x2c4>
    800002ec:	00470413          	addi	s0,a4,4
    800002f0:	05047463          	bgeu	s0,a6,80000338 <core_list_init+0x2b8>
    800002f4:	03089613          	slli	a2,a7,0x30
    800002f8:	03065293          	srli	t0,a2,0x30
    800002fc:	01e2c633          	xor	a2,t0,t5
    80000300:	0036161b          	slliw	a2,a2,0x3
    80000304:	07867613          	andi	a2,a2,120
    80000308:	0072f293          	andi	t0,t0,7
    8000030c:	00d7b023          	sd	a3,0(a5)
    80000310:	005666b3          	or	a3,a2,t0
    80000314:	00f5b023          	sd	a5,0(a1)
    80000318:	0086961b          	slliw	a2,a3,0x8
    8000031c:	00e7b423          	sd	a4,8(a5)
    80000320:	00c6e2b3          	or	t0,a3,a2
    80000324:	00571023          	sh	t0,0(a4)
    80000328:	01c71123          	sh	t3,2(a4)
    8000032c:	00078693          	mv	a3,a5
    80000330:	00040713          	mv	a4,s0
    80000334:	00038793          	mv	a5,t2
    80000338:	01078393          	addi	t2,a5,16
    8000033c:	0018861b          	addiw	a2,a7,1
    80000340:	eaa3e0e3          	bltu	t2,a0,800001e0 <core_list_init+0x160>
    80000344:	0006b603          	ld	a2,0(a3)
    80000348:	06060c63          	beqz	a2,800003c0 <core_list_init+0x340>
    8000034c:	00500513          	li	a0,5
    80000350:	00004fb7          	lui	t6,0x4
    80000354:	02aedebb          	divuw	t4,t4,a0
    80000358:	00100713          	li	a4,1
    8000035c:	20000513          	li	a0,512
    80000360:	ffff8f13          	addi	t5,t6,-1 # 3fff <_start-0x7fffc001>
    80000364:	0280006f          	j	8000038c <core_list_init+0x30c>
    80000368:	00063283          	ld	t0,0(a2)
    8000036c:	10050f9b          	addiw	t6,a0,256
    80000370:	00e81123          	sh	a4,2(a6)
    80000374:	030f9813          	slli	a6,t6,0x30
    80000378:	0017071b          	addiw	a4,a4,1
    8000037c:	03085513          	srli	a0,a6,0x30
    80000380:	04028063          	beqz	t0,800003c0 <core_list_init+0x340>
    80000384:	00060693          	mv	a3,a2
    80000388:	00028613          	mv	a2,t0
    8000038c:	0086b803          	ld	a6,8(a3)
    80000390:	fdd76ce3          	bltu	a4,t4,80000368 <core_list_init+0x2e8>
    80000394:	00674e33          	xor	t3,a4,t1
    80000398:	70057893          	andi	a7,a0,1792
    8000039c:	00063283          	ld	t0,0(a2)
    800003a0:	011e6433          	or	s0,t3,a7
    800003a4:	1005079b          	addiw	a5,a0,256
    800003a8:	01e476b3          	and	a3,s0,t5
    800003ac:	03079393          	slli	t2,a5,0x30
    800003b0:	00d81123          	sh	a3,2(a6)
    800003b4:	0017071b          	addiw	a4,a4,1
    800003b8:	0303d513          	srli	a0,t2,0x30
    800003bc:	fc0294e3          	bnez	t0,80000384 <core_list_init+0x304>
    800003c0:	00100f93          	li	t6,1
    800003c4:	00000813          	li	a6,0
    800003c8:	00000513          	li	a0,0
    800003cc:	00000293          	li	t0,0
    800003d0:	00100393          	li	t2,1
    800003d4:	007ff313          	andi	t1,t6,7
    800003d8:	0012829b          	addiw	t0,t0,1 # ffffffffffff8001 <_pmem_end+0xffffffff77ff8001>
    800003dc:	00058793          	mv	a5,a1
    800003e0:	00000613          	li	a2,0
    800003e4:	08030663          	beqz	t1,80000470 <core_list_init+0x3f0>
    800003e8:	00100e93          	li	t4,1
    800003ec:	07d30a63          	beq	t1,t4,80000460 <core_list_init+0x3e0>
    800003f0:	00200f13          	li	t5,2
    800003f4:	07e30063          	beq	t1,t5,80000454 <core_list_init+0x3d4>
    800003f8:	00300e13          	li	t3,3
    800003fc:	05c30663          	beq	t1,t3,80000448 <core_list_init+0x3c8>
    80000400:	00400893          	li	a7,4
    80000404:	03130c63          	beq	t1,a7,8000043c <core_list_init+0x3bc>
    80000408:	00500413          	li	s0,5
    8000040c:	02830263          	beq	t1,s0,80000430 <core_list_init+0x3b0>
    80000410:	00600693          	li	a3,6
    80000414:	00d30863          	beq	t1,a3,80000424 <core_list_init+0x3a4>
    80000418:	0005b783          	ld	a5,0(a1)
    8000041c:	00100613          	li	a2,1
    80000420:	06078463          	beqz	a5,80000488 <core_list_init+0x408>
    80000424:	0007b783          	ld	a5,0(a5)
    80000428:	0016061b          	addiw	a2,a2,1
    8000042c:	04078e63          	beqz	a5,80000488 <core_list_init+0x408>
    80000430:	0007b783          	ld	a5,0(a5)
    80000434:	0016061b          	addiw	a2,a2,1
    80000438:	04078863          	beqz	a5,80000488 <core_list_init+0x408>
    8000043c:	0007b783          	ld	a5,0(a5)
    80000440:	0016061b          	addiw	a2,a2,1
    80000444:	04078263          	beqz	a5,80000488 <core_list_init+0x408>
    80000448:	0007b783          	ld	a5,0(a5)
    8000044c:	0016061b          	addiw	a2,a2,1
    80000450:	02078c63          	beqz	a5,80000488 <core_list_init+0x408>
    80000454:	0007b783          	ld	a5,0(a5)
    80000458:	0016061b          	addiw	a2,a2,1
    8000045c:	02078663          	beqz	a5,80000488 <core_list_init+0x408>
    80000460:	0007b783          	ld	a5,0(a5)
    80000464:	0016061b          	addiw	a2,a2,1
    80000468:	02078063          	beqz	a5,80000488 <core_list_init+0x408>
    8000046c:	00cf8e63          	beq	t6,a2,80000488 <core_list_init+0x408>
    80000470:	0007b783          	ld	a5,0(a5)
    80000474:	0016061b          	addiw	a2,a2,1
    80000478:	00078863          	beqz	a5,80000488 <core_list_init+0x408>
    8000047c:	0007b783          	ld	a5,0(a5)
    80000480:	0016061b          	addiw	a2,a2,1
    80000484:	fa0790e3          	bnez	a5,80000424 <core_list_init+0x3a4>
    80000488:	000f8693          	mv	a3,t6
    8000048c:	06060a63          	beqz	a2,80000500 <core_list_init+0x480>
    80000490:	08068a63          	beqz	a3,80000524 <core_list_init+0x4a4>
    80000494:	08078863          	beqz	a5,80000524 <core_list_init+0x4a4>
    80000498:	0085b303          	ld	t1,8(a1)
    8000049c:	0087b883          	ld	a7,8(a5)
    800004a0:	00031703          	lh	a4,0(t1)
    800004a4:	00289e83          	lh	t4,2(a7)
    800004a8:	00231f03          	lh	t5,2(t1)
    800004ac:	01071e1b          	slliw	t3,a4,0x10
    800004b0:	010e541b          	srliw	s0,t3,0x10
    800004b4:	f0077713          	andi	a4,a4,-256
    800004b8:	00845e1b          	srliw	t3,s0,0x8
    800004bc:	01c76433          	or	s0,a4,t3
    800004c0:	00831023          	sh	s0,0(t1)
    800004c4:	00089703          	lh	a4,0(a7)
    800004c8:	0107131b          	slliw	t1,a4,0x10
    800004cc:	01035e1b          	srliw	t3,t1,0x10
    800004d0:	f0077413          	andi	s0,a4,-256
    800004d4:	008e571b          	srliw	a4,t3,0x8
    800004d8:	00e46333          	or	t1,s0,a4
    800004dc:	00689023          	sh	t1,0(a7)
    800004e0:	05eed263          	bge	t4,t5,80000524 <core_list_init+0x4a4>
    800004e4:	00078893          	mv	a7,a5
    800004e8:	0007b783          	ld	a5,0(a5)
    800004ec:	fff6869b          	addiw	a3,a3,-1
    800004f0:	02080463          	beqz	a6,80000518 <core_list_init+0x498>
    800004f4:	01183023          	sd	a7,0(a6)
    800004f8:	00088813          	mv	a6,a7
    800004fc:	f8061ae3          	bnez	a2,80000490 <core_list_init+0x410>
    80000500:	02068a63          	beqz	a3,80000534 <core_list_init+0x4b4>
    80000504:	02078e63          	beqz	a5,80000540 <core_list_init+0x4c0>
    80000508:	00078893          	mv	a7,a5
    8000050c:	fff6869b          	addiw	a3,a3,-1
    80000510:	0007b783          	ld	a5,0(a5)
    80000514:	fe0810e3          	bnez	a6,800004f4 <core_list_init+0x474>
    80000518:	00088513          	mv	a0,a7
    8000051c:	00088813          	mv	a6,a7
    80000520:	fddff06f          	j	800004fc <core_list_init+0x47c>
    80000524:	00058893          	mv	a7,a1
    80000528:	fff6061b          	addiw	a2,a2,-1
    8000052c:	0005b583          	ld	a1,0(a1)
    80000530:	fc1ff06f          	j	800004f0 <core_list_init+0x470>
    80000534:	00078663          	beqz	a5,80000540 <core_list_init+0x4c0>
    80000538:	00078593          	mv	a1,a5
    8000053c:	e99ff06f          	j	800003d4 <core_list_init+0x354>
    80000540:	00083023          	sd	zero,0(a6)
    80000544:	02728263          	beq	t0,t2,80000568 <core_list_init+0x4e8>
    80000548:	001f9f9b          	slliw	t6,t6,0x1
    8000054c:	02050463          	beqz	a0,80000574 <core_list_init+0x4f4>
    80000550:	00050793          	mv	a5,a0
    80000554:	00000293          	li	t0,0
    80000558:	00000813          	li	a6,0
    8000055c:	00000513          	li	a0,0
    80000560:	00078593          	mv	a1,a5
    80000564:	e71ff06f          	j	800003d4 <core_list_init+0x354>
    80000568:	00813403          	ld	s0,8(sp)
    8000056c:	01010113          	addi	sp,sp,16
    80000570:	00008067          	ret
    80000574:	00003023          	sd	zero,0(zero) # 0 <_start-0x80000000>
    80000578:	00100073          	ebreak
    8000057c:	00000693          	li	a3,0
    80000580:	b8dff06f          	j	8000010c <core_list_init+0x8c>

0000000080000584 <core_list_insert_new>:
    80000584:	00063803          	ld	a6,0(a2)
    80000588:	01080893          	addi	a7,a6,16
    8000058c:	04e8f663          	bgeu	a7,a4,800005d8 <core_list_insert_new+0x54>
    80000590:	0006b703          	ld	a4,0(a3)
    80000594:	00470313          	addi	t1,a4,4
    80000598:	04f37063          	bgeu	t1,a5,800005d8 <core_list_insert_new+0x54>
    8000059c:	01163023          	sd	a7,0(a2)
    800005a0:	00053783          	ld	a5,0(a0)
    800005a4:	00059283          	lh	t0,0(a1)
    800005a8:	00259603          	lh	a2,2(a1)
    800005ac:	00f83023          	sd	a5,0(a6)
    800005b0:	01053023          	sd	a6,0(a0)
    800005b4:	00e83423          	sd	a4,8(a6)
    800005b8:	0006b383          	ld	t2,0(a3)
    800005bc:	00438513          	addi	a0,t2,4
    800005c0:	00a6b023          	sd	a0,0(a3)
    800005c4:	00883583          	ld	a1,8(a6)
    800005c8:	00080513          	mv	a0,a6
    800005cc:	00559023          	sh	t0,0(a1)
    800005d0:	00c59123          	sh	a2,2(a1)
    800005d4:	00008067          	ret
    800005d8:	00000813          	li	a6,0
    800005dc:	00080513          	mv	a0,a6
    800005e0:	00008067          	ret

00000000800005e4 <core_list_remove>:
    800005e4:	00050793          	mv	a5,a0
    800005e8:	00053503          	ld	a0,0(a0)
    800005ec:	0087b683          	ld	a3,8(a5)
    800005f0:	00853603          	ld	a2,8(a0)
    800005f4:	00053703          	ld	a4,0(a0)
    800005f8:	00c7b423          	sd	a2,8(a5)
    800005fc:	00d53423          	sd	a3,8(a0)
    80000600:	00e7b023          	sd	a4,0(a5)
    80000604:	00053023          	sd	zero,0(a0)
    80000608:	00008067          	ret

000000008000060c <core_list_undo_remove>:
    8000060c:	0085b603          	ld	a2,8(a1)
    80000610:	00853683          	ld	a3,8(a0)
    80000614:	0005b703          	ld	a4,0(a1)
    80000618:	00c53423          	sd	a2,8(a0)
    8000061c:	00d5b423          	sd	a3,8(a1)
    80000620:	00e53023          	sd	a4,0(a0)
    80000624:	00a5b023          	sd	a0,0(a1)
    80000628:	00008067          	ret

000000008000062c <core_list_find>:
    8000062c:	00259603          	lh	a2,2(a1)
    80000630:	02064263          	bltz	a2,80000654 <core_list_find+0x28>
    80000634:	00051863          	bnez	a0,80000644 <core_list_find+0x18>
    80000638:	0480006f          	j	80000680 <core_list_find+0x54>
    8000063c:	00053503          	ld	a0,0(a0)
    80000640:	02050c63          	beqz	a0,80000678 <core_list_find+0x4c>
    80000644:	00853303          	ld	t1,8(a0)
    80000648:	00231383          	lh	t2,2(t1)
    8000064c:	fec398e3          	bne	t2,a2,8000063c <core_list_find+0x10>
    80000650:	00008067          	ret
    80000654:	02050263          	beqz	a0,80000678 <core_list_find+0x4c>
    80000658:	00059703          	lh	a4,0(a1)
    8000065c:	00c0006f          	j	80000668 <core_list_find+0x3c>
    80000660:	00053503          	ld	a0,0(a0)
    80000664:	00050c63          	beqz	a0,8000067c <core_list_find+0x50>
    80000668:	00853783          	ld	a5,8(a0)
    8000066c:	0007c283          	lbu	t0,0(a5)
    80000670:	fee298e3          	bne	t0,a4,80000660 <core_list_find+0x34>
    80000674:	00008067          	ret
    80000678:	00000513          	li	a0,0
    8000067c:	00008067          	ret
    80000680:	00008067          	ret

0000000080000684 <core_list_reverse>:
    80000684:	02050063          	beqz	a0,800006a4 <core_list_reverse+0x20>
    80000688:	00000713          	li	a4,0
    8000068c:	0080006f          	j	80000694 <core_list_reverse+0x10>
    80000690:	00078513          	mv	a0,a5
    80000694:	00053783          	ld	a5,0(a0)
    80000698:	00e53023          	sd	a4,0(a0)
    8000069c:	00050713          	mv	a4,a0
    800006a0:	fe0798e3          	bnez	a5,80000690 <core_list_reverse+0xc>
    800006a4:	00008067          	ret

00000000800006a8 <core_list_mergesort>:
    800006a8:	fa010113          	addi	sp,sp,-96
    800006ac:	04813823          	sd	s0,80(sp)
    800006b0:	03613023          	sd	s6,32(sp)
    800006b4:	01713c23          	sd	s7,24(sp)
    800006b8:	01913423          	sd	s9,8(sp)
    800006bc:	01a13023          	sd	s10,0(sp)
    800006c0:	04113c23          	sd	ra,88(sp)
    800006c4:	04913423          	sd	s1,72(sp)
    800006c8:	05213023          	sd	s2,64(sp)
    800006cc:	03313c23          	sd	s3,56(sp)
    800006d0:	03413823          	sd	s4,48(sp)
    800006d4:	03513423          	sd	s5,40(sp)
    800006d8:	01813823          	sd	s8,16(sp)
    800006dc:	00050413          	mv	s0,a0
    800006e0:	00058b13          	mv	s6,a1
    800006e4:	00060d13          	mv	s10,a2
    800006e8:	00100b93          	li	s7,1
    800006ec:	00100c93          	li	s9,1
    800006f0:	14040c63          	beqz	s0,80000848 <core_list_mergesort+0x1a0>
    800006f4:	00000c13          	li	s8,0
    800006f8:	00000493          	li	s1,0
    800006fc:	00000a93          	li	s5,0
    80000700:	007bf713          	andi	a4,s7,7
    80000704:	001c0c1b          	addiw	s8,s8,1
    80000708:	00040793          	mv	a5,s0
    8000070c:	00000913          	li	s2,0
    80000710:	08070663          	beqz	a4,8000079c <core_list_mergesort+0xf4>
    80000714:	00100693          	li	a3,1
    80000718:	06d70a63          	beq	a4,a3,8000078c <core_list_mergesort+0xe4>
    8000071c:	00200093          	li	ra,2
    80000720:	06170063          	beq	a4,ra,80000780 <core_list_mergesort+0xd8>
    80000724:	00300293          	li	t0,3
    80000728:	04570663          	beq	a4,t0,80000774 <core_list_mergesort+0xcc>
    8000072c:	00400313          	li	t1,4
    80000730:	02670c63          	beq	a4,t1,80000768 <core_list_mergesort+0xc0>
    80000734:	00500393          	li	t2,5
    80000738:	02770263          	beq	a4,t2,8000075c <core_list_mergesort+0xb4>
    8000073c:	00600513          	li	a0,6
    80000740:	00a70863          	beq	a4,a0,80000750 <core_list_mergesort+0xa8>
    80000744:	00043783          	ld	a5,0(s0)
    80000748:	00100913          	li	s2,1
    8000074c:	06078463          	beqz	a5,800007b4 <core_list_mergesort+0x10c>
    80000750:	0007b783          	ld	a5,0(a5)
    80000754:	0019091b          	addiw	s2,s2,1
    80000758:	04078e63          	beqz	a5,800007b4 <core_list_mergesort+0x10c>
    8000075c:	0007b783          	ld	a5,0(a5)
    80000760:	0019091b          	addiw	s2,s2,1
    80000764:	04078863          	beqz	a5,800007b4 <core_list_mergesort+0x10c>
    80000768:	0007b783          	ld	a5,0(a5)
    8000076c:	0019091b          	addiw	s2,s2,1
    80000770:	04078263          	beqz	a5,800007b4 <core_list_mergesort+0x10c>
    80000774:	0007b783          	ld	a5,0(a5)
    80000778:	0019091b          	addiw	s2,s2,1
    8000077c:	02078c63          	beqz	a5,800007b4 <core_list_mergesort+0x10c>
    80000780:	0007b783          	ld	a5,0(a5)
    80000784:	0019091b          	addiw	s2,s2,1
    80000788:	02078663          	beqz	a5,800007b4 <core_list_mergesort+0x10c>
    8000078c:	0007b783          	ld	a5,0(a5)
    80000790:	0019091b          	addiw	s2,s2,1
    80000794:	02078063          	beqz	a5,800007b4 <core_list_mergesort+0x10c>
    80000798:	012b8e63          	beq	s7,s2,800007b4 <core_list_mergesort+0x10c>
    8000079c:	0007b783          	ld	a5,0(a5)
    800007a0:	0019091b          	addiw	s2,s2,1
    800007a4:	00078863          	beqz	a5,800007b4 <core_list_mergesort+0x10c>
    800007a8:	0007b783          	ld	a5,0(a5)
    800007ac:	0019091b          	addiw	s2,s2,1
    800007b0:	fa0790e3          	bnez	a5,80000750 <core_list_mergesort+0xa8>
    800007b4:	00040a13          	mv	s4,s0
    800007b8:	000b8993          	mv	s3,s7
    800007bc:	00078413          	mv	s0,a5
    800007c0:	02090e63          	beqz	s2,800007fc <core_list_mergesort+0x154>
    800007c4:	04098e63          	beqz	s3,80000820 <core_list_mergesort+0x178>
    800007c8:	04040c63          	beqz	s0,80000820 <core_list_mergesort+0x178>
    800007cc:	00843583          	ld	a1,8(s0)
    800007d0:	008a3503          	ld	a0,8(s4)
    800007d4:	000d0613          	mv	a2,s10
    800007d8:	000b00e7          	jalr	s6
    800007dc:	04a05263          	blez	a0,80000820 <core_list_mergesort+0x178>
    800007e0:	00040593          	mv	a1,s0
    800007e4:	00043403          	ld	s0,0(s0)
    800007e8:	fff9899b          	addiw	s3,s3,-1
    800007ec:	02048463          	beqz	s1,80000814 <core_list_mergesort+0x16c>
    800007f0:	00b4b023          	sd	a1,0(s1)
    800007f4:	00058493          	mv	s1,a1
    800007f8:	fc0916e3          	bnez	s2,800007c4 <core_list_mergesort+0x11c>
    800007fc:	02098a63          	beqz	s3,80000830 <core_list_mergesort+0x188>
    80000800:	02040a63          	beqz	s0,80000834 <core_list_mergesort+0x18c>
    80000804:	00040593          	mv	a1,s0
    80000808:	fff9899b          	addiw	s3,s3,-1
    8000080c:	00043403          	ld	s0,0(s0)
    80000810:	fe0490e3          	bnez	s1,800007f0 <core_list_mergesort+0x148>
    80000814:	00058a93          	mv	s5,a1
    80000818:	00058493          	mv	s1,a1
    8000081c:	fddff06f          	j	800007f8 <core_list_mergesort+0x150>
    80000820:	000a0593          	mv	a1,s4
    80000824:	fff9091b          	addiw	s2,s2,-1
    80000828:	000a3a03          	ld	s4,0(s4)
    8000082c:	fc1ff06f          	j	800007ec <core_list_mergesort+0x144>
    80000830:	ec0418e3          	bnez	s0,80000700 <core_list_mergesort+0x58>
    80000834:	0004b023          	sd	zero,0(s1)
    80000838:	019c0c63          	beq	s8,s9,80000850 <core_list_mergesort+0x1a8>
    8000083c:	001b9b9b          	slliw	s7,s7,0x1
    80000840:	000a8413          	mv	s0,s5
    80000844:	eadff06f          	j	800006f0 <core_list_mergesort+0x48>
    80000848:	00003023          	sd	zero,0(zero) # 0 <_start-0x80000000>
    8000084c:	00100073          	ebreak
    80000850:	05813083          	ld	ra,88(sp)
    80000854:	05013403          	ld	s0,80(sp)
    80000858:	04813483          	ld	s1,72(sp)
    8000085c:	04013903          	ld	s2,64(sp)
    80000860:	03813983          	ld	s3,56(sp)
    80000864:	03013a03          	ld	s4,48(sp)
    80000868:	02013b03          	ld	s6,32(sp)
    8000086c:	01813b83          	ld	s7,24(sp)
    80000870:	01013c03          	ld	s8,16(sp)
    80000874:	00813c83          	ld	s9,8(sp)
    80000878:	00013d03          	ld	s10,0(sp)
    8000087c:	000a8513          	mv	a0,s5
    80000880:	02813a83          	ld	s5,40(sp)
    80000884:	06010113          	addi	sp,sp,96
    80000888:	00008067          	ret

000000008000088c <matrix_test>:
    8000088c:	fb010113          	addi	sp,sp,-80
    80000890:	04813423          	sd	s0,72(sp)
    80000894:	00050893          	mv	a7,a0
    80000898:	fffff437          	lui	s0,0xfffff
    8000089c:	03071393          	slli	t2,a4,0x30
    800008a0:	04913023          	sd	s1,64(sp)
    800008a4:	03213c23          	sd	s2,56(sp)
    800008a8:	03313823          	sd	s3,48(sp)
    800008ac:	03413423          	sd	s4,40(sp)
    800008b0:	03513023          	sd	s5,32(sp)
    800008b4:	01613c23          	sd	s6,24(sp)
    800008b8:	01713823          	sd	s7,16(sp)
    800008bc:	01813423          	sd	s8,8(sp)
    800008c0:	00058e13          	mv	t3,a1
    800008c4:	00060813          	mv	a6,a2
    800008c8:	00068513          	mv	a0,a3
    800008cc:	00876433          	or	s0,a4,s0
    800008d0:	0303d393          	srli	t2,t2,0x30
    800008d4:	00089463          	bnez	a7,800008dc <matrix_test+0x50>
    800008d8:	5d90106f          	j	800026b0 <matrix_test+0x1e24>
    800008dc:	00070f13          	mv	t5,a4
    800008e0:	00088693          	mv	a3,a7
    800008e4:	00000313          	li	t1,0
    800008e8:	00000593          	li	a1,0
    800008ec:	40668733          	sub	a4,a3,t1
    800008f0:	00777293          	andi	t0,a4,7
    800008f4:	00030793          	mv	a5,t1
    800008f8:	0e028e63          	beqz	t0,800009f4 <matrix_test+0x168>
    800008fc:	00100613          	li	a2,1
    80000900:	0cc28a63          	beq	t0,a2,800009d4 <matrix_test+0x148>
    80000904:	00200493          	li	s1,2
    80000908:	0a928863          	beq	t0,s1,800009b8 <matrix_test+0x12c>
    8000090c:	00300913          	li	s2,3
    80000910:	09228663          	beq	t0,s2,8000099c <matrix_test+0x110>
    80000914:	00400993          	li	s3,4
    80000918:	07328463          	beq	t0,s3,80000980 <matrix_test+0xf4>
    8000091c:	00500a13          	li	s4,5
    80000920:	05428263          	beq	t0,s4,80000964 <matrix_test+0xd8>
    80000924:	00600a93          	li	s5,6
    80000928:	03528063          	beq	t0,s5,80000948 <matrix_test+0xbc>
    8000092c:	02031793          	slli	a5,t1,0x20
    80000930:	01f7db13          	srli	s6,a5,0x1f
    80000934:	01680bb3          	add	s7,a6,s6
    80000938:	000bdc03          	lhu	s8,0(s7)
    8000093c:	0013079b          	addiw	a5,t1,1
    80000940:	007c0ebb          	addw	t4,s8,t2
    80000944:	01db9023          	sh	t4,0(s7)
    80000948:	02079f93          	slli	t6,a5,0x20
    8000094c:	01ffd713          	srli	a4,t6,0x1f
    80000950:	00e802b3          	add	t0,a6,a4
    80000954:	0002d603          	lhu	a2,0(t0)
    80000958:	0017879b          	addiw	a5,a5,1
    8000095c:	007604bb          	addw	s1,a2,t2
    80000960:	00929023          	sh	s1,0(t0)
    80000964:	02079913          	slli	s2,a5,0x20
    80000968:	01f95993          	srli	s3,s2,0x1f
    8000096c:	01380a33          	add	s4,a6,s3
    80000970:	000a5a83          	lhu	s5,0(s4)
    80000974:	0017879b          	addiw	a5,a5,1
    80000978:	007a8b3b          	addw	s6,s5,t2
    8000097c:	016a1023          	sh	s6,0(s4)
    80000980:	02079b93          	slli	s7,a5,0x20
    80000984:	01fbdc13          	srli	s8,s7,0x1f
    80000988:	01880eb3          	add	t4,a6,s8
    8000098c:	000edf83          	lhu	t6,0(t4)
    80000990:	0017879b          	addiw	a5,a5,1
    80000994:	007f873b          	addw	a4,t6,t2
    80000998:	00ee9023          	sh	a4,0(t4)
    8000099c:	02079293          	slli	t0,a5,0x20
    800009a0:	01f2d613          	srli	a2,t0,0x1f
    800009a4:	00c804b3          	add	s1,a6,a2
    800009a8:	0004d903          	lhu	s2,0(s1)
    800009ac:	0017879b          	addiw	a5,a5,1
    800009b0:	007909bb          	addw	s3,s2,t2
    800009b4:	01349023          	sh	s3,0(s1)
    800009b8:	02079a13          	slli	s4,a5,0x20
    800009bc:	01fa5a93          	srli	s5,s4,0x1f
    800009c0:	01580b33          	add	s6,a6,s5
    800009c4:	000b5b83          	lhu	s7,0(s6)
    800009c8:	0017879b          	addiw	a5,a5,1
    800009cc:	007b8c3b          	addw	s8,s7,t2
    800009d0:	018b1023          	sh	s8,0(s6)
    800009d4:	02079e93          	slli	t4,a5,0x20
    800009d8:	01fedf93          	srli	t6,t4,0x1f
    800009dc:	01f80733          	add	a4,a6,t6
    800009e0:	00075283          	lhu	t0,0(a4)
    800009e4:	0017879b          	addiw	a5,a5,1
    800009e8:	0072863b          	addw	a2,t0,t2
    800009ec:	00c71023          	sh	a2,0(a4)
    800009f0:	0ed78463          	beq	a5,a3,80000ad8 <matrix_test+0x24c>
    800009f4:	02079913          	slli	s2,a5,0x20
    800009f8:	01f95613          	srli	a2,s2,0x1f
    800009fc:	00c804b3          	add	s1,a6,a2
    80000a00:	0004de83          	lhu	t4,0(s1)
    80000a04:	0017879b          	addiw	a5,a5,1
    80000a08:	02079713          	slli	a4,a5,0x20
    80000a0c:	01f75f93          	srli	t6,a4,0x1f
    80000a10:	007e8abb          	addw	s5,t4,t2
    80000a14:	01549023          	sh	s5,0(s1)
    80000a18:	01f80c33          	add	s8,a6,t6
    80000a1c:	000c5b83          	lhu	s7,0(s8)
    80000a20:	00178a1b          	addiw	s4,a5,1
    80000a24:	020a1b13          	slli	s6,s4,0x20
    80000a28:	01fb5293          	srli	t0,s6,0x1f
    80000a2c:	007b89bb          	addw	s3,s7,t2
    80000a30:	013c1023          	sh	s3,0(s8)
    80000a34:	00580933          	add	s2,a6,t0
    80000a38:	00095603          	lhu	a2,0(s2)
    80000a3c:	001a049b          	addiw	s1,s4,1
    80000a40:	02049e93          	slli	t4,s1,0x20
    80000a44:	01fed793          	srli	a5,t4,0x1f
    80000a48:	0076073b          	addw	a4,a2,t2
    80000a4c:	00e91023          	sh	a4,0(s2)
    80000a50:	00f80ab3          	add	s5,a6,a5
    80000a54:	000adc03          	lhu	s8,0(s5)
    80000a58:	00148b9b          	addiw	s7,s1,1
    80000a5c:	020b9f93          	slli	t6,s7,0x20
    80000a60:	01ffda13          	srli	s4,t6,0x1f
    80000a64:	007c0b3b          	addw	s6,s8,t2
    80000a68:	016a9023          	sh	s6,0(s5)
    80000a6c:	014802b3          	add	t0,a6,s4
    80000a70:	0002d983          	lhu	s3,0(t0)
    80000a74:	001b891b          	addiw	s2,s7,1
    80000a78:	02091613          	slli	a2,s2,0x20
    80000a7c:	01f65493          	srli	s1,a2,0x1f
    80000a80:	00798ebb          	addw	t4,s3,t2
    80000a84:	01d29023          	sh	t4,0(t0)
    80000a88:	00980733          	add	a4,a6,s1
    80000a8c:	00075a83          	lhu	s5,0(a4)
    80000a90:	0019079b          	addiw	a5,s2,1
    80000a94:	02079c13          	slli	s8,a5,0x20
    80000a98:	007a8fbb          	addw	t6,s5,t2
    80000a9c:	01fc5b93          	srli	s7,s8,0x1f
    80000aa0:	01f71023          	sh	t6,0(a4)
    80000aa4:	01780a33          	add	s4,a6,s7
    80000aa8:	000a5b03          	lhu	s6,0(s4)
    80000aac:	0017879b          	addiw	a5,a5,1
    80000ab0:	02079293          	slli	t0,a5,0x20
    80000ab4:	01f2df93          	srli	t6,t0,0x1f
    80000ab8:	007b09bb          	addw	s3,s6,t2
    80000abc:	013a1023          	sh	s3,0(s4)
    80000ac0:	01f80733          	add	a4,a6,t6
    80000ac4:	00075283          	lhu	t0,0(a4)
    80000ac8:	0017879b          	addiw	a5,a5,1
    80000acc:	0072863b          	addw	a2,t0,t2
    80000ad0:	00c71023          	sh	a2,0(a4)
    80000ad4:	f2d790e3          	bne	a5,a3,800009f4 <matrix_test+0x168>
    80000ad8:	00158e9b          	addiw	t4,a1,1
    80000adc:	0068833b          	addw	t1,a7,t1
    80000ae0:	00d886bb          	addw	a3,a7,a3
    80000ae4:	01d88663          	beq	a7,t4,80000af0 <matrix_test+0x264>
    80000ae8:	000e8593          	mv	a1,t4
    80000aec:	e01ff06f          	j	800008ec <matrix_test+0x60>
    80000af0:	000f0f1b          	sext.w	t5,t5
    80000af4:	00088493          	mv	s1,a7
    80000af8:	00000913          	li	s2,0
    80000afc:	00000993          	li	s3,0
    80000b00:	412486b3          	sub	a3,s1,s2
    80000b04:	0036f313          	andi	t1,a3,3
    80000b08:	00090693          	mv	a3,s2
    80000b0c:	08030863          	beqz	t1,80000b9c <matrix_test+0x310>
    80000b10:	00100a13          	li	s4,1
    80000b14:	05430e63          	beq	t1,s4,80000b70 <matrix_test+0x2e4>
    80000b18:	00200a93          	li	s5,2
    80000b1c:	03530663          	beq	t1,s5,80000b48 <matrix_test+0x2bc>
    80000b20:	02091b13          	slli	s6,s2,0x20
    80000b24:	020b5b93          	srli	s7,s6,0x20
    80000b28:	001b9c13          	slli	s8,s7,0x1
    80000b2c:	01880fb3          	add	t6,a6,s8
    80000b30:	000f9703          	lh	a4,0(t6)
    80000b34:	002b9293          	slli	t0,s7,0x2
    80000b38:	005e07b3          	add	a5,t3,t0
    80000b3c:	03e7063b          	mulw	a2,a4,t5
    80000b40:	0019069b          	addiw	a3,s2,1
    80000b44:	00c7a023          	sw	a2,0(a5)
    80000b48:	02069313          	slli	t1,a3,0x20
    80000b4c:	02035a13          	srli	s4,t1,0x20
    80000b50:	001a1a93          	slli	s5,s4,0x1
    80000b54:	01580b33          	add	s6,a6,s5
    80000b58:	000b1b83          	lh	s7,0(s6)
    80000b5c:	002a1c13          	slli	s8,s4,0x2
    80000b60:	018e0fb3          	add	t6,t3,s8
    80000b64:	03eb873b          	mulw	a4,s7,t5
    80000b68:	0016869b          	addiw	a3,a3,1
    80000b6c:	00efa023          	sw	a4,0(t6)
    80000b70:	02069293          	slli	t0,a3,0x20
    80000b74:	0202d793          	srli	a5,t0,0x20
    80000b78:	00179613          	slli	a2,a5,0x1
    80000b7c:	00c80333          	add	t1,a6,a2
    80000b80:	00031a03          	lh	s4,0(t1)
    80000b84:	00279a93          	slli	s5,a5,0x2
    80000b88:	015e0b33          	add	s6,t3,s5
    80000b8c:	03ea0bbb          	mulw	s7,s4,t5
    80000b90:	0016869b          	addiw	a3,a3,1
    80000b94:	017b2023          	sw	s7,0(s6)
    80000b98:	0ad48463          	beq	s1,a3,80000c40 <matrix_test+0x3b4>
    80000b9c:	00168f9b          	addiw	t6,a3,1
    80000ba0:	02069c13          	slli	s8,a3,0x20
    80000ba4:	001f829b          	addiw	t0,t6,1
    80000ba8:	020c5313          	srli	t1,s8,0x20
    80000bac:	020f9713          	slli	a4,t6,0x20
    80000bb0:	00128b9b          	addiw	s7,t0,1
    80000bb4:	02075613          	srli	a2,a4,0x20
    80000bb8:	00131793          	slli	a5,t1,0x1
    80000bbc:	02029a13          	slli	s4,t0,0x20
    80000bc0:	020a5b13          	srli	s6,s4,0x20
    80000bc4:	00f80ab3          	add	s5,a6,a5
    80000bc8:	00161693          	slli	a3,a2,0x1
    80000bcc:	020b9f93          	slli	t6,s7,0x20
    80000bd0:	000a9c03          	lh	s8,0(s5)
    80000bd4:	020fd793          	srli	a5,t6,0x20
    80000bd8:	00d80733          	add	a4,a6,a3
    80000bdc:	001b1293          	slli	t0,s6,0x1
    80000be0:	00071a03          	lh	s4,0(a4)
    80000be4:	00179693          	slli	a3,a5,0x1
    80000be8:	00580ab3          	add	s5,a6,t0
    80000bec:	000a9283          	lh	t0,0(s5)
    80000bf0:	00d80fb3          	add	t6,a6,a3
    80000bf4:	000f9f83          	lh	t6,0(t6)
    80000bf8:	03ec0c3b          	mulw	s8,s8,t5
    80000bfc:	001b869b          	addiw	a3,s7,1
    80000c00:	00231313          	slli	t1,t1,0x2
    80000c04:	006e0ab3          	add	s5,t3,t1
    80000c08:	00261613          	slli	a2,a2,0x2
    80000c0c:	00ce0333          	add	t1,t3,a2
    80000c10:	002b1b13          	slli	s6,s6,0x2
    80000c14:	016e0733          	add	a4,t3,s6
    80000c18:	00279793          	slli	a5,a5,0x2
    80000c1c:	00fe0633          	add	a2,t3,a5
    80000c20:	03ea0bbb          	mulw	s7,s4,t5
    80000c24:	018aa023          	sw	s8,0(s5)
    80000c28:	03e28a3b          	mulw	s4,t0,t5
    80000c2c:	01732023          	sw	s7,0(t1)
    80000c30:	03ef82bb          	mulw	t0,t6,t5
    80000c34:	01472023          	sw	s4,0(a4)
    80000c38:	00562023          	sw	t0,0(a2)
    80000c3c:	f6d490e3          	bne	s1,a3,80000b9c <matrix_test+0x310>
    80000c40:	0019869b          	addiw	a3,s3,1
    80000c44:	012e893b          	addw	s2,t4,s2
    80000c48:	009e84bb          	addw	s1,t4,s1
    80000c4c:	01358663          	beq	a1,s3,80000c58 <matrix_test+0x3cc>
    80000c50:	00068993          	mv	s3,a3
    80000c54:	eadff06f          	j	80000b00 <matrix_test+0x274>
    80000c58:	0004031b          	sext.w	t1,s0
    80000c5c:	000e8f13          	mv	t5,t4
    80000c60:	00000f93          	li	t6,0
    80000c64:	00000793          	li	a5,0
    80000c68:	00000913          	li	s2,0
    80000c6c:	00000693          	li	a3,0
    80000c70:	00000293          	li	t0,0
    80000c74:	41ff09b3          	sub	s3,t5,t6
    80000c78:	0039fc13          	andi	s8,s3,3
    80000c7c:	000f8493          	mv	s1,t6
    80000c80:	180c0e63          	beqz	s8,80000e1c <matrix_test+0x590>
    80000c84:	00100a93          	li	s5,1
    80000c88:	075c0e63          	beq	s8,s5,80000d04 <matrix_test+0x478>
    80000c8c:	00200b13          	li	s6,2
    80000c90:	036c0e63          	beq	s8,s6,80000ccc <matrix_test+0x440>
    80000c94:	020f9713          	slli	a4,t6,0x20
    80000c98:	01e75613          	srli	a2,a4,0x1e
    80000c9c:	00ce0bb3          	add	s7,t3,a2
    80000ca0:	00090a13          	mv	s4,s2
    80000ca4:	000ba903          	lw	s2,0(s7)
    80000ca8:	03079793          	slli	a5,a5,0x30
    80000cac:	0307d493          	srli	s1,a5,0x30
    80000cb0:	00d906bb          	addw	a3,s2,a3
    80000cb4:	20d35863          	bge	t1,a3,80000ec4 <matrix_test+0x638>
    80000cb8:	00a4869b          	addiw	a3,s1,10
    80000cbc:	01069b1b          	slliw	s6,a3,0x10
    80000cc0:	410b579b          	sraiw	a5,s6,0x10
    80000cc4:	00000693          	li	a3,0
    80000cc8:	001f849b          	addiw	s1,t6,1
    80000ccc:	02049713          	slli	a4,s1,0x20
    80000cd0:	01e75613          	srli	a2,a4,0x1e
    80000cd4:	00ce0bb3          	add	s7,t3,a2
    80000cd8:	00090a13          	mv	s4,s2
    80000cdc:	000ba903          	lw	s2,0(s7)
    80000ce0:	03079793          	slli	a5,a5,0x30
    80000ce4:	0307d993          	srli	s3,a5,0x30
    80000ce8:	00d906bb          	addw	a3,s2,a3
    80000cec:	1cd35263          	bge	t1,a3,80000eb0 <matrix_test+0x624>
    80000cf0:	00a9869b          	addiw	a3,s3,10
    80000cf4:	0106971b          	slliw	a4,a3,0x10
    80000cf8:	4107579b          	sraiw	a5,a4,0x10
    80000cfc:	00000693          	li	a3,0
    80000d00:	0014849b          	addiw	s1,s1,1
    80000d04:	02049613          	slli	a2,s1,0x20
    80000d08:	01e65b93          	srli	s7,a2,0x1e
    80000d0c:	017e0a33          	add	s4,t3,s7
    80000d10:	00090993          	mv	s3,s2
    80000d14:	000a2903          	lw	s2,0(s4)
    80000d18:	03079793          	slli	a5,a5,0x30
    80000d1c:	0307dc13          	srli	s8,a5,0x30
    80000d20:	00d906bb          	addw	a3,s2,a3
    80000d24:	16d35863          	bge	t1,a3,80000e94 <matrix_test+0x608>
    80000d28:	00ac069b          	addiw	a3,s8,10
    80000d2c:	03069b93          	slli	s7,a3,0x30
    80000d30:	01069a1b          	slliw	s4,a3,0x10
    80000d34:	030bd993          	srli	s3,s7,0x30
    80000d38:	410a579b          	sraiw	a5,s4,0x10
    80000d3c:	00000693          	li	a3,0
    80000d40:	0014849b          	addiw	s1,s1,1
    80000d44:	0de49c63          	bne	s1,t5,80000e1c <matrix_test+0x590>
    80000d48:	00128a1b          	addiw	s4,t0,1
    80000d4c:	009e8f3b          	addw	t5,t4,s1
    80000d50:	01fe8fbb          	addw	t6,t4,t6
    80000d54:	18558263          	beq	a1,t0,80000ed8 <matrix_test+0x64c>
    80000d58:	000a0293          	mv	t0,s4
    80000d5c:	f19ff06f          	j	80000c74 <matrix_test+0x3e8>
    80000d60:	01692933          	slt	s2,s2,s6
    80000d64:	00e9063b          	addw	a2,s2,a4
    80000d68:	01061b9b          	slliw	s7,a2,0x10
    80000d6c:	410bd99b          	sraiw	s3,s7,0x10
    80000d70:	0014849b          	addiw	s1,s1,1
    80000d74:	02049a93          	slli	s5,s1,0x20
    80000d78:	01ead793          	srli	a5,s5,0x1e
    80000d7c:	00fe0733          	add	a4,t3,a5
    80000d80:	00072b83          	lw	s7,0(a4)
    80000d84:	03099913          	slli	s2,s3,0x30
    80000d88:	03095a13          	srli	s4,s2,0x30
    80000d8c:	018b86bb          	addw	a3,s7,s8
    80000d90:	0ed35863          	bge	t1,a3,80000e80 <matrix_test+0x5f4>
    80000d94:	00aa0a9b          	addiw	s5,s4,10
    80000d98:	010a979b          	slliw	a5,s5,0x10
    80000d9c:	4107dc1b          	sraiw	s8,a5,0x10
    80000da0:	00000693          	li	a3,0
    80000da4:	0014849b          	addiw	s1,s1,1
    80000da8:	02049713          	slli	a4,s1,0x20
    80000dac:	01e75913          	srli	s2,a4,0x1e
    80000db0:	012e0a33          	add	s4,t3,s2
    80000db4:	000a2b03          	lw	s6,0(s4)
    80000db8:	030c1613          	slli	a2,s8,0x30
    80000dbc:	03065993          	srli	s3,a2,0x30
    80000dc0:	00db06bb          	addw	a3,s6,a3
    80000dc4:	0ad35463          	bge	t1,a3,80000e6c <matrix_test+0x5e0>
    80000dc8:	00a9871b          	addiw	a4,s3,10
    80000dcc:	0107191b          	slliw	s2,a4,0x10
    80000dd0:	4109579b          	sraiw	a5,s2,0x10
    80000dd4:	00000693          	li	a3,0
    80000dd8:	00148a1b          	addiw	s4,s1,1
    80000ddc:	020a1493          	slli	s1,s4,0x20
    80000de0:	01e4d613          	srli	a2,s1,0x1e
    80000de4:	00ce09b3          	add	s3,t3,a2
    80000de8:	0009a903          	lw	s2,0(s3)
    80000dec:	03079b93          	slli	s7,a5,0x30
    80000df0:	030bdc13          	srli	s8,s7,0x30
    80000df4:	00d906bb          	addw	a3,s2,a3
    80000df8:	04d35c63          	bge	t1,a3,80000e50 <matrix_test+0x5c4>
    80000dfc:	00ac049b          	addiw	s1,s8,10
    80000e00:	03049613          	slli	a2,s1,0x30
    80000e04:	01049b9b          	slliw	s7,s1,0x10
    80000e08:	03065993          	srli	s3,a2,0x30
    80000e0c:	410bd79b          	sraiw	a5,s7,0x10
    80000e10:	00000693          	li	a3,0
    80000e14:	001a049b          	addiw	s1,s4,1
    80000e18:	f3e488e3          	beq	s1,t5,80000d48 <matrix_test+0x4bc>
    80000e1c:	02049993          	slli	s3,s1,0x20
    80000e20:	01e9dc13          	srli	s8,s3,0x1e
    80000e24:	018e0ab3          	add	s5,t3,s8
    80000e28:	000aab03          	lw	s6,0(s5)
    80000e2c:	03079793          	slli	a5,a5,0x30
    80000e30:	0307d713          	srli	a4,a5,0x30
    80000e34:	00db0c3b          	addw	s8,s6,a3
    80000e38:	f38354e3          	bge	t1,s8,80000d60 <matrix_test+0x4d4>
    80000e3c:	00a7069b          	addiw	a3,a4,10
    80000e40:	01069a1b          	slliw	s4,a3,0x10
    80000e44:	410a599b          	sraiw	s3,s4,0x10
    80000e48:	00000c13          	li	s8,0
    80000e4c:	f25ff06f          	j	80000d70 <matrix_test+0x4e4>
    80000e50:	012b2b33          	slt	s6,s6,s2
    80000e54:	018b0abb          	addw	s5,s6,s8
    80000e58:	030a9793          	slli	a5,s5,0x30
    80000e5c:	010a971b          	slliw	a4,s5,0x10
    80000e60:	0307d993          	srli	s3,a5,0x30
    80000e64:	4107579b          	sraiw	a5,a4,0x10
    80000e68:	fadff06f          	j	80000e14 <matrix_test+0x588>
    80000e6c:	016babb3          	slt	s7,s7,s6
    80000e70:	013b8c3b          	addw	s8,s7,s3
    80000e74:	010c1a9b          	slliw	s5,s8,0x10
    80000e78:	410ad79b          	sraiw	a5,s5,0x10
    80000e7c:	f5dff06f          	j	80000dd8 <matrix_test+0x54c>
    80000e80:	017b2b33          	slt	s6,s6,s7
    80000e84:	014b063b          	addw	a2,s6,s4
    80000e88:	0106199b          	slliw	s3,a2,0x10
    80000e8c:	4109dc1b          	sraiw	s8,s3,0x10
    80000e90:	f15ff06f          	j	80000da4 <matrix_test+0x518>
    80000e94:	0129aab3          	slt	s5,s3,s2
    80000e98:	018a8b3b          	addw	s6,s5,s8
    80000e9c:	030b1713          	slli	a4,s6,0x30
    80000ea0:	010b161b          	slliw	a2,s6,0x10
    80000ea4:	03075993          	srli	s3,a4,0x30
    80000ea8:	4106579b          	sraiw	a5,a2,0x10
    80000eac:	e95ff06f          	j	80000d40 <matrix_test+0x4b4>
    80000eb0:	012a2c33          	slt	s8,s4,s2
    80000eb4:	013c0abb          	addw	s5,s8,s3
    80000eb8:	010a9b1b          	slliw	s6,s5,0x10
    80000ebc:	410b579b          	sraiw	a5,s6,0x10
    80000ec0:	e41ff06f          	j	80000d00 <matrix_test+0x474>
    80000ec4:	012a29b3          	slt	s3,s4,s2
    80000ec8:	00998c3b          	addw	s8,s3,s1
    80000ecc:	010c1a9b          	slliw	s5,s8,0x10
    80000ed0:	410ad79b          	sraiw	a5,s5,0x10
    80000ed4:	df5ff06f          	j	80000cc8 <matrix_test+0x43c>
    80000ed8:	0ff7f593          	zext.b	a1,a5
    80000edc:	0015f293          	andi	t0,a1,1
    80000ee0:	0000ac37          	lui	s8,0xa
    80000ee4:	40500933          	neg	s2,t0
    80000ee8:	001c0693          	addi	a3,s8,1 # a001 <_start-0x7fff5fff>
    80000eec:	0126fb33          	and	s6,a3,s2
    80000ef0:	0015da93          	srli	s5,a1,0x1
    80000ef4:	016ac733          	xor	a4,s5,s6
    80000ef8:	00177613          	andi	a2,a4,1
    80000efc:	0089d993          	srli	s3,s3,0x8
    80000f00:	0025db93          	srli	s7,a1,0x2
    80000f04:	001b5a13          	srli	s4,s6,0x1
    80000f08:	00060c63          	beqz	a2,80000f20 <matrix_test+0x694>
    80000f0c:	ffffa4b7          	lui	s1,0xffffa
    80000f10:	00148313          	addi	t1,s1,1 # ffffffffffffa001 <_pmem_end+0xffffffff77ffa001>
    80000f14:	006a47b3          	xor	a5,s4,t1
    80000f18:	03079e93          	slli	t4,a5,0x30
    80000f1c:	030eda13          	srli	s4,t4,0x30
    80000f20:	014bcf33          	xor	t5,s7,s4
    80000f24:	001f7f93          	andi	t6,t5,1
    80000f28:	001bd293          	srli	t0,s7,0x1
    80000f2c:	001a5b13          	srli	s6,s4,0x1
    80000f30:	000f8c63          	beqz	t6,80000f48 <matrix_test+0x6bc>
    80000f34:	ffffa937          	lui	s2,0xffffa
    80000f38:	00190c13          	addi	s8,s2,1 # ffffffffffffa001 <_pmem_end+0xffffffff77ffa001>
    80000f3c:	018b45b3          	xor	a1,s6,s8
    80000f40:	03059693          	slli	a3,a1,0x30
    80000f44:	0306db13          	srli	s6,a3,0x30
    80000f48:	0162cab3          	xor	s5,t0,s6
    80000f4c:	001af713          	andi	a4,s5,1
    80000f50:	002bd493          	srli	s1,s7,0x2
    80000f54:	001b5a13          	srli	s4,s6,0x1
    80000f58:	00070c63          	beqz	a4,80000f70 <matrix_test+0x6e4>
    80000f5c:	ffffa637          	lui	a2,0xffffa
    80000f60:	00160313          	addi	t1,a2,1 # ffffffffffffa001 <_pmem_end+0xffffffff77ffa001>
    80000f64:	006a47b3          	xor	a5,s4,t1
    80000f68:	03079e93          	slli	t4,a5,0x30
    80000f6c:	030eda13          	srli	s4,t4,0x30
    80000f70:	0144cf33          	xor	t5,s1,s4
    80000f74:	001f7f93          	andi	t6,t5,1
    80000f78:	003bd293          	srli	t0,s7,0x3
    80000f7c:	001a5b13          	srli	s6,s4,0x1
    80000f80:	000f8c63          	beqz	t6,80000f98 <matrix_test+0x70c>
    80000f84:	ffffa937          	lui	s2,0xffffa
    80000f88:	00190c13          	addi	s8,s2,1 # ffffffffffffa001 <_pmem_end+0xffffffff77ffa001>
    80000f8c:	018b45b3          	xor	a1,s6,s8
    80000f90:	03059693          	slli	a3,a1,0x30
    80000f94:	0306db13          	srli	s6,a3,0x30
    80000f98:	0162cab3          	xor	s5,t0,s6
    80000f9c:	001af713          	andi	a4,s5,1
    80000fa0:	004bd493          	srli	s1,s7,0x4
    80000fa4:	001b5a13          	srli	s4,s6,0x1
    80000fa8:	00070c63          	beqz	a4,80000fc0 <matrix_test+0x734>
    80000fac:	ffffa637          	lui	a2,0xffffa
    80000fb0:	00160313          	addi	t1,a2,1 # ffffffffffffa001 <_pmem_end+0xffffffff77ffa001>
    80000fb4:	006a47b3          	xor	a5,s4,t1
    80000fb8:	03079e93          	slli	t4,a5,0x30
    80000fbc:	030eda13          	srli	s4,t4,0x30
    80000fc0:	0144cf33          	xor	t5,s1,s4
    80000fc4:	001f7f93          	andi	t6,t5,1
    80000fc8:	005bdb93          	srli	s7,s7,0x5
    80000fcc:	001a5693          	srli	a3,s4,0x1
    80000fd0:	000f8c63          	beqz	t6,80000fe8 <matrix_test+0x75c>
    80000fd4:	ffffa2b7          	lui	t0,0xffffa
    80000fd8:	00128913          	addi	s2,t0,1 # ffffffffffffa001 <_pmem_end+0xffffffff77ffa001>
    80000fdc:	0126cc33          	xor	s8,a3,s2
    80000fe0:	030c1593          	slli	a1,s8,0x30
    80000fe4:	0305d693          	srli	a3,a1,0x30
    80000fe8:	0016fb13          	andi	s6,a3,1
    80000fec:	0016d313          	srli	t1,a3,0x1
    80000ff0:	017b0c63          	beq	s6,s7,80001008 <matrix_test+0x77c>
    80000ff4:	ffffaab7          	lui	s5,0xffffa
    80000ff8:	001a8713          	addi	a4,s5,1 # ffffffffffffa001 <_pmem_end+0xffffffff77ffa001>
    80000ffc:	00e344b3          	xor	s1,t1,a4
    80001000:	03049613          	slli	a2,s1,0x30
    80001004:	03065313          	srli	t1,a2,0x30
    80001008:	0069c7b3          	xor	a5,s3,t1
    8000100c:	0017fe93          	andi	t4,a5,1
    80001010:	0019da13          	srli	s4,s3,0x1
    80001014:	00135913          	srli	s2,t1,0x1
    80001018:	000e8c63          	beqz	t4,80001030 <matrix_test+0x7a4>
    8000101c:	ffffaf37          	lui	t5,0xffffa
    80001020:	001f0f93          	addi	t6,t5,1 # ffffffffffffa001 <_pmem_end+0xffffffff77ffa001>
    80001024:	01f94bb3          	xor	s7,s2,t6
    80001028:	030b9293          	slli	t0,s7,0x30
    8000102c:	0302d913          	srli	s2,t0,0x30
    80001030:	012a4c33          	xor	s8,s4,s2
    80001034:	001c7693          	andi	a3,s8,1
    80001038:	0029db13          	srli	s6,s3,0x2
    8000103c:	00195613          	srli	a2,s2,0x1
    80001040:	00068c63          	beqz	a3,80001058 <matrix_test+0x7cc>
    80001044:	ffffaab7          	lui	s5,0xffffa
    80001048:	001a8713          	addi	a4,s5,1 # ffffffffffffa001 <_pmem_end+0xffffffff77ffa001>
    8000104c:	00e645b3          	xor	a1,a2,a4
    80001050:	03059493          	slli	s1,a1,0x30
    80001054:	0304d613          	srli	a2,s1,0x30
    80001058:	00cb4333          	xor	t1,s6,a2
    8000105c:	00137793          	andi	a5,t1,1
    80001060:	0039de93          	srli	t4,s3,0x3
    80001064:	00165293          	srli	t0,a2,0x1
    80001068:	00078c63          	beqz	a5,80001080 <matrix_test+0x7f4>
    8000106c:	ffffaa37          	lui	s4,0xffffa
    80001070:	001a0f13          	addi	t5,s4,1 # ffffffffffffa001 <_pmem_end+0xffffffff77ffa001>
    80001074:	01e2cfb3          	xor	t6,t0,t5
    80001078:	030f9b93          	slli	s7,t6,0x30
    8000107c:	030bd293          	srli	t0,s7,0x30
    80001080:	005ec933          	xor	s2,t4,t0
    80001084:	00197c13          	andi	s8,s2,1
    80001088:	0049db13          	srli	s6,s3,0x4
    8000108c:	0012d493          	srli	s1,t0,0x1
    80001090:	000c0c63          	beqz	s8,800010a8 <matrix_test+0x81c>
    80001094:	ffffa6b7          	lui	a3,0xffffa
    80001098:	00168a93          	addi	s5,a3,1 # ffffffffffffa001 <_pmem_end+0xffffffff77ffa001>
    8000109c:	0154c733          	xor	a4,s1,s5
    800010a0:	03071593          	slli	a1,a4,0x30
    800010a4:	0305d493          	srli	s1,a1,0x30
    800010a8:	009b4633          	xor	a2,s6,s1
    800010ac:	00167313          	andi	t1,a2,1
    800010b0:	0059de93          	srli	t4,s3,0x5
    800010b4:	0014db93          	srli	s7,s1,0x1
    800010b8:	00030c63          	beqz	t1,800010d0 <matrix_test+0x844>
    800010bc:	ffffa7b7          	lui	a5,0xffffa
    800010c0:	00178a13          	addi	s4,a5,1 # ffffffffffffa001 <_pmem_end+0xffffffff77ffa001>
    800010c4:	014bcf33          	xor	t5,s7,s4
    800010c8:	030f1f93          	slli	t6,t5,0x30
    800010cc:	030fdb93          	srli	s7,t6,0x30
    800010d0:	017ec2b3          	xor	t0,t4,s7
    800010d4:	0012f913          	andi	s2,t0,1
    800010d8:	0069dc13          	srli	s8,s3,0x6
    800010dc:	001bd593          	srli	a1,s7,0x1
    800010e0:	00090c63          	beqz	s2,800010f8 <matrix_test+0x86c>
    800010e4:	ffffab37          	lui	s6,0xffffa
    800010e8:	001b0693          	addi	a3,s6,1 # ffffffffffffa001 <_pmem_end+0xffffffff77ffa001>
    800010ec:	00d5cab3          	xor	s5,a1,a3
    800010f0:	030a9713          	slli	a4,s5,0x30
    800010f4:	03075593          	srli	a1,a4,0x30
    800010f8:	00bc44b3          	xor	s1,s8,a1
    800010fc:	0014f613          	andi	a2,s1,1
    80001100:	0079d993          	srli	s3,s3,0x7
    80001104:	0015df13          	srli	t5,a1,0x1
    80001108:	00060c63          	beqz	a2,80001120 <matrix_test+0x894>
    8000110c:	ffffa337          	lui	t1,0xffffa
    80001110:	00130e93          	addi	t4,t1,1 # ffffffffffffa001 <_pmem_end+0xffffffff77ffa001>
    80001114:	01df47b3          	xor	a5,t5,t4
    80001118:	03079a13          	slli	s4,a5,0x30
    8000111c:	030a5f13          	srli	t5,s4,0x30
    80001120:	001f7f93          	andi	t6,t5,1
    80001124:	001f5593          	srli	a1,t5,0x1
    80001128:	013f8c63          	beq	t6,s3,80001140 <matrix_test+0x8b4>
    8000112c:	ffffabb7          	lui	s7,0xffffa
    80001130:	001b8293          	addi	t0,s7,1 # ffffffffffffa001 <_pmem_end+0xffffffff77ffa001>
    80001134:	0055c933          	xor	s2,a1,t0
    80001138:	03091c13          	slli	s8,s2,0x30
    8000113c:	030c5593          	srli	a1,s8,0x30
    80001140:	00089463          	bnez	a7,80001148 <matrix_test+0x8bc>
    80001144:	57c0106f          	j	800026c0 <matrix_test+0x1e34>
    80001148:	fff8869b          	addiw	a3,a7,-1
    8000114c:	02069713          	slli	a4,a3,0x20
    80001150:	01e75493          	srli	s1,a4,0x1e
    80001154:	004e0613          	addi	a2,t3,4
    80001158:	000e0f93          	mv	t6,t3
    8000115c:	00c48bb3          	add	s7,s1,a2
    80001160:	00088e93          	mv	t4,a7
    80001164:	00000f13          	li	t5,0
    80001168:	41ee89b3          	sub	s3,t4,t5
    8000116c:	0039f793          	andi	a5,s3,3
    80001170:	00050313          	mv	t1,a0
    80001174:	000f0613          	mv	a2,t5
    80001178:	00000493          	li	s1,0
    8000117c:	08078063          	beqz	a5,800011fc <matrix_test+0x970>
    80001180:	00100a13          	li	s4,1
    80001184:	05478863          	beq	a5,s4,800011d4 <matrix_test+0x948>
    80001188:	00200293          	li	t0,2
    8000118c:	02578263          	beq	a5,t0,800011b0 <matrix_test+0x924>
    80001190:	020f1313          	slli	t1,t5,0x20
    80001194:	01f35913          	srli	s2,t1,0x1f
    80001198:	01280c33          	add	s8,a6,s2
    8000119c:	000c1b03          	lh	s6,0(s8)
    800011a0:	00051a83          	lh	s5,0(a0)
    800011a4:	001f061b          	addiw	a2,t5,1
    800011a8:	00250313          	addi	t1,a0,2
    800011ac:	035b04bb          	mulw	s1,s6,s5
    800011b0:	02061693          	slli	a3,a2,0x20
    800011b4:	01f6d713          	srli	a4,a3,0x1f
    800011b8:	00e809b3          	add	s3,a6,a4
    800011bc:	00031a03          	lh	s4,0(t1)
    800011c0:	00099783          	lh	a5,0(s3)
    800011c4:	0016061b          	addiw	a2,a2,1
    800011c8:	00230313          	addi	t1,t1,2
    800011cc:	034782bb          	mulw	t0,a5,s4
    800011d0:	009284bb          	addw	s1,t0,s1
    800011d4:	02061913          	slli	s2,a2,0x20
    800011d8:	01f95c13          	srli	s8,s2,0x1f
    800011dc:	01880b33          	add	s6,a6,s8
    800011e0:	00031a83          	lh	s5,0(t1)
    800011e4:	000b1683          	lh	a3,0(s6)
    800011e8:	0016061b          	addiw	a2,a2,1
    800011ec:	00230313          	addi	t1,t1,2
    800011f0:	0356873b          	mulw	a4,a3,s5
    800011f4:	009704bb          	addw	s1,a4,s1
    800011f8:	09d60663          	beq	a2,t4,80001284 <matrix_test+0x9f8>
    800011fc:	0016099b          	addiw	s3,a2,1
    80001200:	02061a13          	slli	s4,a2,0x20
    80001204:	01fa5293          	srli	t0,s4,0x1f
    80001208:	0019879b          	addiw	a5,s3,1
    8000120c:	02099913          	slli	s2,s3,0x20
    80001210:	00580c33          	add	s8,a6,t0
    80001214:	0017899b          	addiw	s3,a5,1
    80001218:	01f95b13          	srli	s6,s2,0x1f
    8000121c:	02079613          	slli	a2,a5,0x20
    80001220:	000c1683          	lh	a3,0(s8)
    80001224:	01680ab3          	add	s5,a6,s6
    80001228:	01f65a13          	srli	s4,a2,0x1f
    8000122c:	02099913          	slli	s2,s3,0x20
    80001230:	00031283          	lh	t0,0(t1)
    80001234:	00231c03          	lh	s8,2(t1)
    80001238:	000a9703          	lh	a4,0(s5)
    8000123c:	01f95b13          	srli	s6,s2,0x1f
    80001240:	014807b3          	add	a5,a6,s4
    80001244:	01680633          	add	a2,a6,s6
    80001248:	00431a83          	lh	s5,4(t1)
    8000124c:	00079783          	lh	a5,0(a5)
    80001250:	025682bb          	mulw	t0,a3,t0
    80001254:	00631a03          	lh	s4,6(t1)
    80001258:	00061903          	lh	s2,0(a2)
    8000125c:	0019861b          	addiw	a2,s3,1
    80001260:	00830313          	addi	t1,t1,8
    80001264:	038709bb          	mulw	s3,a4,s8
    80001268:	009284bb          	addw	s1,t0,s1
    8000126c:	03578c3b          	mulw	s8,a5,s5
    80001270:	0099873b          	addw	a4,s3,s1
    80001274:	034906bb          	mulw	a3,s2,s4
    80001278:	00ec0b3b          	addw	s6,s8,a4
    8000127c:	016684bb          	addw	s1,a3,s6
    80001280:	f7d61ee3          	bne	a2,t4,800011fc <matrix_test+0x970>
    80001284:	009fa023          	sw	s1,0(t6)
    80001288:	004f8f93          	addi	t6,t6,4
    8000128c:	01e88f3b          	addw	t5,a7,t5
    80001290:	00c88ebb          	addw	t4,a7,a2
    80001294:	ed7f9ae3          	bne	t6,s7,80001168 <matrix_test+0x8dc>
    80001298:	0004031b          	sext.w	t1,s0
    8000129c:	00088e93          	mv	t4,a7
    800012a0:	00000f13          	li	t5,0
    800012a4:	00000793          	li	a5,0
    800012a8:	00000293          	li	t0,0
    800012ac:	00000713          	li	a4,0
    800012b0:	00000f93          	li	t6,0
    800012b4:	41ee8bb3          	sub	s7,t4,t5
    800012b8:	003bfa93          	andi	s5,s7,3
    800012bc:	000f0613          	mv	a2,t5
    800012c0:	5c0a8463          	beqz	s5,80001888 <matrix_test+0xffc>
    800012c4:	00100a13          	li	s4,1
    800012c8:	074a8e63          	beq	s5,s4,80001344 <matrix_test+0xab8>
    800012cc:	00200913          	li	s2,2
    800012d0:	032a8e63          	beq	s5,s2,8000130c <matrix_test+0xa80>
    800012d4:	020f1613          	slli	a2,t5,0x20
    800012d8:	01e65993          	srli	s3,a2,0x1e
    800012dc:	013e04b3          	add	s1,t3,s3
    800012e0:	00028c13          	mv	s8,t0
    800012e4:	0004a283          	lw	t0,0(s1)
    800012e8:	03079793          	slli	a5,a5,0x30
    800012ec:	0307d693          	srli	a3,a5,0x30
    800012f0:	00e2873b          	addw	a4,t0,a4
    800012f4:	6ce352e3          	bge	t1,a4,800021b8 <matrix_test+0x192c>
    800012f8:	00a6871b          	addiw	a4,a3,10
    800012fc:	01071a1b          	slliw	s4,a4,0x10
    80001300:	410a579b          	sraiw	a5,s4,0x10
    80001304:	00000713          	li	a4,0
    80001308:	001f061b          	addiw	a2,t5,1
    8000130c:	02061913          	slli	s2,a2,0x20
    80001310:	01e95993          	srli	s3,s2,0x1e
    80001314:	013e0c33          	add	s8,t3,s3
    80001318:	00028493          	mv	s1,t0
    8000131c:	000c2283          	lw	t0,0(s8)
    80001320:	03079793          	slli	a5,a5,0x30
    80001324:	0307d693          	srli	a3,a5,0x30
    80001328:	00e2873b          	addw	a4,t0,a4
    8000132c:	66e35ce3          	bge	t1,a4,800021a4 <matrix_test+0x1918>
    80001330:	00a6871b          	addiw	a4,a3,10
    80001334:	01071a1b          	slliw	s4,a4,0x10
    80001338:	410a579b          	sraiw	a5,s4,0x10
    8000133c:	00000713          	li	a4,0
    80001340:	0016061b          	addiw	a2,a2,1
    80001344:	02061913          	slli	s2,a2,0x20
    80001348:	01e95993          	srli	s3,s2,0x1e
    8000134c:	013e0c33          	add	s8,t3,s3
    80001350:	00028493          	mv	s1,t0
    80001354:	000c2283          	lw	t0,0(s8)
    80001358:	03079793          	slli	a5,a5,0x30
    8000135c:	0307db13          	srli	s6,a5,0x30
    80001360:	00e2873b          	addw	a4,t0,a4
    80001364:	62e352e3          	bge	t1,a4,80002188 <matrix_test+0x18fc>
    80001368:	00ab071b          	addiw	a4,s6,10
    8000136c:	03071913          	slli	s2,a4,0x30
    80001370:	0107199b          	slliw	s3,a4,0x10
    80001374:	03095c13          	srli	s8,s2,0x30
    80001378:	4109d79b          	sraiw	a5,s3,0x10
    8000137c:	00000713          	li	a4,0
    80001380:	0016061b          	addiw	a2,a2,1
    80001384:	50ce9263          	bne	t4,a2,80001888 <matrix_test+0xffc>
    80001388:	001f8f9b          	addiw	t6,t6,1
    8000138c:	01d88ebb          	addw	t4,a7,t4
    80001390:	01e88f3b          	addw	t5,a7,t5
    80001394:	f3f890e3          	bne	a7,t6,800012b4 <matrix_test+0xa28>
    80001398:	0ff7fa93          	zext.b	s5,a5
    8000139c:	008c5b13          	srli	s6,s8,0x8
    800013a0:	00bac6b3          	xor	a3,s5,a1
    800013a4:	0016f293          	andi	t0,a3,1
    800013a8:	001adb93          	srli	s7,s5,0x1
    800013ac:	0015d493          	srli	s1,a1,0x1
    800013b0:	00028c63          	beqz	t0,800013c8 <matrix_test+0xb3c>
    800013b4:	ffffa737          	lui	a4,0xffffa
    800013b8:	00170a13          	addi	s4,a4,1 # ffffffffffffa001 <_pmem_end+0xffffffff77ffa001>
    800013bc:	0144c9b3          	xor	s3,s1,s4
    800013c0:	03099c13          	slli	s8,s3,0x30
    800013c4:	030c5493          	srli	s1,s8,0x30
    800013c8:	009bc7b3          	xor	a5,s7,s1
    800013cc:	0017f913          	andi	s2,a5,1
    800013d0:	002ad313          	srli	t1,s5,0x2
    800013d4:	0014df13          	srli	t5,s1,0x1
    800013d8:	00090c63          	beqz	s2,800013f0 <matrix_test+0xb64>
    800013dc:	ffffa637          	lui	a2,0xffffa
    800013e0:	00160593          	addi	a1,a2,1 # ffffffffffffa001 <_pmem_end+0xffffffff77ffa001>
    800013e4:	00bf4fb3          	xor	t6,t5,a1
    800013e8:	030f9e93          	slli	t4,t6,0x30
    800013ec:	030edf13          	srli	t5,t4,0x30
    800013f0:	01e346b3          	xor	a3,t1,t5
    800013f4:	0016f293          	andi	t0,a3,1
    800013f8:	003adb93          	srli	s7,s5,0x3
    800013fc:	001f5493          	srli	s1,t5,0x1
    80001400:	00028c63          	beqz	t0,80001418 <matrix_test+0xb8c>
    80001404:	ffffa737          	lui	a4,0xffffa
    80001408:	00170a13          	addi	s4,a4,1 # ffffffffffffa001 <_pmem_end+0xffffffff77ffa001>
    8000140c:	0144c9b3          	xor	s3,s1,s4
    80001410:	03099c13          	slli	s8,s3,0x30
    80001414:	030c5493          	srli	s1,s8,0x30
    80001418:	009bc7b3          	xor	a5,s7,s1
    8000141c:	0017f913          	andi	s2,a5,1
    80001420:	004ad313          	srli	t1,s5,0x4
    80001424:	0014df13          	srli	t5,s1,0x1
    80001428:	00090c63          	beqz	s2,80001440 <matrix_test+0xbb4>
    8000142c:	ffffa637          	lui	a2,0xffffa
    80001430:	00160593          	addi	a1,a2,1 # ffffffffffffa001 <_pmem_end+0xffffffff77ffa001>
    80001434:	00bf4fb3          	xor	t6,t5,a1
    80001438:	030f9e93          	slli	t4,t6,0x30
    8000143c:	030edf13          	srli	t5,t4,0x30
    80001440:	01e346b3          	xor	a3,t1,t5
    80001444:	0016f293          	andi	t0,a3,1
    80001448:	005adb93          	srli	s7,s5,0x5
    8000144c:	001f5493          	srli	s1,t5,0x1
    80001450:	00028c63          	beqz	t0,80001468 <matrix_test+0xbdc>
    80001454:	ffffa737          	lui	a4,0xffffa
    80001458:	00170a13          	addi	s4,a4,1 # ffffffffffffa001 <_pmem_end+0xffffffff77ffa001>
    8000145c:	0144c9b3          	xor	s3,s1,s4
    80001460:	03099c13          	slli	s8,s3,0x30
    80001464:	030c5493          	srli	s1,s8,0x30
    80001468:	009bc7b3          	xor	a5,s7,s1
    8000146c:	0017f913          	andi	s2,a5,1
    80001470:	006ad313          	srli	t1,s5,0x6
    80001474:	0014df13          	srli	t5,s1,0x1
    80001478:	00090c63          	beqz	s2,80001490 <matrix_test+0xc04>
    8000147c:	ffffa637          	lui	a2,0xffffa
    80001480:	00160593          	addi	a1,a2,1 # ffffffffffffa001 <_pmem_end+0xffffffff77ffa001>
    80001484:	00bf4fb3          	xor	t6,t5,a1
    80001488:	030f9e93          	slli	t4,t6,0x30
    8000148c:	030edf13          	srli	t5,t4,0x30
    80001490:	01e346b3          	xor	a3,t1,t5
    80001494:	0016f293          	andi	t0,a3,1
    80001498:	007ada93          	srli	s5,s5,0x7
    8000149c:	001f5c13          	srli	s8,t5,0x1
    800014a0:	00028c63          	beqz	t0,800014b8 <matrix_test+0xc2c>
    800014a4:	ffffabb7          	lui	s7,0xffffa
    800014a8:	001b8713          	addi	a4,s7,1 # ffffffffffffa001 <_pmem_end+0xffffffff77ffa001>
    800014ac:	00ec4a33          	xor	s4,s8,a4
    800014b0:	030a1993          	slli	s3,s4,0x30
    800014b4:	0309dc13          	srli	s8,s3,0x30
    800014b8:	001c7793          	andi	a5,s8,1
    800014bc:	001c5593          	srli	a1,s8,0x1
    800014c0:	01578c63          	beq	a5,s5,800014d8 <matrix_test+0xc4c>
    800014c4:	ffffa937          	lui	s2,0xffffa
    800014c8:	00190313          	addi	t1,s2,1 # ffffffffffffa001 <_pmem_end+0xffffffff77ffa001>
    800014cc:	0065c4b3          	xor	s1,a1,t1
    800014d0:	03049613          	slli	a2,s1,0x30
    800014d4:	03065593          	srli	a1,a2,0x30
    800014d8:	00bb4fb3          	xor	t6,s6,a1
    800014dc:	001ffe93          	andi	t4,t6,1
    800014e0:	001b5f13          	srli	t5,s6,0x1
    800014e4:	0015da13          	srli	s4,a1,0x1
    800014e8:	000e8c63          	beqz	t4,80001500 <matrix_test+0xc74>
    800014ec:	ffffa6b7          	lui	a3,0xffffa
    800014f0:	00168293          	addi	t0,a3,1 # ffffffffffffa001 <_pmem_end+0xffffffff77ffa001>
    800014f4:	005a4ab3          	xor	s5,s4,t0
    800014f8:	030a9b93          	slli	s7,s5,0x30
    800014fc:	030bda13          	srli	s4,s7,0x30
    80001500:	014f4733          	xor	a4,t5,s4
    80001504:	00177993          	andi	s3,a4,1
    80001508:	002b5c13          	srli	s8,s6,0x2
    8000150c:	001a5613          	srli	a2,s4,0x1
    80001510:	00098c63          	beqz	s3,80001528 <matrix_test+0xc9c>
    80001514:	ffffa7b7          	lui	a5,0xffffa
    80001518:	00178913          	addi	s2,a5,1 # ffffffffffffa001 <_pmem_end+0xffffffff77ffa001>
    8000151c:	01264333          	xor	t1,a2,s2
    80001520:	03031493          	slli	s1,t1,0x30
    80001524:	0304d613          	srli	a2,s1,0x30
    80001528:	00cc45b3          	xor	a1,s8,a2
    8000152c:	0015ff93          	andi	t6,a1,1
    80001530:	003b5e93          	srli	t4,s6,0x3
    80001534:	00165b93          	srli	s7,a2,0x1
    80001538:	000f8c63          	beqz	t6,80001550 <matrix_test+0xcc4>
    8000153c:	ffffaf37          	lui	t5,0xffffa
    80001540:	001f0693          	addi	a3,t5,1 # ffffffffffffa001 <_pmem_end+0xffffffff77ffa001>
    80001544:	00dbc2b3          	xor	t0,s7,a3
    80001548:	03029a93          	slli	s5,t0,0x30
    8000154c:	030adb93          	srli	s7,s5,0x30
    80001550:	017eca33          	xor	s4,t4,s7
    80001554:	001a7993          	andi	s3,s4,1
    80001558:	004b5713          	srli	a4,s6,0x4
    8000155c:	001bd493          	srli	s1,s7,0x1
    80001560:	00098c63          	beqz	s3,80001578 <matrix_test+0xcec>
    80001564:	ffffac37          	lui	s8,0xffffa
    80001568:	001c0793          	addi	a5,s8,1 # ffffffffffffa001 <_pmem_end+0xffffffff77ffa001>
    8000156c:	00f4c933          	xor	s2,s1,a5
    80001570:	03091313          	slli	t1,s2,0x30
    80001574:	03035493          	srli	s1,t1,0x30
    80001578:	00974633          	xor	a2,a4,s1
    8000157c:	00167593          	andi	a1,a2,1
    80001580:	005b5f93          	srli	t6,s6,0x5
    80001584:	0014da93          	srli	s5,s1,0x1
    80001588:	00058c63          	beqz	a1,800015a0 <matrix_test+0xd14>
    8000158c:	ffffaeb7          	lui	t4,0xffffa
    80001590:	001e8f13          	addi	t5,t4,1 # ffffffffffffa001 <_pmem_end+0xffffffff77ffa001>
    80001594:	01eac6b3          	xor	a3,s5,t5
    80001598:	03069293          	slli	t0,a3,0x30
    8000159c:	0302da93          	srli	s5,t0,0x30
    800015a0:	015fcbb3          	xor	s7,t6,s5
    800015a4:	001bfa13          	andi	s4,s7,1
    800015a8:	006b5993          	srli	s3,s6,0x6
    800015ac:	001ad313          	srli	t1,s5,0x1
    800015b0:	000a0c63          	beqz	s4,800015c8 <matrix_test+0xd3c>
    800015b4:	ffffa737          	lui	a4,0xffffa
    800015b8:	00170c13          	addi	s8,a4,1 # ffffffffffffa001 <_pmem_end+0xffffffff77ffa001>
    800015bc:	018347b3          	xor	a5,t1,s8
    800015c0:	03079913          	slli	s2,a5,0x30
    800015c4:	03095313          	srli	t1,s2,0x30
    800015c8:	0069c4b3          	xor	s1,s3,t1
    800015cc:	0014f613          	andi	a2,s1,1
    800015d0:	007b5b13          	srli	s6,s6,0x7
    800015d4:	00135693          	srli	a3,t1,0x1
    800015d8:	00060c63          	beqz	a2,800015f0 <matrix_test+0xd64>
    800015dc:	ffffa5b7          	lui	a1,0xffffa
    800015e0:	00158f93          	addi	t6,a1,1 # ffffffffffffa001 <_pmem_end+0xffffffff77ffa001>
    800015e4:	01f6ceb3          	xor	t4,a3,t6
    800015e8:	030e9f13          	slli	t5,t4,0x30
    800015ec:	030f5693          	srli	a3,t5,0x30
    800015f0:	0016f293          	andi	t0,a3,1
    800015f4:	0016d493          	srli	s1,a3,0x1
    800015f8:	01628c63          	beq	t0,s6,80001610 <matrix_test+0xd84>
    800015fc:	ffffaab7          	lui	s5,0xffffa
    80001600:	001a8b93          	addi	s7,s5,1 # ffffffffffffa001 <_pmem_end+0xffffffff77ffa001>
    80001604:	0174ca33          	xor	s4,s1,s7
    80001608:	030a1993          	slli	s3,s4,0x30
    8000160c:	0309d493          	srli	s1,s3,0x30
    80001610:	00088f93          	mv	t6,a7
    80001614:	00000293          	li	t0,0
    80001618:	00000913          	li	s2,0
    8000161c:	00000793          	li	a5,0
    80001620:	00000a13          	li	s4,0
    80001624:	2a088063          	beqz	a7,800018c4 <matrix_test+0x1038>
    80001628:	00000f13          	li	t5,0
    8000162c:	005f073b          	addw	a4,t5,t0
    80001630:	02071793          	slli	a5,a4,0x20
    80001634:	405f8c33          	sub	s8,t6,t0
    80001638:	01e7d313          	srli	t1,a5,0x1e
    8000163c:	003c7b13          	andi	s6,s8,3
    80001640:	006e0eb3          	add	t4,t3,t1
    80001644:	000f0713          	mv	a4,t5
    80001648:	00028793          	mv	a5,t0
    8000164c:	00000993          	li	s3,0
    80001650:	0a0b0263          	beqz	s6,800016f4 <matrix_test+0xe68>
    80001654:	00100613          	li	a2,1
    80001658:	06cb0463          	beq	s6,a2,800016c0 <matrix_test+0xe34>
    8000165c:	00200593          	li	a1,2
    80001660:	02bb0863          	beq	s6,a1,80001690 <matrix_test+0xe04>
    80001664:	02029693          	slli	a3,t0,0x20
    80001668:	020f1b93          	slli	s7,t5,0x20
    8000166c:	01f6da93          	srli	s5,a3,0x1f
    80001670:	01fbda13          	srli	s4,s7,0x1f
    80001674:	015809b3          	add	s3,a6,s5
    80001678:	01450733          	add	a4,a0,s4
    8000167c:	00071303          	lh	t1,0(a4)
    80001680:	00099c03          	lh	s8,0(s3)
    80001684:	0012879b          	addiw	a5,t0,1
    80001688:	01e8873b          	addw	a4,a7,t5
    8000168c:	026c09bb          	mulw	s3,s8,t1
    80001690:	02079b13          	slli	s6,a5,0x20
    80001694:	02071613          	slli	a2,a4,0x20
    80001698:	01fb5693          	srli	a3,s6,0x1f
    8000169c:	01f65593          	srli	a1,a2,0x1f
    800016a0:	00d80ab3          	add	s5,a6,a3
    800016a4:	00b50bb3          	add	s7,a0,a1
    800016a8:	000a9a03          	lh	s4,0(s5)
    800016ac:	000b9c03          	lh	s8,0(s7)
    800016b0:	0017879b          	addiw	a5,a5,1
    800016b4:	00e8873b          	addw	a4,a7,a4
    800016b8:	038a033b          	mulw	t1,s4,s8
    800016bc:	013309bb          	addw	s3,t1,s3
    800016c0:	02079b13          	slli	s6,a5,0x20
    800016c4:	02071613          	slli	a2,a4,0x20
    800016c8:	01fb5693          	srli	a3,s6,0x1f
    800016cc:	01f65593          	srli	a1,a2,0x1f
    800016d0:	00d80ab3          	add	s5,a6,a3
    800016d4:	00b50bb3          	add	s7,a0,a1
    800016d8:	000a9a03          	lh	s4,0(s5)
    800016dc:	000b9c03          	lh	s8,0(s7)
    800016e0:	0017879b          	addiw	a5,a5,1
    800016e4:	00e8873b          	addw	a4,a7,a4
    800016e8:	038a033b          	mulw	t1,s4,s8
    800016ec:	013309bb          	addw	s3,t1,s3
    800016f0:	0cff8463          	beq	t6,a5,800017b8 <matrix_test+0xf2c>
    800016f4:	00178b1b          	addiw	s6,a5,1
    800016f8:	00e885bb          	addw	a1,a7,a4
    800016fc:	001b0c1b          	addiw	s8,s6,1
    80001700:	02079693          	slli	a3,a5,0x20
    80001704:	02071613          	slli	a2,a4,0x20
    80001708:	020b1a13          	slli	s4,s6,0x20
    8000170c:	01f6da93          	srli	s5,a3,0x1f
    80001710:	01f65b93          	srli	s7,a2,0x1f
    80001714:	00b886bb          	addw	a3,a7,a1
    80001718:	01fa5313          	srli	t1,s4,0x1f
    8000171c:	02059b13          	slli	s6,a1,0x20
    80001720:	020c1613          	slli	a2,s8,0x20
    80001724:	00d88a3b          	addw	s4,a7,a3
    80001728:	015807b3          	add	a5,a6,s5
    8000172c:	01750733          	add	a4,a0,s7
    80001730:	001c0a9b          	addiw	s5,s8,1
    80001734:	01fb5593          	srli	a1,s6,0x1f
    80001738:	00680bb3          	add	s7,a6,t1
    8000173c:	01f65c13          	srli	s8,a2,0x1f
    80001740:	02069693          	slli	a3,a3,0x20
    80001744:	000b9303          	lh	t1,0(s7)
    80001748:	00079783          	lh	a5,0(a5)
    8000174c:	020a9b93          	slli	s7,s5,0x20
    80001750:	00071703          	lh	a4,0(a4)
    80001754:	01f6db13          	srli	s6,a3,0x1f
    80001758:	01880633          	add	a2,a6,s8
    8000175c:	00b505b3          	add	a1,a0,a1
    80001760:	020a1c13          	slli	s8,s4,0x20
    80001764:	00059583          	lh	a1,0(a1)
    80001768:	016506b3          	add	a3,a0,s6
    8000176c:	01fbdb13          	srli	s6,s7,0x1f
    80001770:	01fc5b93          	srli	s7,s8,0x1f
    80001774:	00061603          	lh	a2,0(a2)
    80001778:	00069683          	lh	a3,0(a3)
    8000177c:	01680b33          	add	s6,a6,s6
    80001780:	01750bb3          	add	s7,a0,s7
    80001784:	02e78c3b          	mulw	s8,a5,a4
    80001788:	000b1b03          	lh	s6,0(s6)
    8000178c:	000b9b83          	lh	s7,0(s7)
    80001790:	001a879b          	addiw	a5,s5,1
    80001794:	0148873b          	addw	a4,a7,s4
    80001798:	02b30abb          	mulw	s5,t1,a1
    8000179c:	013c09bb          	addw	s3,s8,s3
    800017a0:	02d60a3b          	mulw	s4,a2,a3
    800017a4:	013a833b          	addw	t1,s5,s3
    800017a8:	037b05bb          	mulw	a1,s6,s7
    800017ac:	006a063b          	addw	a2,s4,t1
    800017b0:	00c589bb          	addw	s3,a1,a2
    800017b4:	f4ff90e3          	bne	t6,a5,800016f4 <matrix_test+0xe68>
    800017b8:	013ea023          	sw	s3,0(t4)
    800017bc:	001f059b          	addiw	a1,t5,1
    800017c0:	16b886e3          	beq	a7,a1,8000212c <matrix_test+0x18a0>
    800017c4:	00058f13          	mv	t5,a1
    800017c8:	e65ff06f          	j	8000162c <matrix_test+0xda0>
    800017cc:	00d2a2b3          	slt	t0,t0,a3
    800017d0:	01728abb          	addw	s5,t0,s7
    800017d4:	010a9a1b          	slliw	s4,s5,0x10
    800017d8:	410a599b          	sraiw	s3,s4,0x10
    800017dc:	0016061b          	addiw	a2,a2,1
    800017e0:	02061493          	slli	s1,a2,0x20
    800017e4:	01e4db13          	srli	s6,s1,0x1e
    800017e8:	016e07b3          	add	a5,t3,s6
    800017ec:	0007ab83          	lw	s7,0(a5)
    800017f0:	03099293          	slli	t0,s3,0x30
    800017f4:	0302da93          	srli	s5,t0,0x30
    800017f8:	018b8a3b          	addw	s4,s7,s8
    800017fc:	17435ce3          	bge	t1,s4,80002174 <matrix_test+0x18e8>
    80001800:	00aa8c1b          	addiw	s8,s5,10
    80001804:	010c149b          	slliw	s1,s8,0x10
    80001808:	4104d99b          	sraiw	s3,s1,0x10
    8000180c:	00000a13          	li	s4,0
    80001810:	0016061b          	addiw	a2,a2,1
    80001814:	02061b13          	slli	s6,a2,0x20
    80001818:	01eb5793          	srli	a5,s6,0x1e
    8000181c:	00fe02b3          	add	t0,t3,a5
    80001820:	0002aa83          	lw	s5,0(t0)
    80001824:	03099693          	slli	a3,s3,0x30
    80001828:	0306d913          	srli	s2,a3,0x30
    8000182c:	014a8a3b          	addw	s4,s5,s4
    80001830:	134358e3          	bge	t1,s4,80002160 <matrix_test+0x18d4>
    80001834:	00a9049b          	addiw	s1,s2,10
    80001838:	01049b1b          	slliw	s6,s1,0x10
    8000183c:	410b5c1b          	sraiw	s8,s6,0x10
    80001840:	00000a13          	li	s4,0
    80001844:	0016069b          	addiw	a3,a2,1
    80001848:	02069613          	slli	a2,a3,0x20
    8000184c:	01e65793          	srli	a5,a2,0x1e
    80001850:	00fe02b3          	add	t0,t3,a5
    80001854:	0002a283          	lw	t0,0(t0)
    80001858:	030c1913          	slli	s2,s8,0x30
    8000185c:	03095b93          	srli	s7,s2,0x30
    80001860:	0142873b          	addw	a4,t0,s4
    80001864:	0ee350e3          	bge	t1,a4,80002144 <matrix_test+0x18b8>
    80001868:	00ab8b1b          	addiw	s6,s7,10
    8000186c:	030b1613          	slli	a2,s6,0x30
    80001870:	010b191b          	slliw	s2,s6,0x10
    80001874:	03065c13          	srli	s8,a2,0x30
    80001878:	4109579b          	sraiw	a5,s2,0x10
    8000187c:	00000713          	li	a4,0
    80001880:	0016861b          	addiw	a2,a3,1
    80001884:	b0ce82e3          	beq	t4,a2,80001388 <matrix_test+0xafc>
    80001888:	02061c13          	slli	s8,a2,0x20
    8000188c:	01ec5493          	srli	s1,s8,0x1e
    80001890:	009e0b33          	add	s6,t3,s1
    80001894:	000b2683          	lw	a3,0(s6)
    80001898:	03079793          	slli	a5,a5,0x30
    8000189c:	0307db93          	srli	s7,a5,0x30
    800018a0:	00e68c3b          	addw	s8,a3,a4
    800018a4:	f38354e3          	bge	t1,s8,800017cc <matrix_test+0xf40>
    800018a8:	00ab871b          	addiw	a4,s7,10
    800018ac:	0107191b          	slliw	s2,a4,0x10
    800018b0:	4109599b          	sraiw	s3,s2,0x10
    800018b4:	00000c13          	li	s8,0
    800018b8:	f25ff06f          	j	800017dc <matrix_test+0xf50>
    800018bc:	0ff7fa13          	zext.b	s4,a5
    800018c0:	0089d793          	srli	a5,s3,0x8
    800018c4:	009a4333          	xor	t1,s4,s1
    800018c8:	00137593          	andi	a1,t1,1
    800018cc:	001a5f13          	srli	t5,s4,0x1
    800018d0:	0014dc13          	srli	s8,s1,0x1
    800018d4:	00058c63          	beqz	a1,800018ec <matrix_test+0x1060>
    800018d8:	ffffa4b7          	lui	s1,0xffffa
    800018dc:	00148e93          	addi	t4,s1,1 # ffffffffffffa001 <_pmem_end+0xffffffff77ffa001>
    800018e0:	01dc4fb3          	xor	t6,s8,t4
    800018e4:	030f9293          	slli	t0,t6,0x30
    800018e8:	0302dc13          	srli	s8,t0,0x30
    800018ec:	018f46b3          	xor	a3,t5,s8
    800018f0:	0016fb13          	andi	s6,a3,1
    800018f4:	002a5713          	srli	a4,s4,0x2
    800018f8:	001c5913          	srli	s2,s8,0x1
    800018fc:	000b0c63          	beqz	s6,80001914 <matrix_test+0x1088>
    80001900:	ffffaab7          	lui	s5,0xffffa
    80001904:	001a8b93          	addi	s7,s5,1 # ffffffffffffa001 <_pmem_end+0xffffffff77ffa001>
    80001908:	01794633          	xor	a2,s2,s7
    8000190c:	03061993          	slli	s3,a2,0x30
    80001910:	0309d913          	srli	s2,s3,0x30
    80001914:	01274333          	xor	t1,a4,s2
    80001918:	00137593          	andi	a1,t1,1
    8000191c:	003a5f13          	srli	t5,s4,0x3
    80001920:	00195c13          	srli	s8,s2,0x1
    80001924:	00058c63          	beqz	a1,8000193c <matrix_test+0x10b0>
    80001928:	ffffa4b7          	lui	s1,0xffffa
    8000192c:	00148e93          	addi	t4,s1,1 # ffffffffffffa001 <_pmem_end+0xffffffff77ffa001>
    80001930:	01dc4fb3          	xor	t6,s8,t4
    80001934:	030f9293          	slli	t0,t6,0x30
    80001938:	0302dc13          	srli	s8,t0,0x30
    8000193c:	018f46b3          	xor	a3,t5,s8
    80001940:	0016fb13          	andi	s6,a3,1
    80001944:	004a5713          	srli	a4,s4,0x4
    80001948:	001c5913          	srli	s2,s8,0x1
    8000194c:	000b0c63          	beqz	s6,80001964 <matrix_test+0x10d8>
    80001950:	ffffaab7          	lui	s5,0xffffa
    80001954:	001a8b93          	addi	s7,s5,1 # ffffffffffffa001 <_pmem_end+0xffffffff77ffa001>
    80001958:	01794633          	xor	a2,s2,s7
    8000195c:	03061993          	slli	s3,a2,0x30
    80001960:	0309d913          	srli	s2,s3,0x30
    80001964:	01274333          	xor	t1,a4,s2
    80001968:	00137593          	andi	a1,t1,1
    8000196c:	005a5f13          	srli	t5,s4,0x5
    80001970:	00195c13          	srli	s8,s2,0x1
    80001974:	00058c63          	beqz	a1,8000198c <matrix_test+0x1100>
    80001978:	ffffa4b7          	lui	s1,0xffffa
    8000197c:	00148e93          	addi	t4,s1,1 # ffffffffffffa001 <_pmem_end+0xffffffff77ffa001>
    80001980:	01dc4fb3          	xor	t6,s8,t4
    80001984:	030f9293          	slli	t0,t6,0x30
    80001988:	0302dc13          	srli	s8,t0,0x30
    8000198c:	018f46b3          	xor	a3,t5,s8
    80001990:	0016fb13          	andi	s6,a3,1
    80001994:	006a5713          	srli	a4,s4,0x6
    80001998:	001c5913          	srli	s2,s8,0x1
    8000199c:	000b0c63          	beqz	s6,800019b4 <matrix_test+0x1128>
    800019a0:	ffffaab7          	lui	s5,0xffffa
    800019a4:	001a8b93          	addi	s7,s5,1 # ffffffffffffa001 <_pmem_end+0xffffffff77ffa001>
    800019a8:	01794633          	xor	a2,s2,s7
    800019ac:	03061993          	slli	s3,a2,0x30
    800019b0:	0309d913          	srli	s2,s3,0x30
    800019b4:	01274333          	xor	t1,a4,s2
    800019b8:	00137593          	andi	a1,t1,1
    800019bc:	007a5a13          	srli	s4,s4,0x7
    800019c0:	00195293          	srli	t0,s2,0x1
    800019c4:	00058c63          	beqz	a1,800019dc <matrix_test+0x1150>
    800019c8:	ffffaf37          	lui	t5,0xffffa
    800019cc:	001f0493          	addi	s1,t5,1 # ffffffffffffa001 <_pmem_end+0xffffffff77ffa001>
    800019d0:	0092ceb3          	xor	t4,t0,s1
    800019d4:	030e9f93          	slli	t6,t4,0x30
    800019d8:	030fd293          	srli	t0,t6,0x30
    800019dc:	0012fc13          	andi	s8,t0,1
    800019e0:	0012db93          	srli	s7,t0,0x1
    800019e4:	014c0c63          	beq	s8,s4,800019fc <matrix_test+0x1170>
    800019e8:	ffffa6b7          	lui	a3,0xffffa
    800019ec:	00168b13          	addi	s6,a3,1 # ffffffffffffa001 <_pmem_end+0xffffffff77ffa001>
    800019f0:	016bc733          	xor	a4,s7,s6
    800019f4:	03071a93          	slli	s5,a4,0x30
    800019f8:	030adb93          	srli	s7,s5,0x30
    800019fc:	0177c633          	xor	a2,a5,s7
    80001a00:	00167993          	andi	s3,a2,1
    80001a04:	0017d913          	srli	s2,a5,0x1
    80001a08:	001bd493          	srli	s1,s7,0x1
    80001a0c:	00098c63          	beqz	s3,80001a24 <matrix_test+0x1198>
    80001a10:	ffffa337          	lui	t1,0xffffa
    80001a14:	00130593          	addi	a1,t1,1 # ffffffffffffa001 <_pmem_end+0xffffffff77ffa001>
    80001a18:	00b4ca33          	xor	s4,s1,a1
    80001a1c:	030a1f13          	slli	t5,s4,0x30
    80001a20:	030f5493          	srli	s1,t5,0x30
    80001a24:	00994eb3          	xor	t4,s2,s1
    80001a28:	001eff93          	andi	t6,t4,1
    80001a2c:	0027dc13          	srli	s8,a5,0x2
    80001a30:	0014da93          	srli	s5,s1,0x1
    80001a34:	000f8c63          	beqz	t6,80001a4c <matrix_test+0x11c0>
    80001a38:	ffffa6b7          	lui	a3,0xffffa
    80001a3c:	00168b13          	addi	s6,a3,1 # ffffffffffffa001 <_pmem_end+0xffffffff77ffa001>
    80001a40:	016ac2b3          	xor	t0,s5,s6
    80001a44:	03029713          	slli	a4,t0,0x30
    80001a48:	03075a93          	srli	s5,a4,0x30
    80001a4c:	015c4bb3          	xor	s7,s8,s5
    80001a50:	001bf613          	andi	a2,s7,1
    80001a54:	0037d993          	srli	s3,a5,0x3
    80001a58:	001adf13          	srli	t5,s5,0x1
    80001a5c:	00060c63          	beqz	a2,80001a74 <matrix_test+0x11e8>
    80001a60:	ffffa937          	lui	s2,0xffffa
    80001a64:	00190313          	addi	t1,s2,1 # ffffffffffffa001 <_pmem_end+0xffffffff77ffa001>
    80001a68:	006f45b3          	xor	a1,t5,t1
    80001a6c:	03059a13          	slli	s4,a1,0x30
    80001a70:	030a5f13          	srli	t5,s4,0x30
    80001a74:	01e9c4b3          	xor	s1,s3,t5
    80001a78:	0014fe93          	andi	t4,s1,1
    80001a7c:	0047df93          	srli	t6,a5,0x4
    80001a80:	001f5a93          	srli	s5,t5,0x1
    80001a84:	000e8c63          	beqz	t4,80001a9c <matrix_test+0x1210>
    80001a88:	ffffac37          	lui	s8,0xffffa
    80001a8c:	001c0693          	addi	a3,s8,1 # ffffffffffffa001 <_pmem_end+0xffffffff77ffa001>
    80001a90:	00dacb33          	xor	s6,s5,a3
    80001a94:	030b1293          	slli	t0,s6,0x30
    80001a98:	0302da93          	srli	s5,t0,0x30
    80001a9c:	015fc733          	xor	a4,t6,s5
    80001aa0:	00177b93          	andi	s7,a4,1
    80001aa4:	0057d613          	srli	a2,a5,0x5
    80001aa8:	001ada13          	srli	s4,s5,0x1
    80001aac:	000b8c63          	beqz	s7,80001ac4 <matrix_test+0x1238>
    80001ab0:	ffffa9b7          	lui	s3,0xffffa
    80001ab4:	00198913          	addi	s2,s3,1 # ffffffffffffa001 <_pmem_end+0xffffffff77ffa001>
    80001ab8:	012a4333          	xor	t1,s4,s2
    80001abc:	03031593          	slli	a1,t1,0x30
    80001ac0:	0305da13          	srli	s4,a1,0x30
    80001ac4:	01464f33          	xor	t5,a2,s4
    80001ac8:	001f7493          	andi	s1,t5,1
    80001acc:	0067de93          	srli	t4,a5,0x6
    80001ad0:	001a5293          	srli	t0,s4,0x1
    80001ad4:	00048c63          	beqz	s1,80001aec <matrix_test+0x1260>
    80001ad8:	ffffafb7          	lui	t6,0xffffa
    80001adc:	001f8c13          	addi	s8,t6,1 # ffffffffffffa001 <_pmem_end+0xffffffff77ffa001>
    80001ae0:	0182c6b3          	xor	a3,t0,s8
    80001ae4:	03069b13          	slli	s6,a3,0x30
    80001ae8:	030b5293          	srli	t0,s6,0x30
    80001aec:	005ecab3          	xor	s5,t4,t0
    80001af0:	001af713          	andi	a4,s5,1
    80001af4:	0077d793          	srli	a5,a5,0x7
    80001af8:	0012d313          	srli	t1,t0,0x1
    80001afc:	00070c63          	beqz	a4,80001b14 <matrix_test+0x1288>
    80001b00:	ffffabb7          	lui	s7,0xffffa
    80001b04:	001b8613          	addi	a2,s7,1 # ffffffffffffa001 <_pmem_end+0xffffffff77ffa001>
    80001b08:	00c349b3          	xor	s3,t1,a2
    80001b0c:	03099913          	slli	s2,s3,0x30
    80001b10:	03095313          	srli	t1,s2,0x30
    80001b14:	00137593          	andi	a1,t1,1
    80001b18:	00135293          	srli	t0,t1,0x1
    80001b1c:	00f58c63          	beq	a1,a5,80001b34 <matrix_test+0x12a8>
    80001b20:	ffffaa37          	lui	s4,0xffffa
    80001b24:	001a0f13          	addi	t5,s4,1 # ffffffffffffa001 <_pmem_end+0xffffffff77ffa001>
    80001b28:	01e2c4b3          	xor	s1,t0,t5
    80001b2c:	03049e93          	slli	t4,s1,0x30
    80001b30:	030ed293          	srli	t0,t4,0x30
    80001b34:	00088e93          	mv	t4,a7
    80001b38:	00000f93          	li	t6,0
    80001b3c:	00000493          	li	s1,0
    80001b40:	00000713          	li	a4,0
    80001b44:	00000b13          	li	s6,0
    80001b48:	10088e63          	beqz	a7,80001c64 <matrix_test+0x13d8>
    80001b4c:	00000f13          	li	t5,0
    80001b50:	01ef8c3b          	addw	s8,t6,t5
    80001b54:	020c1b13          	slli	s6,s8,0x20
    80001b58:	41df86b3          	sub	a3,t6,t4
    80001b5c:	01eb5a93          	srli	s5,s6,0x1e
    80001b60:	0016f713          	andi	a4,a3,1
    80001b64:	015e0bb3          	add	s7,t3,s5
    80001b68:	000f8b13          	mv	s6,t6
    80001b6c:	000f0a93          	mv	s5,t5
    80001b70:	00000913          	li	s2,0
    80001b74:	04070463          	beqz	a4,80001bbc <matrix_test+0x1330>
    80001b78:	020f9793          	slli	a5,t6,0x20
    80001b7c:	020f1993          	slli	s3,t5,0x20
    80001b80:	01f7d613          	srli	a2,a5,0x1f
    80001b84:	01f9d913          	srli	s2,s3,0x1f
    80001b88:	00c80333          	add	t1,a6,a2
    80001b8c:	012505b3          	add	a1,a0,s2
    80001b90:	00031a03          	lh	s4,0(t1)
    80001b94:	00059c03          	lh	s8,0(a1)
    80001b98:	001f8b1b          	addiw	s6,t6,1
    80001b9c:	01e88abb          	addw	s5,a7,t5
    80001ba0:	038a06bb          	mulw	a3,s4,s8
    80001ba4:	4026d71b          	sraiw	a4,a3,0x2
    80001ba8:	4056d79b          	sraiw	a5,a3,0x5
    80001bac:	00f77613          	andi	a2,a4,15
    80001bb0:	07f7f993          	andi	s3,a5,127
    80001bb4:	03360933          	mul	s2,a2,s3
    80001bb8:	096e8863          	beq	t4,s6,80001c48 <matrix_test+0x13bc>
    80001bbc:	020b1313          	slli	t1,s6,0x20
    80001bc0:	020a9593          	slli	a1,s5,0x20
    80001bc4:	001b0b1b          	addiw	s6,s6,1
    80001bc8:	01588abb          	addw	s5,a7,s5
    80001bcc:	01f35a13          	srli	s4,t1,0x1f
    80001bd0:	01f5dc13          	srli	s8,a1,0x1f
    80001bd4:	020b1693          	slli	a3,s6,0x20
    80001bd8:	020a9993          	slli	s3,s5,0x20
    80001bdc:	01850633          	add	a2,a0,s8
    80001be0:	01f6d793          	srli	a5,a3,0x1f
    80001be4:	01f9d313          	srli	t1,s3,0x1f
    80001be8:	01480733          	add	a4,a6,s4
    80001bec:	00071a03          	lh	s4,0(a4)
    80001bf0:	00061583          	lh	a1,0(a2)
    80001bf4:	00f80c33          	add	s8,a6,a5
    80001bf8:	00650733          	add	a4,a0,t1
    80001bfc:	000c1603          	lh	a2,0(s8)
    80001c00:	00071683          	lh	a3,0(a4)
    80001c04:	02ba09bb          	mulw	s3,s4,a1
    80001c08:	001b0b1b          	addiw	s6,s6,1
    80001c0c:	01588abb          	addw	s5,a7,s5
    80001c10:	02d607bb          	mulw	a5,a2,a3
    80001c14:	4029d31b          	sraiw	t1,s3,0x2
    80001c18:	4059da1b          	sraiw	s4,s3,0x5
    80001c1c:	00f37593          	andi	a1,t1,15
    80001c20:	07fa7c13          	andi	s8,s4,127
    80001c24:	4027d61b          	sraiw	a2,a5,0x2
    80001c28:	4057d99b          	sraiw	s3,a5,0x5
    80001c2c:	0385873b          	mulw	a4,a1,s8
    80001c30:	00f67693          	andi	a3,a2,15
    80001c34:	07f9f793          	andi	a5,s3,127
    80001c38:	02f6833b          	mulw	t1,a3,a5
    80001c3c:	0127093b          	addw	s2,a4,s2
    80001c40:	0123093b          	addw	s2,t1,s2
    80001c44:	f76e9ce3          	bne	t4,s6,80001bbc <matrix_test+0x1330>
    80001c48:	012ba023          	sw	s2,0(s7)
    80001c4c:	001f059b          	addiw	a1,t5,1
    80001c50:	4cb88263          	beq	a7,a1,80002114 <matrix_test+0x1888>
    80001c54:	00058f13          	mv	t5,a1
    80001c58:	ef9ff06f          	j	80001b50 <matrix_test+0x12c4>
    80001c5c:	0ff7fb13          	zext.b	s6,a5
    80001c60:	0089d713          	srli	a4,s3,0x8
    80001c64:	005b4fb3          	xor	t6,s6,t0
    80001c68:	001ffa93          	andi	s5,t6,1
    80001c6c:	001b5c13          	srli	s8,s6,0x1
    80001c70:	0012da13          	srli	s4,t0,0x1
    80001c74:	000a8c63          	beqz	s5,80001c8c <matrix_test+0x1400>
    80001c78:	ffffa9b7          	lui	s3,0xffffa
    80001c7c:	00198693          	addi	a3,s3,1 # ffffffffffffa001 <_pmem_end+0xffffffff77ffa001>
    80001c80:	00da47b3          	xor	a5,s4,a3
    80001c84:	03079b93          	slli	s7,a5,0x30
    80001c88:	030bda13          	srli	s4,s7,0x30
    80001c8c:	014c4633          	xor	a2,s8,s4
    80001c90:	00167293          	andi	t0,a2,1
    80001c94:	002b5e13          	srli	t3,s6,0x2
    80001c98:	001a5e93          	srli	t4,s4,0x1
    80001c9c:	00028c63          	beqz	t0,80001cb4 <matrix_test+0x1428>
    80001ca0:	ffffa5b7          	lui	a1,0xffffa
    80001ca4:	00158f13          	addi	t5,a1,1 # ffffffffffffa001 <_pmem_end+0xffffffff77ffa001>
    80001ca8:	01eec933          	xor	s2,t4,t5
    80001cac:	03091313          	slli	t1,s2,0x30
    80001cb0:	03035e93          	srli	t4,t1,0x30
    80001cb4:	01de44b3          	xor	s1,t3,t4
    80001cb8:	0014f413          	andi	s0,s1,1
    80001cbc:	003b5513          	srli	a0,s6,0x3
    80001cc0:	001ed693          	srli	a3,t4,0x1
    80001cc4:	00040c63          	beqz	s0,80001cdc <matrix_test+0x1450>
    80001cc8:	ffffafb7          	lui	t6,0xffffa
    80001ccc:	001f8a93          	addi	s5,t6,1 # ffffffffffffa001 <_pmem_end+0xffffffff77ffa001>
    80001cd0:	0156cc33          	xor	s8,a3,s5
    80001cd4:	030c1993          	slli	s3,s8,0x30
    80001cd8:	0309d693          	srli	a3,s3,0x30
    80001cdc:	00d547b3          	xor	a5,a0,a3
    80001ce0:	0017fb93          	andi	s7,a5,1
    80001ce4:	004b5a13          	srli	s4,s6,0x4
    80001ce8:	0016df13          	srli	t5,a3,0x1
    80001cec:	000b8c63          	beqz	s7,80001d04 <matrix_test+0x1478>
    80001cf0:	ffffa637          	lui	a2,0xffffa
    80001cf4:	00160293          	addi	t0,a2,1 # ffffffffffffa001 <_pmem_end+0xffffffff77ffa001>
    80001cf8:	005f4e33          	xor	t3,t5,t0
    80001cfc:	030e1593          	slli	a1,t3,0x30
    80001d00:	0305df13          	srli	t5,a1,0x30
    80001d04:	01ea4933          	xor	s2,s4,t5
    80001d08:	00197313          	andi	t1,s2,1
    80001d0c:	005b5e93          	srli	t4,s6,0x5
    80001d10:	001f5a93          	srli	s5,t5,0x1
    80001d14:	00030c63          	beqz	t1,80001d2c <matrix_test+0x14a0>
    80001d18:	ffffa4b7          	lui	s1,0xffffa
    80001d1c:	00148413          	addi	s0,s1,1 # ffffffffffffa001 <_pmem_end+0xffffffff77ffa001>
    80001d20:	008ac533          	xor	a0,s5,s0
    80001d24:	03051f93          	slli	t6,a0,0x30
    80001d28:	030fda93          	srli	s5,t6,0x30
    80001d2c:	015ecc33          	xor	s8,t4,s5
    80001d30:	001c7993          	andi	s3,s8,1
    80001d34:	006b5693          	srli	a3,s6,0x6
    80001d38:	001ad293          	srli	t0,s5,0x1
    80001d3c:	00098c63          	beqz	s3,80001d54 <matrix_test+0x14c8>
    80001d40:	ffffabb7          	lui	s7,0xffffa
    80001d44:	001b8a13          	addi	s4,s7,1 # ffffffffffffa001 <_pmem_end+0xffffffff77ffa001>
    80001d48:	0142c7b3          	xor	a5,t0,s4
    80001d4c:	03079613          	slli	a2,a5,0x30
    80001d50:	03065293          	srli	t0,a2,0x30
    80001d54:	0056ce33          	xor	t3,a3,t0
    80001d58:	001e7593          	andi	a1,t3,1
    80001d5c:	007b5b13          	srli	s6,s6,0x7
    80001d60:	0012d493          	srli	s1,t0,0x1
    80001d64:	00058c63          	beqz	a1,80001d7c <matrix_test+0x14f0>
    80001d68:	ffffaf37          	lui	t5,0xffffa
    80001d6c:	001f0913          	addi	s2,t5,1 # ffffffffffffa001 <_pmem_end+0xffffffff77ffa001>
    80001d70:	0124c333          	xor	t1,s1,s2
    80001d74:	03031e93          	slli	t4,t1,0x30
    80001d78:	030ed493          	srli	s1,t4,0x30
    80001d7c:	0014f413          	andi	s0,s1,1
    80001d80:	0014d993          	srli	s3,s1,0x1
    80001d84:	01640c63          	beq	s0,s6,80001d9c <matrix_test+0x1510>
    80001d88:	ffffa537          	lui	a0,0xffffa
    80001d8c:	00150f93          	addi	t6,a0,1 # ffffffffffffa001 <_pmem_end+0xffffffff77ffa001>
    80001d90:	01f9cab3          	xor	s5,s3,t6
    80001d94:	030a9c13          	slli	s8,s5,0x30
    80001d98:	030c5993          	srli	s3,s8,0x30
    80001d9c:	013746b3          	xor	a3,a4,s3
    80001da0:	0016fb93          	andi	s7,a3,1
    80001da4:	00175a13          	srli	s4,a4,0x1
    80001da8:	0019d593          	srli	a1,s3,0x1
    80001dac:	000b8c63          	beqz	s7,80001dc4 <matrix_test+0x1538>
    80001db0:	ffffa637          	lui	a2,0xffffa
    80001db4:	00160293          	addi	t0,a2,1 # ffffffffffffa001 <_pmem_end+0xffffffff77ffa001>
    80001db8:	0055c7b3          	xor	a5,a1,t0
    80001dbc:	03079e13          	slli	t3,a5,0x30
    80001dc0:	030e5593          	srli	a1,t3,0x30
    80001dc4:	00ba4b33          	xor	s6,s4,a1
    80001dc8:	001b7f13          	andi	t5,s6,1
    80001dcc:	00275913          	srli	s2,a4,0x2
    80001dd0:	0015d513          	srli	a0,a1,0x1
    80001dd4:	000f0c63          	beqz	t5,80001dec <matrix_test+0x1560>
    80001dd8:	ffffa337          	lui	t1,0xffffa
    80001ddc:	00130e93          	addi	t4,t1,1 # ffffffffffffa001 <_pmem_end+0xffffffff77ffa001>
    80001de0:	01d544b3          	xor	s1,a0,t4
    80001de4:	03049413          	slli	s0,s1,0x30
    80001de8:	03045513          	srli	a0,s0,0x30
    80001dec:	00a94fb3          	xor	t6,s2,a0
    80001df0:	001ffa93          	andi	s5,t6,1
    80001df4:	00375c13          	srli	s8,a4,0x3
    80001df8:	00155293          	srli	t0,a0,0x1
    80001dfc:	000a8c63          	beqz	s5,80001e14 <matrix_test+0x1588>
    80001e00:	ffffa9b7          	lui	s3,0xffffa
    80001e04:	00198693          	addi	a3,s3,1 # ffffffffffffa001 <_pmem_end+0xffffffff77ffa001>
    80001e08:	00d2cbb3          	xor	s7,t0,a3
    80001e0c:	030b9a13          	slli	s4,s7,0x30
    80001e10:	030a5293          	srli	t0,s4,0x30
    80001e14:	005c4633          	xor	a2,s8,t0
    80001e18:	00167e13          	andi	t3,a2,1
    80001e1c:	00475593          	srli	a1,a4,0x4
    80001e20:	0012d313          	srli	t1,t0,0x1
    80001e24:	000e0c63          	beqz	t3,80001e3c <matrix_test+0x15b0>
    80001e28:	ffffab37          	lui	s6,0xffffa
    80001e2c:	001b0f13          	addi	t5,s6,1 # ffffffffffffa001 <_pmem_end+0xffffffff77ffa001>
    80001e30:	01e347b3          	xor	a5,t1,t5
    80001e34:	03079913          	slli	s2,a5,0x30
    80001e38:	03095313          	srli	t1,s2,0x30
    80001e3c:	0065ceb3          	xor	t4,a1,t1
    80001e40:	001ef493          	andi	s1,t4,1
    80001e44:	00575413          	srli	s0,a4,0x5
    80001e48:	00135993          	srli	s3,t1,0x1
    80001e4c:	00048c63          	beqz	s1,80001e64 <matrix_test+0x15d8>
    80001e50:	ffffa537          	lui	a0,0xffffa
    80001e54:	00150f93          	addi	t6,a0,1 # ffffffffffffa001 <_pmem_end+0xffffffff77ffa001>
    80001e58:	01f9cab3          	xor	s5,s3,t6
    80001e5c:	030a9c13          	slli	s8,s5,0x30
    80001e60:	030c5993          	srli	s3,s8,0x30
    80001e64:	013446b3          	xor	a3,s0,s3
    80001e68:	0016fb93          	andi	s7,a3,1
    80001e6c:	00675a13          	srli	s4,a4,0x6
    80001e70:	0019db13          	srli	s6,s3,0x1
    80001e74:	000b8c63          	beqz	s7,80001e8c <matrix_test+0x1600>
    80001e78:	ffffa2b7          	lui	t0,0xffffa
    80001e7c:	00128613          	addi	a2,t0,1 # ffffffffffffa001 <_pmem_end+0xffffffff77ffa001>
    80001e80:	00cb4e33          	xor	t3,s6,a2
    80001e84:	030e1593          	slli	a1,t3,0x30
    80001e88:	0305db13          	srli	s6,a1,0x30
    80001e8c:	016a4f33          	xor	t5,s4,s6
    80001e90:	001f7913          	andi	s2,t5,1
    80001e94:	00775713          	srli	a4,a4,0x7
    80001e98:	001b5413          	srli	s0,s6,0x1
    80001e9c:	00090c63          	beqz	s2,80001eb4 <matrix_test+0x1628>
    80001ea0:	ffffa337          	lui	t1,0xffffa
    80001ea4:	00130e93          	addi	t4,t1,1 # ffffffffffffa001 <_pmem_end+0xffffffff77ffa001>
    80001ea8:	01d447b3          	xor	a5,s0,t4
    80001eac:	03079493          	slli	s1,a5,0x30
    80001eb0:	0304d413          	srli	s0,s1,0x30
    80001eb4:	00147f93          	andi	t6,s0,1
    80001eb8:	00145513          	srli	a0,s0,0x1
    80001ebc:	00ef8c63          	beq	t6,a4,80001ed4 <matrix_test+0x1648>
    80001ec0:	ffffaab7          	lui	s5,0xffffa
    80001ec4:	001a8c13          	addi	s8,s5,1 # ffffffffffffa001 <_pmem_end+0xffffffff77ffa001>
    80001ec8:	01854533          	xor	a0,a0,s8
    80001ecc:	03051993          	slli	s3,a0,0x30
    80001ed0:	0309d513          	srli	a0,s3,0x30
    80001ed4:	00088693          	mv	a3,a7
    80001ed8:	00000593          	li	a1,0
    80001edc:	00000313          	li	t1,0
    80001ee0:	20088063          	beqz	a7,800020e0 <matrix_test+0x1854>
    80001ee4:	40b68bb3          	sub	s7,a3,a1
    80001ee8:	007bfa13          	andi	s4,s7,7
    80001eec:	00058793          	mv	a5,a1
    80001ef0:	0e0a0e63          	beqz	s4,80001fec <matrix_test+0x1760>
    80001ef4:	00100293          	li	t0,1
    80001ef8:	0c5a0a63          	beq	s4,t0,80001fcc <matrix_test+0x1740>
    80001efc:	00200613          	li	a2,2
    80001f00:	0aca0863          	beq	s4,a2,80001fb0 <matrix_test+0x1724>
    80001f04:	00300e13          	li	t3,3
    80001f08:	09ca0663          	beq	s4,t3,80001f94 <matrix_test+0x1708>
    80001f0c:	00400b13          	li	s6,4
    80001f10:	076a0463          	beq	s4,s6,80001f78 <matrix_test+0x16ec>
    80001f14:	00500f13          	li	t5,5
    80001f18:	05ea0263          	beq	s4,t5,80001f5c <matrix_test+0x16d0>
    80001f1c:	00600913          	li	s2,6
    80001f20:	032a0063          	beq	s4,s2,80001f40 <matrix_test+0x16b4>
    80001f24:	02059713          	slli	a4,a1,0x20
    80001f28:	01f75e93          	srli	t4,a4,0x1f
    80001f2c:	01d804b3          	add	s1,a6,t4
    80001f30:	0004d403          	lhu	s0,0(s1)
    80001f34:	0015879b          	addiw	a5,a1,1
    80001f38:	40740fbb          	subw	t6,s0,t2
    80001f3c:	01f49023          	sh	t6,0(s1)
    80001f40:	02079a93          	slli	s5,a5,0x20
    80001f44:	01fadc13          	srli	s8,s5,0x1f
    80001f48:	018809b3          	add	s3,a6,s8
    80001f4c:	0009db83          	lhu	s7,0(s3)
    80001f50:	0017879b          	addiw	a5,a5,1
    80001f54:	407b8a3b          	subw	s4,s7,t2
    80001f58:	01499023          	sh	s4,0(s3)
    80001f5c:	02079293          	slli	t0,a5,0x20
    80001f60:	01f2d613          	srli	a2,t0,0x1f
    80001f64:	00c80e33          	add	t3,a6,a2
    80001f68:	000e5b03          	lhu	s6,0(t3)
    80001f6c:	0017879b          	addiw	a5,a5,1
    80001f70:	407b0f3b          	subw	t5,s6,t2
    80001f74:	01ee1023          	sh	t5,0(t3)
    80001f78:	02079913          	slli	s2,a5,0x20
    80001f7c:	01f95713          	srli	a4,s2,0x1f
    80001f80:	00e80eb3          	add	t4,a6,a4
    80001f84:	000ed483          	lhu	s1,0(t4)
    80001f88:	0017879b          	addiw	a5,a5,1
    80001f8c:	4074843b          	subw	s0,s1,t2
    80001f90:	008e9023          	sh	s0,0(t4)
    80001f94:	02079f93          	slli	t6,a5,0x20
    80001f98:	01ffda93          	srli	s5,t6,0x1f
    80001f9c:	01580c33          	add	s8,a6,s5
    80001fa0:	000c5983          	lhu	s3,0(s8)
    80001fa4:	0017879b          	addiw	a5,a5,1
    80001fa8:	40798bbb          	subw	s7,s3,t2
    80001fac:	017c1023          	sh	s7,0(s8)
    80001fb0:	02079a13          	slli	s4,a5,0x20
    80001fb4:	01fa5293          	srli	t0,s4,0x1f
    80001fb8:	00580e33          	add	t3,a6,t0
    80001fbc:	000e5603          	lhu	a2,0(t3)
    80001fc0:	0017879b          	addiw	a5,a5,1
    80001fc4:	40760b3b          	subw	s6,a2,t2
    80001fc8:	016e1023          	sh	s6,0(t3)
    80001fcc:	02079f13          	slli	t5,a5,0x20
    80001fd0:	01ff5913          	srli	s2,t5,0x1f
    80001fd4:	01280733          	add	a4,a6,s2
    80001fd8:	00075e83          	lhu	t4,0(a4)
    80001fdc:	0017879b          	addiw	a5,a5,1
    80001fe0:	407e84bb          	subw	s1,t4,t2
    80001fe4:	00971023          	sh	s1,0(a4)
    80001fe8:	0ef68463          	beq	a3,a5,800020d0 <matrix_test+0x1844>
    80001fec:	02079f93          	slli	t6,a5,0x20
    80001ff0:	01ffda93          	srli	s5,t6,0x1f
    80001ff4:	01580c33          	add	s8,a6,s5
    80001ff8:	000c5983          	lhu	s3,0(s8)
    80001ffc:	00178b9b          	addiw	s7,a5,1
    80002000:	020b9a13          	slli	s4,s7,0x20
    80002004:	01fa5293          	srli	t0,s4,0x1f
    80002008:	40798e3b          	subw	t3,s3,t2
    8000200c:	01cc1023          	sh	t3,0(s8)
    80002010:	00580b33          	add	s6,a6,t0
    80002014:	000b5f03          	lhu	t5,0(s6)
    80002018:	001b891b          	addiw	s2,s7,1
    8000201c:	02091613          	slli	a2,s2,0x20
    80002020:	01f65713          	srli	a4,a2,0x1f
    80002024:	407f0ebb          	subw	t4,t5,t2
    80002028:	01db1023          	sh	t4,0(s6)
    8000202c:	00e804b3          	add	s1,a6,a4
    80002030:	0004d403          	lhu	s0,0(s1)
    80002034:	0019079b          	addiw	a5,s2,1
    80002038:	02079f93          	slli	t6,a5,0x20
    8000203c:	01ffda93          	srli	s5,t6,0x1f
    80002040:	40740c3b          	subw	s8,s0,t2
    80002044:	01849023          	sh	s8,0(s1)
    80002048:	015809b3          	add	s3,a6,s5
    8000204c:	0009db83          	lhu	s7,0(s3)
    80002050:	00178a1b          	addiw	s4,a5,1
    80002054:	020a1293          	slli	t0,s4,0x20
    80002058:	01f2db13          	srli	s6,t0,0x1f
    8000205c:	407b8e3b          	subw	t3,s7,t2
    80002060:	01c99023          	sh	t3,0(s3)
    80002064:	01680f33          	add	t5,a6,s6
    80002068:	000f5903          	lhu	s2,0(t5)
    8000206c:	001a061b          	addiw	a2,s4,1
    80002070:	02061713          	slli	a4,a2,0x20
    80002074:	01f75e93          	srli	t4,a4,0x1f
    80002078:	407904bb          	subw	s1,s2,t2
    8000207c:	009f1023          	sh	s1,0(t5)
    80002080:	01d80433          	add	s0,a6,t4
    80002084:	00045f83          	lhu	t6,0(s0) # fffffffffffff000 <_pmem_end+0xffffffff77fff000>
    80002088:	0016079b          	addiw	a5,a2,1
    8000208c:	02079a93          	slli	s5,a5,0x20
    80002090:	01fadc13          	srli	s8,s5,0x1f
    80002094:	407f89bb          	subw	s3,t6,t2
    80002098:	01341023          	sh	s3,0(s0)
    8000209c:	01880bb3          	add	s7,a6,s8
    800020a0:	000bda03          	lhu	s4,0(s7)
    800020a4:	0017879b          	addiw	a5,a5,1
    800020a8:	02079293          	slli	t0,a5,0x20
    800020ac:	01f2d913          	srli	s2,t0,0x1f
    800020b0:	407a0b3b          	subw	s6,s4,t2
    800020b4:	016b9023          	sh	s6,0(s7)
    800020b8:	01280733          	add	a4,a6,s2
    800020bc:	00075e83          	lhu	t4,0(a4)
    800020c0:	0017879b          	addiw	a5,a5,1
    800020c4:	407e84bb          	subw	s1,t4,t2
    800020c8:	00971023          	sh	s1,0(a4)
    800020cc:	f2f690e3          	bne	a3,a5,80001fec <matrix_test+0x1760>
    800020d0:	0013031b          	addiw	t1,t1,1
    800020d4:	00b885bb          	addw	a1,a7,a1
    800020d8:	00d886bb          	addw	a3,a7,a3
    800020dc:	e06894e3          	bne	a7,t1,80001ee4 <matrix_test+0x1658>
    800020e0:	0105141b          	slliw	s0,a0,0x10
    800020e4:	4104551b          	sraiw	a0,s0,0x10
    800020e8:	04813403          	ld	s0,72(sp)
    800020ec:	04013483          	ld	s1,64(sp)
    800020f0:	03813903          	ld	s2,56(sp)
    800020f4:	03013983          	ld	s3,48(sp)
    800020f8:	02813a03          	ld	s4,40(sp)
    800020fc:	02013a83          	ld	s5,32(sp)
    80002100:	01813b03          	ld	s6,24(sp)
    80002104:	01013b83          	ld	s7,16(sp)
    80002108:	00813c03          	ld	s8,8(sp)
    8000210c:	05010113          	addi	sp,sp,80
    80002110:	00008067          	ret
    80002114:	00148b9b          	addiw	s7,s1,1
    80002118:	011f8fbb          	addw	t6,t6,a7
    8000211c:	011e8ebb          	addw	t4,t4,a7
    80002120:	31e48863          	beq	s1,t5,80002430 <matrix_test+0x1ba4>
    80002124:	000b8493          	mv	s1,s7
    80002128:	a25ff06f          	j	80001b4c <matrix_test+0x12c0>
    8000212c:	00190e9b          	addiw	t4,s2,1
    80002130:	005882bb          	addw	t0,a7,t0
    80002134:	01f88fbb          	addw	t6,a7,t6
    80002138:	092f0a63          	beq	t5,s2,800021cc <matrix_test+0x1940>
    8000213c:	000e8913          	mv	s2,t4
    80002140:	ce8ff06f          	j	80001628 <matrix_test+0xd9c>
    80002144:	005aaab3          	slt	s5,s5,t0
    80002148:	017a8a3b          	addw	s4,s5,s7
    8000214c:	030a1993          	slli	s3,s4,0x30
    80002150:	010a149b          	slliw	s1,s4,0x10
    80002154:	0309dc13          	srli	s8,s3,0x30
    80002158:	4104d79b          	sraiw	a5,s1,0x10
    8000215c:	f24ff06f          	j	80001880 <matrix_test+0xff4>
    80002160:	015babb3          	slt	s7,s7,s5
    80002164:	012b873b          	addw	a4,s7,s2
    80002168:	0107199b          	slliw	s3,a4,0x10
    8000216c:	4109dc1b          	sraiw	s8,s3,0x10
    80002170:	ed4ff06f          	j	80001844 <matrix_test+0xfb8>
    80002174:	0176a6b3          	slt	a3,a3,s7
    80002178:	0156873b          	addw	a4,a3,s5
    8000217c:	0107191b          	slliw	s2,a4,0x10
    80002180:	4109599b          	sraiw	s3,s2,0x10
    80002184:	e8cff06f          	j	80001810 <matrix_test+0xf84>
    80002188:	0054a6b3          	slt	a3,s1,t0
    8000218c:	01668bbb          	addw	s7,a3,s6
    80002190:	030b9a93          	slli	s5,s7,0x30
    80002194:	010b9a1b          	slliw	s4,s7,0x10
    80002198:	030adc13          	srli	s8,s5,0x30
    8000219c:	410a579b          	sraiw	a5,s4,0x10
    800021a0:	9e0ff06f          	j	80001380 <matrix_test+0xaf4>
    800021a4:	0054ab33          	slt	s6,s1,t0
    800021a8:	00db0bbb          	addw	s7,s6,a3
    800021ac:	010b9a9b          	slliw	s5,s7,0x10
    800021b0:	410ad79b          	sraiw	a5,s5,0x10
    800021b4:	98cff06f          	j	80001340 <matrix_test+0xab4>
    800021b8:	005c2b33          	slt	s6,s8,t0
    800021bc:	00db0bbb          	addw	s7,s6,a3
    800021c0:	010b9a9b          	slliw	s5,s7,0x10
    800021c4:	410ad79b          	sraiw	a5,s5,0x10
    800021c8:	940ff06f          	j	80001308 <matrix_test+0xa7c>
    800021cc:	0004031b          	sext.w	t1,s0
    800021d0:	00088e93          	mv	t4,a7
    800021d4:	00000f93          	li	t6,0
    800021d8:	00000793          	li	a5,0
    800021dc:	00000a13          	li	s4,0
    800021e0:	00000713          	li	a4,0
    800021e4:	00000293          	li	t0,0
    800021e8:	41fe8933          	sub	s2,t4,t6
    800021ec:	00397693          	andi	a3,s2,3
    800021f0:	000f8913          	mv	s2,t6
    800021f4:	0c068463          	beqz	a3,800022bc <matrix_test+0x1a30>
    800021f8:	00100c13          	li	s8,1
    800021fc:	07868e63          	beq	a3,s8,80002278 <matrix_test+0x19ec>
    80002200:	00200b13          	li	s6,2
    80002204:	03668e63          	beq	a3,s6,80002240 <matrix_test+0x19b4>
    80002208:	020f9b93          	slli	s7,t6,0x20
    8000220c:	01ebda93          	srli	s5,s7,0x1e
    80002210:	015e09b3          	add	s3,t3,s5
    80002214:	000a0613          	mv	a2,s4
    80002218:	0009aa03          	lw	s4,0(s3)
    8000221c:	03079793          	slli	a5,a5,0x30
    80002220:	0307d913          	srli	s2,a5,0x30
    80002224:	00ea073b          	addw	a4,s4,a4
    80002228:	1ee35a63          	bge	t1,a4,8000241c <matrix_test+0x1b90>
    8000222c:	00a9071b          	addiw	a4,s2,10
    80002230:	01071b9b          	slliw	s7,a4,0x10
    80002234:	410bd79b          	sraiw	a5,s7,0x10
    80002238:	00000713          	li	a4,0
    8000223c:	001f891b          	addiw	s2,t6,1
    80002240:	02091a93          	slli	s5,s2,0x20
    80002244:	01ead993          	srli	s3,s5,0x1e
    80002248:	013e06b3          	add	a3,t3,s3
    8000224c:	000a0613          	mv	a2,s4
    80002250:	0006aa03          	lw	s4,0(a3)
    80002254:	03079793          	slli	a5,a5,0x30
    80002258:	0307dc13          	srli	s8,a5,0x30
    8000225c:	00ea073b          	addw	a4,s4,a4
    80002260:	1ae35463          	bge	t1,a4,80002408 <matrix_test+0x1b7c>
    80002264:	00ac071b          	addiw	a4,s8,10
    80002268:	0107199b          	slliw	s3,a4,0x10
    8000226c:	4109d79b          	sraiw	a5,s3,0x10
    80002270:	00000713          	li	a4,0
    80002274:	0019091b          	addiw	s2,s2,1
    80002278:	02091693          	slli	a3,s2,0x20
    8000227c:	01e6d613          	srli	a2,a3,0x1e
    80002280:	00ce0c33          	add	s8,t3,a2
    80002284:	000a0b13          	mv	s6,s4
    80002288:	000c2a03          	lw	s4,0(s8)
    8000228c:	03079793          	slli	a5,a5,0x30
    80002290:	0307d993          	srli	s3,a5,0x30
    80002294:	00ea073b          	addw	a4,s4,a4
    80002298:	10e34c63          	blt	t1,a4,800023b0 <matrix_test+0x1b24>
    8000229c:	014b2bb3          	slt	s7,s6,s4
    800022a0:	013b8abb          	addw	s5,s7,s3
    800022a4:	030a9993          	slli	s3,s5,0x30
    800022a8:	010a969b          	slliw	a3,s5,0x10
    800022ac:	0309d993          	srli	s3,s3,0x30
    800022b0:	4106d79b          	sraiw	a5,a3,0x10
    800022b4:	0019091b          	addiw	s2,s2,1
    800022b8:	0f2e8063          	beq	t4,s2,80002398 <matrix_test+0x1b0c>
    800022bc:	02091b93          	slli	s7,s2,0x20
    800022c0:	01ebda93          	srli	s5,s7,0x1e
    800022c4:	015e09b3          	add	s3,t3,s5
    800022c8:	0009a683          	lw	a3,0(s3)
    800022cc:	03079613          	slli	a2,a5,0x30
    800022d0:	03065c13          	srli	s8,a2,0x30
    800022d4:	00e6873b          	addw	a4,a3,a4
    800022d8:	10e34e63          	blt	t1,a4,800023f4 <matrix_test+0x1b68>
    800022dc:	00da2b33          	slt	s6,s4,a3
    800022e0:	018b0a3b          	addw	s4,s6,s8
    800022e4:	010a179b          	slliw	a5,s4,0x10
    800022e8:	4107da9b          	sraiw	s5,a5,0x10
    800022ec:	0019091b          	addiw	s2,s2,1
    800022f0:	02091993          	slli	s3,s2,0x20
    800022f4:	01e9d613          	srli	a2,s3,0x1e
    800022f8:	00ce0c33          	add	s8,t3,a2
    800022fc:	000c2b03          	lw	s6,0(s8)
    80002300:	030a9a13          	slli	s4,s5,0x30
    80002304:	030a5793          	srli	a5,s4,0x30
    80002308:	00eb0bbb          	addw	s7,s6,a4
    8000230c:	0d735a63          	bge	t1,s7,800023e0 <matrix_test+0x1b54>
    80002310:	00a7899b          	addiw	s3,a5,10
    80002314:	0109961b          	slliw	a2,s3,0x10
    80002318:	41065c1b          	sraiw	s8,a2,0x10
    8000231c:	00000b93          	li	s7,0
    80002320:	00190a1b          	addiw	s4,s2,1
    80002324:	020a1913          	slli	s2,s4,0x20
    80002328:	01e95793          	srli	a5,s2,0x1e
    8000232c:	00fe06b3          	add	a3,t3,a5
    80002330:	0006aa83          	lw	s5,0(a3)
    80002334:	030c1713          	slli	a4,s8,0x30
    80002338:	03075c13          	srli	s8,a4,0x30
    8000233c:	017a8bbb          	addw	s7,s5,s7
    80002340:	09735663          	bge	t1,s7,800023cc <matrix_test+0x1b40>
    80002344:	00ac091b          	addiw	s2,s8,10
    80002348:	0109169b          	slliw	a3,s2,0x10
    8000234c:	4106d79b          	sraiw	a5,a3,0x10
    80002350:	00000b93          	li	s7,0
    80002354:	001a091b          	addiw	s2,s4,1
    80002358:	02091a13          	slli	s4,s2,0x20
    8000235c:	01ea5713          	srli	a4,s4,0x1e
    80002360:	00ee0c33          	add	s8,t3,a4
    80002364:	000c2a03          	lw	s4,0(s8)
    80002368:	03079b13          	slli	s6,a5,0x30
    8000236c:	030b5993          	srli	s3,s6,0x30
    80002370:	017a073b          	addw	a4,s4,s7
    80002374:	02e34e63          	blt	t1,a4,800023b0 <matrix_test+0x1b24>
    80002378:	014aaab3          	slt	s5,s5,s4
    8000237c:	013a8bbb          	addw	s7,s5,s3
    80002380:	030b9613          	slli	a2,s7,0x30
    80002384:	010b979b          	slliw	a5,s7,0x10
    80002388:	0019091b          	addiw	s2,s2,1
    8000238c:	03065993          	srli	s3,a2,0x30
    80002390:	4107d79b          	sraiw	a5,a5,0x10
    80002394:	f32e94e3          	bne	t4,s2,800022bc <matrix_test+0x1a30>
    80002398:	00128b1b          	addiw	s6,t0,1
    8000239c:	01d58ebb          	addw	t4,a1,t4
    800023a0:	01f58fbb          	addw	t6,a1,t6
    800023a4:	d05f0c63          	beq	t5,t0,800018bc <matrix_test+0x1030>
    800023a8:	000b0293          	mv	t0,s6
    800023ac:	e3dff06f          	j	800021e8 <matrix_test+0x195c>
    800023b0:	00a9871b          	addiw	a4,s3,10
    800023b4:	03071613          	slli	a2,a4,0x30
    800023b8:	01071c1b          	slliw	s8,a4,0x10
    800023bc:	03065993          	srli	s3,a2,0x30
    800023c0:	410c579b          	sraiw	a5,s8,0x10
    800023c4:	00000713          	li	a4,0
    800023c8:	eedff06f          	j	800022b4 <matrix_test+0x1a28>
    800023cc:	015b2b33          	slt	s6,s6,s5
    800023d0:	018b09bb          	addw	s3,s6,s8
    800023d4:	0109961b          	slliw	a2,s3,0x10
    800023d8:	4106579b          	sraiw	a5,a2,0x10
    800023dc:	f79ff06f          	j	80002354 <matrix_test+0x1ac8>
    800023e0:	0166a6b3          	slt	a3,a3,s6
    800023e4:	00f68abb          	addw	s5,a3,a5
    800023e8:	010a971b          	slliw	a4,s5,0x10
    800023ec:	41075c1b          	sraiw	s8,a4,0x10
    800023f0:	f31ff06f          	j	80002320 <matrix_test+0x1a94>
    800023f4:	00ac071b          	addiw	a4,s8,10
    800023f8:	01071b9b          	slliw	s7,a4,0x10
    800023fc:	410bda9b          	sraiw	s5,s7,0x10
    80002400:	00000713          	li	a4,0
    80002404:	ee9ff06f          	j	800022ec <matrix_test+0x1a60>
    80002408:	01462b33          	slt	s6,a2,s4
    8000240c:	018b0bbb          	addw	s7,s6,s8
    80002410:	010b9a9b          	slliw	s5,s7,0x10
    80002414:	410ad79b          	sraiw	a5,s5,0x10
    80002418:	e5dff06f          	j	80002274 <matrix_test+0x19e8>
    8000241c:	014626b3          	slt	a3,a2,s4
    80002420:	01268c3b          	addw	s8,a3,s2
    80002424:	010c1b1b          	slliw	s6,s8,0x10
    80002428:	410b579b          	sraiw	a5,s6,0x10
    8000242c:	e11ff06f          	j	8000223c <matrix_test+0x19b0>
    80002430:	0004041b          	sext.w	s0,s0
    80002434:	00088513          	mv	a0,a7
    80002438:	00000313          	li	t1,0
    8000243c:	00000793          	li	a5,0
    80002440:	00000f93          	li	t6,0
    80002444:	00000713          	li	a4,0
    80002448:	00000e93          	li	t4,0
    8000244c:	406504b3          	sub	s1,a0,t1
    80002450:	0034fb13          	andi	s6,s1,3
    80002454:	00030613          	mv	a2,t1
    80002458:	180b0e63          	beqz	s6,800025f4 <matrix_test+0x1d68>
    8000245c:	00100a93          	li	s5,1
    80002460:	075b0e63          	beq	s6,s5,800024dc <matrix_test+0x1c50>
    80002464:	00200a13          	li	s4,2
    80002468:	034b0e63          	beq	s6,s4,800024a4 <matrix_test+0x1c18>
    8000246c:	02031c13          	slli	s8,t1,0x20
    80002470:	01ec5613          	srli	a2,s8,0x1e
    80002474:	00ce09b3          	add	s3,t3,a2
    80002478:	000f8693          	mv	a3,t6
    8000247c:	0009af83          	lw	t6,0(s3)
    80002480:	03079793          	slli	a5,a5,0x30
    80002484:	0307d913          	srli	s2,a5,0x30
    80002488:	00ef873b          	addw	a4,t6,a4
    8000248c:	20e45863          	bge	s0,a4,8000269c <matrix_test+0x1e10>
    80002490:	00a9071b          	addiw	a4,s2,10
    80002494:	01071a9b          	slliw	s5,a4,0x10
    80002498:	410ad79b          	sraiw	a5,s5,0x10
    8000249c:	00000713          	li	a4,0
    800024a0:	0013061b          	addiw	a2,t1,1
    800024a4:	02061a13          	slli	s4,a2,0x20
    800024a8:	01ea5c13          	srli	s8,s4,0x1e
    800024ac:	018e09b3          	add	s3,t3,s8
    800024b0:	000f8693          	mv	a3,t6
    800024b4:	0009af83          	lw	t6,0(s3)
    800024b8:	03079793          	slli	a5,a5,0x30
    800024bc:	0307db93          	srli	s7,a5,0x30
    800024c0:	00ef873b          	addw	a4,t6,a4
    800024c4:	1ce45263          	bge	s0,a4,80002688 <matrix_test+0x1dfc>
    800024c8:	00ab871b          	addiw	a4,s7,10
    800024cc:	01071a9b          	slliw	s5,a4,0x10
    800024d0:	410ad79b          	sraiw	a5,s5,0x10
    800024d4:	00000713          	li	a4,0
    800024d8:	0016061b          	addiw	a2,a2,1
    800024dc:	02061a13          	slli	s4,a2,0x20
    800024e0:	01ea5c13          	srli	s8,s4,0x1e
    800024e4:	018e09b3          	add	s3,t3,s8
    800024e8:	000f8693          	mv	a3,t6
    800024ec:	0009af83          	lw	t6,0(s3)
    800024f0:	03079793          	slli	a5,a5,0x30
    800024f4:	0307db93          	srli	s7,a5,0x30
    800024f8:	00ef873b          	addw	a4,t6,a4
    800024fc:	16e45863          	bge	s0,a4,8000266c <matrix_test+0x1de0>
    80002500:	00ab871b          	addiw	a4,s7,10
    80002504:	03071a13          	slli	s4,a4,0x30
    80002508:	01071c1b          	slliw	s8,a4,0x10
    8000250c:	030a5993          	srli	s3,s4,0x30
    80002510:	410c579b          	sraiw	a5,s8,0x10
    80002514:	00000713          	li	a4,0
    80002518:	0016061b          	addiw	a2,a2,1
    8000251c:	0cc51c63          	bne	a0,a2,800025f4 <matrix_test+0x1d68>
    80002520:	001e891b          	addiw	s2,t4,1
    80002524:	00a5853b          	addw	a0,a1,a0
    80002528:	0065833b          	addw	t1,a1,t1
    8000252c:	f3df0863          	beq	t5,t4,80001c5c <matrix_test+0x13d0>
    80002530:	00090e93          	mv	t4,s2
    80002534:	f19ff06f          	j	8000244c <matrix_test+0x1bc0>
    80002538:	012fafb3          	slt	t6,t6,s2
    8000253c:	016f84bb          	addw	s1,t6,s6
    80002540:	01049a9b          	slliw	s5,s1,0x10
    80002544:	410adc1b          	sraiw	s8,s5,0x10
    80002548:	0016061b          	addiw	a2,a2,1
    8000254c:	02061693          	slli	a3,a2,0x20
    80002550:	01e6db93          	srli	s7,a3,0x1e
    80002554:	017e07b3          	add	a5,t3,s7
    80002558:	0007ab03          	lw	s6,0(a5)
    8000255c:	030c1f93          	slli	t6,s8,0x30
    80002560:	030fd493          	srli	s1,t6,0x30
    80002564:	013b0abb          	addw	s5,s6,s3
    80002568:	0f545863          	bge	s0,s5,80002658 <matrix_test+0x1dcc>
    8000256c:	00a4899b          	addiw	s3,s1,10
    80002570:	0109969b          	slliw	a3,s3,0x10
    80002574:	4106dc1b          	sraiw	s8,a3,0x10
    80002578:	00000a93          	li	s5,0
    8000257c:	0016061b          	addiw	a2,a2,1
    80002580:	02061b93          	slli	s7,a2,0x20
    80002584:	01ebd793          	srli	a5,s7,0x1e
    80002588:	00fe0fb3          	add	t6,t3,a5
    8000258c:	000fa483          	lw	s1,0(t6)
    80002590:	030c1913          	slli	s2,s8,0x30
    80002594:	03095a13          	srli	s4,s2,0x30
    80002598:	01548abb          	addw	s5,s1,s5
    8000259c:	0b545463          	bge	s0,s5,80002644 <matrix_test+0x1db8>
    800025a0:	00aa069b          	addiw	a3,s4,10
    800025a4:	01069b9b          	slliw	s7,a3,0x10
    800025a8:	410bd99b          	sraiw	s3,s7,0x10
    800025ac:	00000a93          	li	s5,0
    800025b0:	0016091b          	addiw	s2,a2,1
    800025b4:	02091613          	slli	a2,s2,0x20
    800025b8:	01e65793          	srli	a5,a2,0x1e
    800025bc:	00fe0fb3          	add	t6,t3,a5
    800025c0:	000faf83          	lw	t6,0(t6)
    800025c4:	03099a13          	slli	s4,s3,0x30
    800025c8:	030a5b13          	srli	s6,s4,0x30
    800025cc:	015f873b          	addw	a4,t6,s5
    800025d0:	04e45c63          	bge	s0,a4,80002628 <matrix_test+0x1d9c>
    800025d4:	00ab0b9b          	addiw	s7,s6,10
    800025d8:	030b9613          	slli	a2,s7,0x30
    800025dc:	010b9a1b          	slliw	s4,s7,0x10
    800025e0:	03065993          	srli	s3,a2,0x30
    800025e4:	410a579b          	sraiw	a5,s4,0x10
    800025e8:	00000713          	li	a4,0
    800025ec:	0019061b          	addiw	a2,s2,1
    800025f0:	f2c508e3          	beq	a0,a2,80002520 <matrix_test+0x1c94>
    800025f4:	02061993          	slli	s3,a2,0x20
    800025f8:	01e9d693          	srli	a3,s3,0x1e
    800025fc:	00de0bb3          	add	s7,t3,a3
    80002600:	000ba903          	lw	s2,0(s7)
    80002604:	03079793          	slli	a5,a5,0x30
    80002608:	0307db13          	srli	s6,a5,0x30
    8000260c:	00e909bb          	addw	s3,s2,a4
    80002610:	f33454e3          	bge	s0,s3,80002538 <matrix_test+0x1cac>
    80002614:	00ab071b          	addiw	a4,s6,10
    80002618:	01071a1b          	slliw	s4,a4,0x10
    8000261c:	410a5c1b          	sraiw	s8,s4,0x10
    80002620:	00000993          	li	s3,0
    80002624:	f25ff06f          	j	80002548 <matrix_test+0x1cbc>
    80002628:	01f4a4b3          	slt	s1,s1,t6
    8000262c:	01648abb          	addw	s5,s1,s6
    80002630:	030a9c13          	slli	s8,s5,0x30
    80002634:	010a969b          	slliw	a3,s5,0x10
    80002638:	030c5993          	srli	s3,s8,0x30
    8000263c:	4106d79b          	sraiw	a5,a3,0x10
    80002640:	fadff06f          	j	800025ec <matrix_test+0x1d60>
    80002644:	009b2b33          	slt	s6,s6,s1
    80002648:	014b073b          	addw	a4,s6,s4
    8000264c:	01071c1b          	slliw	s8,a4,0x10
    80002650:	410c599b          	sraiw	s3,s8,0x10
    80002654:	f5dff06f          	j	800025b0 <matrix_test+0x1d24>
    80002658:	01692933          	slt	s2,s2,s6
    8000265c:	0099073b          	addw	a4,s2,s1
    80002660:	01071a1b          	slliw	s4,a4,0x10
    80002664:	410a5c1b          	sraiw	s8,s4,0x10
    80002668:	f15ff06f          	j	8000257c <matrix_test+0x1cf0>
    8000266c:	01f6a933          	slt	s2,a3,t6
    80002670:	01790b3b          	addw	s6,s2,s7
    80002674:	030b1493          	slli	s1,s6,0x30
    80002678:	010b1a9b          	slliw	s5,s6,0x10
    8000267c:	0304d993          	srli	s3,s1,0x30
    80002680:	410ad79b          	sraiw	a5,s5,0x10
    80002684:	e95ff06f          	j	80002518 <matrix_test+0x1c8c>
    80002688:	01f6a933          	slt	s2,a3,t6
    8000268c:	017904bb          	addw	s1,s2,s7
    80002690:	01049b1b          	slliw	s6,s1,0x10
    80002694:	410b579b          	sraiw	a5,s6,0x10
    80002698:	e41ff06f          	j	800024d8 <matrix_test+0x1c4c>
    8000269c:	01f6abb3          	slt	s7,a3,t6
    800026a0:	012b84bb          	addw	s1,s7,s2
    800026a4:	01049b1b          	slliw	s6,s1,0x10
    800026a8:	410b579b          	sraiw	a5,s6,0x10
    800026ac:	df5ff06f          	j	800024a0 <matrix_test+0x1c14>
    800026b0:	00000b93          	li	s7,0
    800026b4:	00000993          	li	s3,0
    800026b8:	00000a13          	li	s4,0
    800026bc:	865fe06f          	j	80000f20 <matrix_test+0x694>
    800026c0:	00000b13          	li	s6,0
    800026c4:	00000a93          	li	s5,0
    800026c8:	cd9fe06f          	j	800013a0 <matrix_test+0xb14>

00000000800026cc <core_bench_matrix>:
    800026cc:	ff010113          	addi	sp,sp,-16
    800026d0:	01053683          	ld	a3,16(a0)
    800026d4:	00058713          	mv	a4,a1
    800026d8:	00813023          	sd	s0,0(sp)
    800026dc:	01853583          	ld	a1,24(a0)
    800026e0:	00060413          	mv	s0,a2
    800026e4:	00853603          	ld	a2,8(a0)
    800026e8:	00052503          	lw	a0,0(a0)
    800026ec:	00113423          	sd	ra,8(sp)
    800026f0:	99cfe0ef          	jal	ra,8000088c <matrix_test>
    800026f4:	0ff57793          	zext.b	a5,a0
    800026f8:	0087c6b3          	xor	a3,a5,s0
    800026fc:	03051713          	slli	a4,a0,0x30
    80002700:	0016f293          	andi	t0,a3,1
    80002704:	03075313          	srli	t1,a4,0x30
    80002708:	0017d613          	srli	a2,a5,0x1
    8000270c:	00145813          	srli	a6,s0,0x1
    80002710:	00028c63          	beqz	t0,80002728 <core_bench_matrix+0x5c>
    80002714:	ffffa0b7          	lui	ra,0xffffa
    80002718:	00108393          	addi	t2,ra,1 # ffffffffffffa001 <_pmem_end+0xffffffff77ffa001>
    8000271c:	00784533          	xor	a0,a6,t2
    80002720:	03051593          	slli	a1,a0,0x30
    80002724:	0305d813          	srli	a6,a1,0x30
    80002728:	010648b3          	xor	a7,a2,a6
    8000272c:	0018fe13          	andi	t3,a7,1
    80002730:	0027de93          	srli	t4,a5,0x2
    80002734:	00185293          	srli	t0,a6,0x1
    80002738:	000e0c63          	beqz	t3,80002750 <core_bench_matrix+0x84>
    8000273c:	ffffaf37          	lui	t5,0xffffa
    80002740:	001f0f93          	addi	t6,t5,1 # ffffffffffffa001 <_pmem_end+0xffffffff77ffa001>
    80002744:	01f2c433          	xor	s0,t0,t6
    80002748:	03041693          	slli	a3,s0,0x30
    8000274c:	0306d293          	srli	t0,a3,0x30
    80002750:	005ec733          	xor	a4,t4,t0
    80002754:	00177093          	andi	ra,a4,1
    80002758:	0037d613          	srli	a2,a5,0x3
    8000275c:	0012d893          	srli	a7,t0,0x1
    80002760:	00008c63          	beqz	ra,80002778 <core_bench_matrix+0xac>
    80002764:	ffffa3b7          	lui	t2,0xffffa
    80002768:	00138593          	addi	a1,t2,1 # ffffffffffffa001 <_pmem_end+0xffffffff77ffa001>
    8000276c:	00b8c533          	xor	a0,a7,a1
    80002770:	03051813          	slli	a6,a0,0x30
    80002774:	03085893          	srli	a7,a6,0x30
    80002778:	01164e33          	xor	t3,a2,a7
    8000277c:	001e7e93          	andi	t4,t3,1
    80002780:	0047df13          	srli	t5,a5,0x4
    80002784:	0018d713          	srli	a4,a7,0x1
    80002788:	000e8c63          	beqz	t4,800027a0 <core_bench_matrix+0xd4>
    8000278c:	ffffafb7          	lui	t6,0xffffa
    80002790:	001f8413          	addi	s0,t6,1 # ffffffffffffa001 <_pmem_end+0xffffffff77ffa001>
    80002794:	008746b3          	xor	a3,a4,s0
    80002798:	03069293          	slli	t0,a3,0x30
    8000279c:	0302d713          	srli	a4,t0,0x30
    800027a0:	00ef40b3          	xor	ra,t5,a4
    800027a4:	0010f393          	andi	t2,ra,1
    800027a8:	0057d613          	srli	a2,a5,0x5
    800027ac:	00175e13          	srli	t3,a4,0x1
    800027b0:	00038c63          	beqz	t2,800027c8 <core_bench_matrix+0xfc>
    800027b4:	ffffa5b7          	lui	a1,0xffffa
    800027b8:	00158813          	addi	a6,a1,1 # ffffffffffffa001 <_pmem_end+0xffffffff77ffa001>
    800027bc:	010e4533          	xor	a0,t3,a6
    800027c0:	03051893          	slli	a7,a0,0x30
    800027c4:	0308de13          	srli	t3,a7,0x30
    800027c8:	01c64eb3          	xor	t4,a2,t3
    800027cc:	001eff13          	andi	t5,t4,1
    800027d0:	0067df93          	srli	t6,a5,0x6
    800027d4:	001e5093          	srli	ra,t3,0x1
    800027d8:	000f0c63          	beqz	t5,800027f0 <core_bench_matrix+0x124>
    800027dc:	ffffa437          	lui	s0,0xffffa
    800027e0:	00140693          	addi	a3,s0,1 # ffffffffffffa001 <_pmem_end+0xffffffff77ffa001>
    800027e4:	00d0c2b3          	xor	t0,ra,a3
    800027e8:	03029713          	slli	a4,t0,0x30
    800027ec:	03075093          	srli	ra,a4,0x30
    800027f0:	001fc3b3          	xor	t2,t6,ra
    800027f4:	0013f613          	andi	a2,t2,1
    800027f8:	0077d793          	srli	a5,a5,0x7
    800027fc:	0010de13          	srli	t3,ra,0x1
    80002800:	00060c63          	beqz	a2,80002818 <core_bench_matrix+0x14c>
    80002804:	ffffa5b7          	lui	a1,0xffffa
    80002808:	00158813          	addi	a6,a1,1 # ffffffffffffa001 <_pmem_end+0xffffffff77ffa001>
    8000280c:	010e4533          	xor	a0,t3,a6
    80002810:	03051893          	slli	a7,a0,0x30
    80002814:	0308de13          	srli	t3,a7,0x30
    80002818:	001e7e93          	andi	t4,t3,1
    8000281c:	001e5293          	srli	t0,t3,0x1
    80002820:	14fe9a63          	bne	t4,a5,80002974 <core_bench_matrix+0x2a8>
    80002824:	00835093          	srli	ra,t1,0x8
    80002828:	0050c733          	xor	a4,ra,t0
    8000282c:	00177393          	andi	t2,a4,1
    80002830:	00935313          	srli	t1,t1,0x9
    80002834:	0012d513          	srli	a0,t0,0x1
    80002838:	00038c63          	beqz	t2,80002850 <core_bench_matrix+0x184>
    8000283c:	ffffa637          	lui	a2,0xffffa
    80002840:	00160793          	addi	a5,a2,1 # ffffffffffffa001 <_pmem_end+0xffffffff77ffa001>
    80002844:	00f545b3          	xor	a1,a0,a5
    80002848:	03059813          	slli	a6,a1,0x30
    8000284c:	03085513          	srli	a0,a6,0x30
    80002850:	00a348b3          	xor	a7,t1,a0
    80002854:	0018fe13          	andi	t3,a7,1
    80002858:	0020de93          	srli	t4,ra,0x2
    8000285c:	00155293          	srli	t0,a0,0x1
    80002860:	000e0c63          	beqz	t3,80002878 <core_bench_matrix+0x1ac>
    80002864:	ffffaf37          	lui	t5,0xffffa
    80002868:	001f0f93          	addi	t6,t5,1 # ffffffffffffa001 <_pmem_end+0xffffffff77ffa001>
    8000286c:	01f2c433          	xor	s0,t0,t6
    80002870:	03041693          	slli	a3,s0,0x30
    80002874:	0306d293          	srli	t0,a3,0x30
    80002878:	005ec733          	xor	a4,t4,t0
    8000287c:	00177393          	andi	t2,a4,1
    80002880:	0030d313          	srli	t1,ra,0x3
    80002884:	0012d513          	srli	a0,t0,0x1
    80002888:	00038c63          	beqz	t2,800028a0 <core_bench_matrix+0x1d4>
    8000288c:	ffffa637          	lui	a2,0xffffa
    80002890:	00160793          	addi	a5,a2,1 # ffffffffffffa001 <_pmem_end+0xffffffff77ffa001>
    80002894:	00f545b3          	xor	a1,a0,a5
    80002898:	03059813          	slli	a6,a1,0x30
    8000289c:	03085513          	srli	a0,a6,0x30
    800028a0:	00a348b3          	xor	a7,t1,a0
    800028a4:	0018fe13          	andi	t3,a7,1
    800028a8:	0040de93          	srli	t4,ra,0x4
    800028ac:	00155293          	srli	t0,a0,0x1
    800028b0:	000e0c63          	beqz	t3,800028c8 <core_bench_matrix+0x1fc>
    800028b4:	ffffaf37          	lui	t5,0xffffa
    800028b8:	001f0f93          	addi	t6,t5,1 # ffffffffffffa001 <_pmem_end+0xffffffff77ffa001>
    800028bc:	01f2c433          	xor	s0,t0,t6
    800028c0:	03041693          	slli	a3,s0,0x30
    800028c4:	0306d293          	srli	t0,a3,0x30
    800028c8:	005ec733          	xor	a4,t4,t0
    800028cc:	00177393          	andi	t2,a4,1
    800028d0:	0050d313          	srli	t1,ra,0x5
    800028d4:	0012d513          	srli	a0,t0,0x1
    800028d8:	00038c63          	beqz	t2,800028f0 <core_bench_matrix+0x224>
    800028dc:	ffffa637          	lui	a2,0xffffa
    800028e0:	00160793          	addi	a5,a2,1 # ffffffffffffa001 <_pmem_end+0xffffffff77ffa001>
    800028e4:	00f545b3          	xor	a1,a0,a5
    800028e8:	03059813          	slli	a6,a1,0x30
    800028ec:	03085513          	srli	a0,a6,0x30
    800028f0:	00a348b3          	xor	a7,t1,a0
    800028f4:	0018fe13          	andi	t3,a7,1
    800028f8:	0060de93          	srli	t4,ra,0x6
    800028fc:	00155293          	srli	t0,a0,0x1
    80002900:	000e0c63          	beqz	t3,80002918 <core_bench_matrix+0x24c>
    80002904:	ffffaf37          	lui	t5,0xffffa
    80002908:	001f0f93          	addi	t6,t5,1 # ffffffffffffa001 <_pmem_end+0xffffffff77ffa001>
    8000290c:	01f2c433          	xor	s0,t0,t6
    80002910:	03041693          	slli	a3,s0,0x30
    80002914:	0306d293          	srli	t0,a3,0x30
    80002918:	005ec733          	xor	a4,t4,t0
    8000291c:	00177393          	andi	t2,a4,1
    80002920:	0070d093          	srli	ra,ra,0x7
    80002924:	0012d813          	srli	a6,t0,0x1
    80002928:	00038c63          	beqz	t2,80002940 <core_bench_matrix+0x274>
    8000292c:	ffffa337          	lui	t1,0xffffa
    80002930:	00130613          	addi	a2,t1,1 # ffffffffffffa001 <_pmem_end+0xffffffff77ffa001>
    80002934:	00c847b3          	xor	a5,a6,a2
    80002938:	03079593          	slli	a1,a5,0x30
    8000293c:	0305d813          	srli	a6,a1,0x30
    80002940:	0100c533          	xor	a0,ra,a6
    80002944:	00157893          	andi	a7,a0,1
    80002948:	00185513          	srli	a0,a6,0x1
    8000294c:	00088c63          	beqz	a7,80002964 <core_bench_matrix+0x298>
    80002950:	ffffae37          	lui	t3,0xffffa
    80002954:	001e0e93          	addi	t4,t3,1 # ffffffffffffa001 <_pmem_end+0xffffffff77ffa001>
    80002958:	01d54f33          	xor	t5,a0,t4
    8000295c:	030f1f93          	slli	t6,t5,0x30
    80002960:	030fd513          	srli	a0,t6,0x30
    80002964:	00813083          	ld	ra,8(sp)
    80002968:	00013403          	ld	s0,0(sp)
    8000296c:	01010113          	addi	sp,sp,16
    80002970:	00008067          	ret
    80002974:	ffffaf37          	lui	t5,0xffffa
    80002978:	001f0f93          	addi	t6,t5,1 # ffffffffffffa001 <_pmem_end+0xffffffff77ffa001>
    8000297c:	01f2c433          	xor	s0,t0,t6
    80002980:	03041693          	slli	a3,s0,0x30
    80002984:	0306d293          	srli	t0,a3,0x30
    80002988:	e9dff06f          	j	80002824 <core_bench_matrix+0x158>

000000008000298c <core_init_matrix>:
    8000298c:	fe010113          	addi	sp,sp,-32
    80002990:	00813c23          	sd	s0,24(sp)
    80002994:	00913823          	sd	s1,16(sp)
    80002998:	01213423          	sd	s2,8(sp)
    8000299c:	01313023          	sd	s3,0(sp)
    800029a0:	00050813          	mv	a6,a0
    800029a4:	00068413          	mv	s0,a3
    800029a8:	00061463          	bnez	a2,800029b0 <core_init_matrix+0x24>
    800029ac:	00100613          	li	a2,1
    800029b0:	fff58593          	addi	a1,a1,-1
    800029b4:	ffc5f313          	andi	t1,a1,-4
    800029b8:	00430e93          	addi	t4,t1,4
    800029bc:	00000693          	li	a3,0
    800029c0:	10080663          	beqz	a6,80002acc <core_init_matrix+0x140>
    800029c4:	0016871b          	addiw	a4,a3,1
    800029c8:	02e707bb          	mulw	a5,a4,a4
    800029cc:	0006851b          	sext.w	a0,a3
    800029d0:	0007069b          	sext.w	a3,a4
    800029d4:	0037929b          	slliw	t0,a5,0x3
    800029d8:	ff02e6e3          	bltu	t0,a6,800029c4 <core_init_matrix+0x38>
    800029dc:	02a503bb          	mulw	t2,a0,a0
    800029e0:	0005091b          	sext.w	s2,a0
    800029e4:	02039493          	slli	s1,t2,0x20
    800029e8:	01f4d693          	srli	a3,s1,0x1f
    800029ec:	00de8333          	add	t1,t4,a3
    800029f0:	0e050863          	beqz	a0,80002ae0 <core_init_matrix+0x154>
    800029f4:	00010f37          	lui	t5,0x10
    800029f8:	00000393          	li	t2,0
    800029fc:	00000293          	li	t0,0
    80002a00:	00100f93          	li	t6,1
    80002a04:	ffff0f13          	addi	t5,t5,-1 # ffff <_start-0x7fff0001>
    80002a08:	fff5049b          	addiw	s1,a0,-1
    80002a0c:	000f8593          	mv	a1,t6
    80002a10:	00000893          	li	a7,0
    80002a14:	41f38e3b          	subw	t3,t2,t6
    80002a18:	02b6063b          	mulw	a2,a2,a1
    80002a1c:	00be083b          	addw	a6,t3,a1
    80002a20:	02081713          	slli	a4,a6,0x20
    80002a24:	03059993          	slli	s3,a1,0x30
    80002a28:	01f75813          	srli	a6,a4,0x1f
    80002a2c:	0309d793          	srli	a5,s3,0x30
    80002a30:	010e8733          	add	a4,t4,a6
    80002a34:	010309b3          	add	s3,t1,a6
    80002a38:	0018889b          	addiw	a7,a7,1
    80002a3c:	0015859b          	addiw	a1,a1,1
    80002a40:	41f6581b          	sraiw	a6,a2,0x1f
    80002a44:	0108581b          	srliw	a6,a6,0x10
    80002a48:	0106063b          	addw	a2,a2,a6
    80002a4c:	01e67633          	and	a2,a2,t5
    80002a50:	4106063b          	subw	a2,a2,a6
    80002a54:	00f6083b          	addw	a6,a2,a5
    80002a58:	03081813          	slli	a6,a6,0x30
    80002a5c:	03085813          	srli	a6,a6,0x30
    80002a60:	00f807bb          	addw	a5,a6,a5
    80002a64:	01099023          	sh	a6,0(s3)
    80002a68:	0ff7f993          	zext.b	s3,a5
    80002a6c:	01371023          	sh	s3,0(a4)
    80002a70:	faa8e4e3          	bltu	a7,a0,80002a18 <core_init_matrix+0x8c>
    80002a74:	001f8f9b          	addiw	t6,t6,1
    80002a78:	00000593          	li	a1,0
    80002a7c:	00050463          	beqz	a0,80002a84 <core_init_matrix+0xf8>
    80002a80:	00048593          	mv	a1,s1
    80002a84:	0012829b          	addiw	t0,t0,1
    80002a88:	01f58fbb          	addw	t6,a1,t6
    80002a8c:	007503bb          	addw	t2,a0,t2
    80002a90:	f6a2eee3          	bltu	t0,a0,80002a0c <core_init_matrix+0x80>
    80002a94:	00d306b3          	add	a3,t1,a3
    80002a98:	fff68393          	addi	t2,a3,-1
    80002a9c:	ffc3f293          	andi	t0,t2,-4
    80002aa0:	00428f13          	addi	t5,t0,4
    80002aa4:	01242023          	sw	s2,0(s0)
    80002aa8:	01d43423          	sd	t4,8(s0)
    80002aac:	00643823          	sd	t1,16(s0)
    80002ab0:	01e43c23          	sd	t5,24(s0)
    80002ab4:	01813403          	ld	s0,24(sp)
    80002ab8:	01013483          	ld	s1,16(sp)
    80002abc:	00813903          	ld	s2,8(sp)
    80002ac0:	00013983          	ld	s3,0(sp)
    80002ac4:	02010113          	addi	sp,sp,32
    80002ac8:	00008067          	ret
    80002acc:	00630313          	addi	t1,t1,6
    80002ad0:	fff00913          	li	s2,-1
    80002ad4:	fff00513          	li	a0,-1
    80002ad8:	00200693          	li	a3,2
    80002adc:	f19ff06f          	j	800029f4 <core_init_matrix+0x68>
    80002ae0:	00000913          	li	s2,0
    80002ae4:	fb1ff06f          	j	80002a94 <core_init_matrix+0x108>

0000000080002ae8 <matrix_sum>:
    80002ae8:	00050e93          	mv	t4,a0
    80002aec:	26050063          	beqz	a0,80002d4c <matrix_sum+0x264>
    80002af0:	00050313          	mv	t1,a0
    80002af4:	0006089b          	sext.w	a7,a2
    80002af8:	00000e13          	li	t3,0
    80002afc:	00000f13          	li	t5,0
    80002b00:	00000513          	li	a0,0
    80002b04:	00000813          	li	a6,0
    80002b08:	00000793          	li	a5,0
    80002b0c:	41c30733          	sub	a4,t1,t3
    80002b10:	00377293          	andi	t0,a4,3
    80002b14:	000e0613          	mv	a2,t3
    80002b18:	18028463          	beqz	t0,80002ca0 <matrix_sum+0x1b8>
    80002b1c:	00100693          	li	a3,1
    80002b20:	06d28e63          	beq	t0,a3,80002b9c <matrix_sum+0xb4>
    80002b24:	00200393          	li	t2,2
    80002b28:	02728e63          	beq	t0,t2,80002b64 <matrix_sum+0x7c>
    80002b2c:	020e1613          	slli	a2,t3,0x20
    80002b30:	01e65f93          	srli	t6,a2,0x1e
    80002b34:	01f58733          	add	a4,a1,t6
    80002b38:	00080293          	mv	t0,a6
    80002b3c:	00072803          	lw	a6,0(a4)
    80002b40:	03051513          	slli	a0,a0,0x30
    80002b44:	03055693          	srli	a3,a0,0x30
    80002b48:	010787bb          	addw	a5,a5,a6
    80002b4c:	1ef8d663          	bge	a7,a5,80002d38 <matrix_sum+0x250>
    80002b50:	00a6879b          	addiw	a5,a3,10
    80002b54:	0107971b          	slliw	a4,a5,0x10
    80002b58:	4107551b          	sraiw	a0,a4,0x10
    80002b5c:	00000793          	li	a5,0
    80002b60:	001e061b          	addiw	a2,t3,1
    80002b64:	02061293          	slli	t0,a2,0x20
    80002b68:	01e2d693          	srli	a3,t0,0x1e
    80002b6c:	00d583b3          	add	t2,a1,a3
    80002b70:	00080f93          	mv	t6,a6
    80002b74:	0003a803          	lw	a6,0(t2)
    80002b78:	03051513          	slli	a0,a0,0x30
    80002b7c:	03055713          	srli	a4,a0,0x30
    80002b80:	010787bb          	addw	a5,a5,a6
    80002b84:	1af8d063          	bge	a7,a5,80002d24 <matrix_sum+0x23c>
    80002b88:	00a7079b          	addiw	a5,a4,10
    80002b8c:	01079f9b          	slliw	t6,a5,0x10
    80002b90:	410fd51b          	sraiw	a0,t6,0x10
    80002b94:	00000793          	li	a5,0
    80002b98:	0016061b          	addiw	a2,a2,1
    80002b9c:	02061713          	slli	a4,a2,0x20
    80002ba0:	01e75293          	srli	t0,a4,0x1e
    80002ba4:	005586b3          	add	a3,a1,t0
    80002ba8:	00080393          	mv	t2,a6
    80002bac:	0006a803          	lw	a6,0(a3)
    80002bb0:	03051513          	slli	a0,a0,0x30
    80002bb4:	03055713          	srli	a4,a0,0x30
    80002bb8:	010787bb          	addw	a5,a5,a6
    80002bbc:	14f8da63          	bge	a7,a5,80002d10 <matrix_sum+0x228>
    80002bc0:	00a7079b          	addiw	a5,a4,10
    80002bc4:	0107939b          	slliw	t2,a5,0x10
    80002bc8:	4103d51b          	sraiw	a0,t2,0x10
    80002bcc:	00000793          	li	a5,0
    80002bd0:	0016061b          	addiw	a2,a2,1
    80002bd4:	0cc31663          	bne	t1,a2,80002ca0 <matrix_sum+0x1b8>
    80002bd8:	001f0f1b          	addiw	t5,t5,1
    80002bdc:	01d3033b          	addw	t1,t1,t4
    80002be0:	01ce8e3b          	addw	t3,t4,t3
    80002be4:	f3ee94e3          	bne	t4,t5,80002b0c <matrix_sum+0x24>
    80002be8:	00008067          	ret
    80002bec:	00d82833          	slt	a6,a6,a3
    80002bf0:	0078073b          	addw	a4,a6,t2
    80002bf4:	01071f9b          	slliw	t6,a4,0x10
    80002bf8:	410fd39b          	sraiw	t2,t6,0x10
    80002bfc:	0016061b          	addiw	a2,a2,1
    80002c00:	02061513          	slli	a0,a2,0x20
    80002c04:	01e55813          	srli	a6,a0,0x1e
    80002c08:	01058733          	add	a4,a1,a6
    80002c0c:	00072f83          	lw	t6,0(a4)
    80002c10:	03039293          	slli	t0,t2,0x30
    80002c14:	0302d393          	srli	t2,t0,0x30
    80002c18:	01f787bb          	addw	a5,a5,t6
    80002c1c:	0ef8d063          	bge	a7,a5,80002cfc <matrix_sum+0x214>
    80002c20:	00a3829b          	addiw	t0,t2,10
    80002c24:	0102939b          	slliw	t2,t0,0x10
    80002c28:	4103d71b          	sraiw	a4,t2,0x10
    80002c2c:	00000793          	li	a5,0
    80002c30:	0016061b          	addiw	a2,a2,1
    80002c34:	02061693          	slli	a3,a2,0x20
    80002c38:	01e6d513          	srli	a0,a3,0x1e
    80002c3c:	00a58833          	add	a6,a1,a0
    80002c40:	00082283          	lw	t0,0(a6)
    80002c44:	03071713          	slli	a4,a4,0x30
    80002c48:	03075393          	srli	t2,a4,0x30
    80002c4c:	005787bb          	addw	a5,a5,t0
    80002c50:	08f8dc63          	bge	a7,a5,80002ce8 <matrix_sum+0x200>
    80002c54:	00a3881b          	addiw	a6,t2,10
    80002c58:	0108139b          	slliw	t2,a6,0x10
    80002c5c:	4103d71b          	sraiw	a4,t2,0x10
    80002c60:	00000793          	li	a5,0
    80002c64:	00160f9b          	addiw	t6,a2,1
    80002c68:	020f9613          	slli	a2,t6,0x20
    80002c6c:	01e65693          	srli	a3,a2,0x1e
    80002c70:	00d58533          	add	a0,a1,a3
    80002c74:	00052803          	lw	a6,0(a0)
    80002c78:	03071713          	slli	a4,a4,0x30
    80002c7c:	03075393          	srli	t2,a4,0x30
    80002c80:	010787bb          	addw	a5,a5,a6
    80002c84:	04f8d863          	bge	a7,a5,80002cd4 <matrix_sum+0x1ec>
    80002c88:	00a3851b          	addiw	a0,t2,10
    80002c8c:	0105171b          	slliw	a4,a0,0x10
    80002c90:	4107551b          	sraiw	a0,a4,0x10
    80002c94:	00000793          	li	a5,0
    80002c98:	001f861b          	addiw	a2,t6,1
    80002c9c:	f2c30ee3          	beq	t1,a2,80002bd8 <matrix_sum+0xf0>
    80002ca0:	02061713          	slli	a4,a2,0x20
    80002ca4:	01e75f93          	srli	t6,a4,0x1e
    80002ca8:	01f582b3          	add	t0,a1,t6
    80002cac:	0002a683          	lw	a3,0(t0)
    80002cb0:	03051513          	slli	a0,a0,0x30
    80002cb4:	03055393          	srli	t2,a0,0x30
    80002cb8:	00d787bb          	addw	a5,a5,a3
    80002cbc:	f2f8d8e3          	bge	a7,a5,80002bec <matrix_sum+0x104>
    80002cc0:	00a3879b          	addiw	a5,t2,10
    80002cc4:	0107929b          	slliw	t0,a5,0x10
    80002cc8:	4102d39b          	sraiw	t2,t0,0x10
    80002ccc:	00000793          	li	a5,0
    80002cd0:	f2dff06f          	j	80002bfc <matrix_sum+0x114>
    80002cd4:	0102a2b3          	slt	t0,t0,a6
    80002cd8:	0072863b          	addw	a2,t0,t2
    80002cdc:	0106169b          	slliw	a3,a2,0x10
    80002ce0:	4106d51b          	sraiw	a0,a3,0x10
    80002ce4:	fb5ff06f          	j	80002c98 <matrix_sum+0x1b0>
    80002ce8:	005fafb3          	slt	t6,t6,t0
    80002cec:	007f86bb          	addw	a3,t6,t2
    80002cf0:	0106951b          	slliw	a0,a3,0x10
    80002cf4:	4105571b          	sraiw	a4,a0,0x10
    80002cf8:	f6dff06f          	j	80002c64 <matrix_sum+0x17c>
    80002cfc:	01f6a6b3          	slt	a3,a3,t6
    80002d00:	0076853b          	addw	a0,a3,t2
    80002d04:	0105181b          	slliw	a6,a0,0x10
    80002d08:	4108571b          	sraiw	a4,a6,0x10
    80002d0c:	f25ff06f          	j	80002c30 <matrix_sum+0x148>
    80002d10:	0103afb3          	slt	t6,t2,a6
    80002d14:	00ef82bb          	addw	t0,t6,a4
    80002d18:	0102969b          	slliw	a3,t0,0x10
    80002d1c:	4106d51b          	sraiw	a0,a3,0x10
    80002d20:	eb1ff06f          	j	80002bd0 <matrix_sum+0xe8>
    80002d24:	010fa2b3          	slt	t0,t6,a6
    80002d28:	00e286bb          	addw	a3,t0,a4
    80002d2c:	0106939b          	slliw	t2,a3,0x10
    80002d30:	4103d51b          	sraiw	a0,t2,0x10
    80002d34:	e65ff06f          	j	80002b98 <matrix_sum+0xb0>
    80002d38:	0102a3b3          	slt	t2,t0,a6
    80002d3c:	00d3863b          	addw	a2,t2,a3
    80002d40:	01061f9b          	slliw	t6,a2,0x10
    80002d44:	410fd51b          	sraiw	a0,t6,0x10
    80002d48:	e19ff06f          	j	80002b60 <matrix_sum+0x78>
    80002d4c:	00000513          	li	a0,0
    80002d50:	00008067          	ret

0000000080002d54 <matrix_mul_const>:
    80002d54:	16050c63          	beqz	a0,80002ecc <matrix_mul_const+0x178>
    80002d58:	ff010113          	addi	sp,sp,-16
    80002d5c:	00813423          	sd	s0,8(sp)
    80002d60:	0006831b          	sext.w	t1,a3
    80002d64:	00050f13          	mv	t5,a0
    80002d68:	00000f93          	li	t6,0
    80002d6c:	00000293          	li	t0,0
    80002d70:	41ff0733          	sub	a4,t5,t6
    80002d74:	00377393          	andi	t2,a4,3
    80002d78:	000f8793          	mv	a5,t6
    80002d7c:	08038863          	beqz	t2,80002e0c <matrix_mul_const+0xb8>
    80002d80:	00100693          	li	a3,1
    80002d84:	04d38e63          	beq	t2,a3,80002de0 <matrix_mul_const+0x8c>
    80002d88:	00200413          	li	s0,2
    80002d8c:	02838663          	beq	t2,s0,80002db8 <matrix_mul_const+0x64>
    80002d90:	020f9793          	slli	a5,t6,0x20
    80002d94:	0207d813          	srli	a6,a5,0x20
    80002d98:	00181893          	slli	a7,a6,0x1
    80002d9c:	01160e33          	add	t3,a2,a7
    80002da0:	000e1e83          	lh	t4,0(t3)
    80002da4:	00281713          	slli	a4,a6,0x2
    80002da8:	00e583b3          	add	t2,a1,a4
    80002dac:	026e86bb          	mulw	a3,t4,t1
    80002db0:	001f879b          	addiw	a5,t6,1
    80002db4:	00d3a023          	sw	a3,0(t2)
    80002db8:	02079413          	slli	s0,a5,0x20
    80002dbc:	02045813          	srli	a6,s0,0x20
    80002dc0:	00181893          	slli	a7,a6,0x1
    80002dc4:	01160e33          	add	t3,a2,a7
    80002dc8:	000e1e83          	lh	t4,0(t3)
    80002dcc:	00281713          	slli	a4,a6,0x2
    80002dd0:	00e583b3          	add	t2,a1,a4
    80002dd4:	026e86bb          	mulw	a3,t4,t1
    80002dd8:	0017879b          	addiw	a5,a5,1
    80002ddc:	00d3a023          	sw	a3,0(t2)
    80002de0:	02079413          	slli	s0,a5,0x20
    80002de4:	02045813          	srli	a6,s0,0x20
    80002de8:	00181893          	slli	a7,a6,0x1
    80002dec:	01160e33          	add	t3,a2,a7
    80002df0:	000e1e83          	lh	t4,0(t3)
    80002df4:	00281713          	slli	a4,a6,0x2
    80002df8:	00e583b3          	add	t2,a1,a4
    80002dfc:	026e86bb          	mulw	a3,t4,t1
    80002e00:	0017879b          	addiw	a5,a5,1
    80002e04:	00d3a023          	sw	a3,0(t2)
    80002e08:	0aff0463          	beq	t5,a5,80002eb0 <matrix_mul_const+0x15c>
    80002e0c:	00178e1b          	addiw	t3,a5,1
    80002e10:	02079413          	slli	s0,a5,0x20
    80002e14:	001e0e9b          	addiw	t4,t3,1
    80002e18:	02045893          	srli	a7,s0,0x20
    80002e1c:	020e1813          	slli	a6,t3,0x20
    80002e20:	00189713          	slli	a4,a7,0x1
    80002e24:	020e9393          	slli	t2,t4,0x20
    80002e28:	02085813          	srli	a6,a6,0x20
    80002e2c:	001e879b          	addiw	a5,t4,1
    80002e30:	0203d693          	srli	a3,t2,0x20
    80002e34:	00181e13          	slli	t3,a6,0x1
    80002e38:	02079e93          	slli	t4,a5,0x20
    80002e3c:	00e60433          	add	s0,a2,a4
    80002e40:	00041403          	lh	s0,0(s0)
    80002e44:	020ed713          	srli	a4,t4,0x20
    80002e48:	01c603b3          	add	t2,a2,t3
    80002e4c:	00169e13          	slli	t3,a3,0x1
    80002e50:	00039383          	lh	t2,0(t2)
    80002e54:	01c60eb3          	add	t4,a2,t3
    80002e58:	00171e13          	slli	t3,a4,0x1
    80002e5c:	000e9e83          	lh	t4,0(t4)
    80002e60:	01c60e33          	add	t3,a2,t3
    80002e64:	000e1e03          	lh	t3,0(t3)
    80002e68:	0264043b          	mulw	s0,s0,t1
    80002e6c:	00289893          	slli	a7,a7,0x2
    80002e70:	011588b3          	add	a7,a1,a7
    80002e74:	00281813          	slli	a6,a6,0x2
    80002e78:	01058833          	add	a6,a1,a6
    80002e7c:	00269693          	slli	a3,a3,0x2
    80002e80:	00d586b3          	add	a3,a1,a3
    80002e84:	00271713          	slli	a4,a4,0x2
    80002e88:	00e58733          	add	a4,a1,a4
    80002e8c:	0017879b          	addiw	a5,a5,1
    80002e90:	026383bb          	mulw	t2,t2,t1
    80002e94:	0088a023          	sw	s0,0(a7)
    80002e98:	026e8ebb          	mulw	t4,t4,t1
    80002e9c:	00782023          	sw	t2,0(a6)
    80002ea0:	026e0e3b          	mulw	t3,t3,t1
    80002ea4:	01d6a023          	sw	t4,0(a3)
    80002ea8:	01c72023          	sw	t3,0(a4)
    80002eac:	f6ff10e3          	bne	t5,a5,80002e0c <matrix_mul_const+0xb8>
    80002eb0:	0012829b          	addiw	t0,t0,1
    80002eb4:	01f50fbb          	addw	t6,a0,t6
    80002eb8:	01e50f3b          	addw	t5,a0,t5
    80002ebc:	ea551ae3          	bne	a0,t0,80002d70 <matrix_mul_const+0x1c>
    80002ec0:	00813403          	ld	s0,8(sp)
    80002ec4:	01010113          	addi	sp,sp,16
    80002ec8:	00008067          	ret
    80002ecc:	00008067          	ret

0000000080002ed0 <matrix_add_const>:
    80002ed0:	20050a63          	beqz	a0,800030e4 <matrix_add_const+0x214>
    80002ed4:	03061713          	slli	a4,a2,0x30
    80002ed8:	03075713          	srli	a4,a4,0x30
    80002edc:	00050613          	mv	a2,a0
    80002ee0:	00000893          	li	a7,0
    80002ee4:	00000313          	li	t1,0
    80002ee8:	411606b3          	sub	a3,a2,a7
    80002eec:	0076f293          	andi	t0,a3,7
    80002ef0:	00088793          	mv	a5,a7
    80002ef4:	0e028e63          	beqz	t0,80002ff0 <matrix_add_const+0x120>
    80002ef8:	00100813          	li	a6,1
    80002efc:	0d028a63          	beq	t0,a6,80002fd0 <matrix_add_const+0x100>
    80002f00:	00200393          	li	t2,2
    80002f04:	0a728863          	beq	t0,t2,80002fb4 <matrix_add_const+0xe4>
    80002f08:	00300e13          	li	t3,3
    80002f0c:	09c28663          	beq	t0,t3,80002f98 <matrix_add_const+0xc8>
    80002f10:	00400e93          	li	t4,4
    80002f14:	07d28463          	beq	t0,t4,80002f7c <matrix_add_const+0xac>
    80002f18:	00500f13          	li	t5,5
    80002f1c:	05e28263          	beq	t0,t5,80002f60 <matrix_add_const+0x90>
    80002f20:	00600f93          	li	t6,6
    80002f24:	03f28063          	beq	t0,t6,80002f44 <matrix_add_const+0x74>
    80002f28:	02089793          	slli	a5,a7,0x20
    80002f2c:	01f7d693          	srli	a3,a5,0x1f
    80002f30:	00d582b3          	add	t0,a1,a3
    80002f34:	0002d803          	lhu	a6,0(t0)
    80002f38:	0018879b          	addiw	a5,a7,1
    80002f3c:	00e803bb          	addw	t2,a6,a4
    80002f40:	00729023          	sh	t2,0(t0)
    80002f44:	02079e13          	slli	t3,a5,0x20
    80002f48:	01fe5e93          	srli	t4,t3,0x1f
    80002f4c:	01d58f33          	add	t5,a1,t4
    80002f50:	000f5f83          	lhu	t6,0(t5)
    80002f54:	0017879b          	addiw	a5,a5,1
    80002f58:	00ef86bb          	addw	a3,t6,a4
    80002f5c:	00df1023          	sh	a3,0(t5)
    80002f60:	02079293          	slli	t0,a5,0x20
    80002f64:	01f2d813          	srli	a6,t0,0x1f
    80002f68:	010583b3          	add	t2,a1,a6
    80002f6c:	0003de03          	lhu	t3,0(t2)
    80002f70:	0017879b          	addiw	a5,a5,1
    80002f74:	00ee0ebb          	addw	t4,t3,a4
    80002f78:	01d39023          	sh	t4,0(t2)
    80002f7c:	02079f13          	slli	t5,a5,0x20
    80002f80:	01ff5f93          	srli	t6,t5,0x1f
    80002f84:	01f586b3          	add	a3,a1,t6
    80002f88:	0006d283          	lhu	t0,0(a3)
    80002f8c:	0017879b          	addiw	a5,a5,1
    80002f90:	00e2883b          	addw	a6,t0,a4
    80002f94:	01069023          	sh	a6,0(a3)
    80002f98:	02079393          	slli	t2,a5,0x20
    80002f9c:	01f3de13          	srli	t3,t2,0x1f
    80002fa0:	01c58eb3          	add	t4,a1,t3
    80002fa4:	000edf03          	lhu	t5,0(t4)
    80002fa8:	0017879b          	addiw	a5,a5,1
    80002fac:	00ef0fbb          	addw	t6,t5,a4
    80002fb0:	01fe9023          	sh	t6,0(t4)
    80002fb4:	02079693          	slli	a3,a5,0x20
    80002fb8:	01f6d293          	srli	t0,a3,0x1f
    80002fbc:	005583b3          	add	t2,a1,t0
    80002fc0:	0003d803          	lhu	a6,0(t2)
    80002fc4:	0017879b          	addiw	a5,a5,1
    80002fc8:	00e80e3b          	addw	t3,a6,a4
    80002fcc:	01c39023          	sh	t3,0(t2)
    80002fd0:	02079e93          	slli	t4,a5,0x20
    80002fd4:	01fedf13          	srli	t5,t4,0x1f
    80002fd8:	01e58fb3          	add	t6,a1,t5
    80002fdc:	000fd683          	lhu	a3,0(t6)
    80002fe0:	0017879b          	addiw	a5,a5,1
    80002fe4:	00e682bb          	addw	t0,a3,a4
    80002fe8:	005f9023          	sh	t0,0(t6)
    80002fec:	0ef60463          	beq	a2,a5,800030d4 <matrix_add_const+0x204>
    80002ff0:	02079393          	slli	t2,a5,0x20
    80002ff4:	01f3d813          	srli	a6,t2,0x1f
    80002ff8:	01058f33          	add	t5,a1,a6
    80002ffc:	000f5e03          	lhu	t3,0(t5)
    80003000:	00178f9b          	addiw	t6,a5,1
    80003004:	020f9e93          	slli	t4,t6,0x20
    80003008:	01fed693          	srli	a3,t4,0x1f
    8000300c:	00ee07bb          	addw	a5,t3,a4
    80003010:	00ff1023          	sh	a5,0(t5)
    80003014:	00d582b3          	add	t0,a1,a3
    80003018:	0002d383          	lhu	t2,0(t0)
    8000301c:	001f8f1b          	addiw	t5,t6,1
    80003020:	020f1813          	slli	a6,t5,0x20
    80003024:	01f85f93          	srli	t6,a6,0x1f
    80003028:	00e38e3b          	addw	t3,t2,a4
    8000302c:	01c29023          	sh	t3,0(t0)
    80003030:	01f582b3          	add	t0,a1,t6
    80003034:	0002d383          	lhu	t2,0(t0)
    80003038:	001f079b          	addiw	a5,t5,1
    8000303c:	02079e93          	slli	t4,a5,0x20
    80003040:	01fed693          	srli	a3,t4,0x1f
    80003044:	00e38f3b          	addw	t5,t2,a4
    80003048:	01e29023          	sh	t5,0(t0)
    8000304c:	00d58fb3          	add	t6,a1,a3
    80003050:	000fde03          	lhu	t3,0(t6)
    80003054:	0017829b          	addiw	t0,a5,1
    80003058:	02029813          	slli	a6,t0,0x20
    8000305c:	01f85393          	srli	t2,a6,0x1f
    80003060:	00ee07bb          	addw	a5,t3,a4
    80003064:	00ff9023          	sh	a5,0(t6)
    80003068:	00758f33          	add	t5,a1,t2
    8000306c:	000f5f83          	lhu	t6,0(t5)
    80003070:	0012829b          	addiw	t0,t0,1
    80003074:	02029e93          	slli	t4,t0,0x20
    80003078:	01fed693          	srli	a3,t4,0x1f
    8000307c:	00ef8e3b          	addw	t3,t6,a4
    80003080:	01cf1023          	sh	t3,0(t5)
    80003084:	00d583b3          	add	t2,a1,a3
    80003088:	0003df03          	lhu	t5,0(t2)
    8000308c:	0012879b          	addiw	a5,t0,1
    80003090:	02079813          	slli	a6,a5,0x20
    80003094:	00ef02bb          	addw	t0,t5,a4
    80003098:	01f85f93          	srli	t6,a6,0x1f
    8000309c:	00539023          	sh	t0,0(t2)
    800030a0:	01f586b3          	add	a3,a1,t6
    800030a4:	0006de03          	lhu	t3,0(a3)
    800030a8:	0017879b          	addiw	a5,a5,1
    800030ac:	02079e93          	slli	t4,a5,0x20
    800030b0:	01fedf13          	srli	t5,t4,0x1f
    800030b4:	00ee03bb          	addw	t2,t3,a4
    800030b8:	00769023          	sh	t2,0(a3)
    800030bc:	01e58fb3          	add	t6,a1,t5
    800030c0:	000fd683          	lhu	a3,0(t6)
    800030c4:	0017879b          	addiw	a5,a5,1
    800030c8:	00e682bb          	addw	t0,a3,a4
    800030cc:	005f9023          	sh	t0,0(t6)
    800030d0:	f2f610e3          	bne	a2,a5,80002ff0 <matrix_add_const+0x120>
    800030d4:	0013031b          	addiw	t1,t1,1
    800030d8:	011508bb          	addw	a7,a0,a7
    800030dc:	00c5063b          	addw	a2,a0,a2
    800030e0:	e06514e3          	bne	a0,t1,80002ee8 <matrix_add_const+0x18>
    800030e4:	00008067          	ret

00000000800030e8 <matrix_mul_vect>:
    800030e8:	16050c63          	beqz	a0,80003260 <matrix_mul_vect+0x178>
    800030ec:	fff50f9b          	addiw	t6,a0,-1
    800030f0:	020f9793          	slli	a5,t6,0x20
    800030f4:	fe010113          	addi	sp,sp,-32
    800030f8:	01e7d293          	srli	t0,a5,0x1e
    800030fc:	00458313          	addi	t1,a1,4
    80003100:	00813c23          	sd	s0,24(sp)
    80003104:	00913823          	sd	s1,16(sp)
    80003108:	01213423          	sd	s2,8(sp)
    8000310c:	00058f13          	mv	t5,a1
    80003110:	00628fb3          	add	t6,t0,t1
    80003114:	00050e13          	mv	t3,a0
    80003118:	00000e93          	li	t4,0
    8000311c:	41de05b3          	sub	a1,t3,t4
    80003120:	0035f393          	andi	t2,a1,3
    80003124:	00068713          	mv	a4,a3
    80003128:	000e8793          	mv	a5,t4
    8000312c:	00000293          	li	t0,0
    80003130:	08038063          	beqz	t2,800031b0 <matrix_mul_vect+0xc8>
    80003134:	00100813          	li	a6,1
    80003138:	05038863          	beq	t2,a6,80003188 <matrix_mul_vect+0xa0>
    8000313c:	00200413          	li	s0,2
    80003140:	02838263          	beq	t2,s0,80003164 <matrix_mul_vect+0x7c>
    80003144:	020e9713          	slli	a4,t4,0x20
    80003148:	01f75493          	srli	s1,a4,0x1f
    8000314c:	009608b3          	add	a7,a2,s1
    80003150:	00089903          	lh	s2,0(a7)
    80003154:	00069283          	lh	t0,0(a3)
    80003158:	001e879b          	addiw	a5,t4,1
    8000315c:	00268713          	addi	a4,a3,2
    80003160:	025902bb          	mulw	t0,s2,t0
    80003164:	02079313          	slli	t1,a5,0x20
    80003168:	01f35593          	srli	a1,t1,0x1f
    8000316c:	00b603b3          	add	t2,a2,a1
    80003170:	00071803          	lh	a6,0(a4)
    80003174:	00039403          	lh	s0,0(t2)
    80003178:	0017879b          	addiw	a5,a5,1
    8000317c:	00270713          	addi	a4,a4,2
    80003180:	030404bb          	mulw	s1,s0,a6
    80003184:	005482bb          	addw	t0,s1,t0
    80003188:	02079893          	slli	a7,a5,0x20
    8000318c:	01f8d913          	srli	s2,a7,0x1f
    80003190:	01260333          	add	t1,a2,s2
    80003194:	00071383          	lh	t2,0(a4)
    80003198:	00031583          	lh	a1,0(t1)
    8000319c:	0017879b          	addiw	a5,a5,1
    800031a0:	00270713          	addi	a4,a4,2
    800031a4:	0275883b          	mulw	a6,a1,t2
    800031a8:	005802bb          	addw	t0,a6,t0
    800031ac:	08fe0663          	beq	t3,a5,80003238 <matrix_mul_vect+0x150>
    800031b0:	0017841b          	addiw	s0,a5,1
    800031b4:	02079493          	slli	s1,a5,0x20
    800031b8:	01f4d893          	srli	a7,s1,0x1f
    800031bc:	0014091b          	addiw	s2,s0,1
    800031c0:	02041313          	slli	t1,s0,0x20
    800031c4:	0019039b          	addiw	t2,s2,1
    800031c8:	01f35793          	srli	a5,t1,0x1f
    800031cc:	02091413          	slli	s0,s2,0x20
    800031d0:	011605b3          	add	a1,a2,a7
    800031d4:	00071303          	lh	t1,0(a4)
    800031d8:	01f45493          	srli	s1,s0,0x1f
    800031dc:	00059883          	lh	a7,0(a1)
    800031e0:	00f60833          	add	a6,a2,a5
    800031e4:	02039793          	slli	a5,t2,0x20
    800031e8:	00271903          	lh	s2,2(a4)
    800031ec:	00081803          	lh	a6,0(a6)
    800031f0:	009605b3          	add	a1,a2,s1
    800031f4:	01f7d413          	srli	s0,a5,0x1f
    800031f8:	00471483          	lh	s1,4(a4)
    800031fc:	008607b3          	add	a5,a2,s0
    80003200:	00059583          	lh	a1,0(a1)
    80003204:	026888bb          	mulw	a7,a7,t1
    80003208:	00671403          	lh	s0,6(a4)
    8000320c:	00079303          	lh	t1,0(a5)
    80003210:	0013879b          	addiw	a5,t2,1
    80003214:	00870713          	addi	a4,a4,8
    80003218:	032803bb          	mulw	t2,a6,s2
    8000321c:	005882bb          	addw	t0,a7,t0
    80003220:	0295893b          	mulw	s2,a1,s1
    80003224:	0053883b          	addw	a6,t2,t0
    80003228:	028304bb          	mulw	s1,t1,s0
    8000322c:	010905bb          	addw	a1,s2,a6
    80003230:	00b482bb          	addw	t0,s1,a1
    80003234:	f6fe1ee3          	bne	t3,a5,800031b0 <matrix_mul_vect+0xc8>
    80003238:	005f2023          	sw	t0,0(t5)
    8000323c:	004f0f13          	addi	t5,t5,4
    80003240:	01d50ebb          	addw	t4,a0,t4
    80003244:	01c50e3b          	addw	t3,a0,t3
    80003248:	edef9ae3          	bne	t6,t5,8000311c <matrix_mul_vect+0x34>
    8000324c:	01813403          	ld	s0,24(sp)
    80003250:	01013483          	ld	s1,16(sp)
    80003254:	00813903          	ld	s2,8(sp)
    80003258:	02010113          	addi	sp,sp,32
    8000325c:	00008067          	ret
    80003260:	00008067          	ret

0000000080003264 <matrix_mul_matrix>:
    80003264:	20050c63          	beqz	a0,8000347c <matrix_mul_matrix+0x218>
    80003268:	fd010113          	addi	sp,sp,-48
    8000326c:	02813423          	sd	s0,40(sp)
    80003270:	02913023          	sd	s1,32(sp)
    80003274:	01213c23          	sd	s2,24(sp)
    80003278:	01313823          	sd	s3,16(sp)
    8000327c:	01413423          	sd	s4,8(sp)
    80003280:	01513023          	sd	s5,0(sp)
    80003284:	00050813          	mv	a6,a0
    80003288:	00058293          	mv	t0,a1
    8000328c:	00060313          	mv	t1,a2
    80003290:	00068893          	mv	a7,a3
    80003294:	00050f13          	mv	t5,a0
    80003298:	00000f93          	li	t6,0
    8000329c:	00000393          	li	t2,0
    800032a0:	00000e93          	li	t4,0
    800032a4:	01fe8e3b          	addw	t3,t4,t6
    800032a8:	020e1793          	slli	a5,t3,0x20
    800032ac:	41ff06b3          	sub	a3,t5,t6
    800032b0:	01e7d413          	srli	s0,a5,0x1e
    800032b4:	0036f493          	andi	s1,a3,3
    800032b8:	00828e33          	add	t3,t0,s0
    800032bc:	000e8713          	mv	a4,t4
    800032c0:	000f8793          	mv	a5,t6
    800032c4:	00000413          	li	s0,0
    800032c8:	0a048263          	beqz	s1,8000336c <matrix_mul_matrix+0x108>
    800032cc:	00100613          	li	a2,1
    800032d0:	06c48463          	beq	s1,a2,80003338 <matrix_mul_matrix+0xd4>
    800032d4:	00200513          	li	a0,2
    800032d8:	02a48863          	beq	s1,a0,80003308 <matrix_mul_matrix+0xa4>
    800032dc:	020f9593          	slli	a1,t6,0x20
    800032e0:	020e9913          	slli	s2,t4,0x20
    800032e4:	01f5d713          	srli	a4,a1,0x1f
    800032e8:	01f95993          	srli	s3,s2,0x1f
    800032ec:	00e30a33          	add	s4,t1,a4
    800032f0:	01388ab3          	add	s5,a7,s3
    800032f4:	000a1403          	lh	s0,0(s4)
    800032f8:	000a9683          	lh	a3,0(s5)
    800032fc:	001f879b          	addiw	a5,t6,1
    80003300:	01d8073b          	addw	a4,a6,t4
    80003304:	02d4043b          	mulw	s0,s0,a3
    80003308:	02079493          	slli	s1,a5,0x20
    8000330c:	02071613          	slli	a2,a4,0x20
    80003310:	01f4d513          	srli	a0,s1,0x1f
    80003314:	01f65593          	srli	a1,a2,0x1f
    80003318:	00a30933          	add	s2,t1,a0
    8000331c:	00b889b3          	add	s3,a7,a1
    80003320:	00091a03          	lh	s4,0(s2)
    80003324:	00099a83          	lh	s5,0(s3)
    80003328:	0017879b          	addiw	a5,a5,1
    8000332c:	00e8073b          	addw	a4,a6,a4
    80003330:	035a06bb          	mulw	a3,s4,s5
    80003334:	0086843b          	addw	s0,a3,s0
    80003338:	02079493          	slli	s1,a5,0x20
    8000333c:	02071613          	slli	a2,a4,0x20
    80003340:	01f4d513          	srli	a0,s1,0x1f
    80003344:	01f65593          	srli	a1,a2,0x1f
    80003348:	00a30933          	add	s2,t1,a0
    8000334c:	00b889b3          	add	s3,a7,a1
    80003350:	00091a03          	lh	s4,0(s2)
    80003354:	00099a83          	lh	s5,0(s3)
    80003358:	0017879b          	addiw	a5,a5,1
    8000335c:	00e8073b          	addw	a4,a6,a4
    80003360:	035a06bb          	mulw	a3,s4,s5
    80003364:	0086843b          	addw	s0,a3,s0
    80003368:	0cff0463          	beq	t5,a5,80003430 <matrix_mul_matrix+0x1cc>
    8000336c:	0017849b          	addiw	s1,a5,1
    80003370:	00e805bb          	addw	a1,a6,a4
    80003374:	00148a1b          	addiw	s4,s1,1
    80003378:	02079513          	slli	a0,a5,0x20
    8000337c:	02071613          	slli	a2,a4,0x20
    80003380:	01f55913          	srli	s2,a0,0x1f
    80003384:	01f65993          	srli	s3,a2,0x1f
    80003388:	00b80abb          	addw	s5,a6,a1
    8000338c:	02049693          	slli	a3,s1,0x20
    80003390:	020a1613          	slli	a2,s4,0x20
    80003394:	02059493          	slli	s1,a1,0x20
    80003398:	01388733          	add	a4,a7,s3
    8000339c:	012307b3          	add	a5,t1,s2
    800033a0:	001a099b          	addiw	s3,s4,1
    800033a4:	0158093b          	addw	s2,a6,s5
    800033a8:	01f6d513          	srli	a0,a3,0x1f
    800033ac:	01f4d593          	srli	a1,s1,0x1f
    800033b0:	01f65a13          	srli	s4,a2,0x1f
    800033b4:	020a9a93          	slli	s5,s5,0x20
    800033b8:	00071483          	lh	s1,0(a4)
    800033bc:	00079783          	lh	a5,0(a5)
    800033c0:	01fad713          	srli	a4,s5,0x1f
    800033c4:	01430633          	add	a2,t1,s4
    800033c8:	02091a93          	slli	s5,s2,0x20
    800033cc:	02099a13          	slli	s4,s3,0x20
    800033d0:	00a30533          	add	a0,t1,a0
    800033d4:	00b885b3          	add	a1,a7,a1
    800033d8:	00e886b3          	add	a3,a7,a4
    800033dc:	00051503          	lh	a0,0(a0)
    800033e0:	00059583          	lh	a1,0(a1)
    800033e4:	01fad713          	srli	a4,s5,0x1f
    800033e8:	01fa5a13          	srli	s4,s4,0x1f
    800033ec:	00061603          	lh	a2,0(a2)
    800033f0:	00069a83          	lh	s5,0(a3)
    800033f4:	01430a33          	add	s4,t1,s4
    800033f8:	00e88733          	add	a4,a7,a4
    800033fc:	029786bb          	mulw	a3,a5,s1
    80003400:	000a1483          	lh	s1,0(s4)
    80003404:	00071a03          	lh	s4,0(a4)
    80003408:	0019879b          	addiw	a5,s3,1
    8000340c:	0128073b          	addw	a4,a6,s2
    80003410:	02b509bb          	mulw	s3,a0,a1
    80003414:	0086843b          	addw	s0,a3,s0
    80003418:	0356093b          	mulw	s2,a2,s5
    8000341c:	0089853b          	addw	a0,s3,s0
    80003420:	034485bb          	mulw	a1,s1,s4
    80003424:	00a9063b          	addw	a2,s2,a0
    80003428:	00c5843b          	addw	s0,a1,a2
    8000342c:	f4ff10e3          	bne	t5,a5,8000336c <matrix_mul_matrix+0x108>
    80003430:	008e2023          	sw	s0,0(t3)
    80003434:	001e8e1b          	addiw	t3,t4,1
    80003438:	01c80663          	beq	a6,t3,80003444 <matrix_mul_matrix+0x1e0>
    8000343c:	000e0e93          	mv	t4,t3
    80003440:	e65ff06f          	j	800032a4 <matrix_mul_matrix+0x40>
    80003444:	0013879b          	addiw	a5,t2,1
    80003448:	01f80fbb          	addw	t6,a6,t6
    8000344c:	01e80f3b          	addw	t5,a6,t5
    80003450:	01d38663          	beq	t2,t4,8000345c <matrix_mul_matrix+0x1f8>
    80003454:	00078393          	mv	t2,a5
    80003458:	e49ff06f          	j	800032a0 <matrix_mul_matrix+0x3c>
    8000345c:	02813403          	ld	s0,40(sp)
    80003460:	02013483          	ld	s1,32(sp)
    80003464:	01813903          	ld	s2,24(sp)
    80003468:	01013983          	ld	s3,16(sp)
    8000346c:	00813a03          	ld	s4,8(sp)
    80003470:	00013a83          	ld	s5,0(sp)
    80003474:	03010113          	addi	sp,sp,48
    80003478:	00008067          	ret
    8000347c:	00008067          	ret

0000000080003480 <matrix_mul_matrix_bitextract>:
    80003480:	16050263          	beqz	a0,800035e4 <matrix_mul_matrix_bitextract+0x164>
    80003484:	ff010113          	addi	sp,sp,-16
    80003488:	00813423          	sd	s0,8(sp)
    8000348c:	00913023          	sd	s1,0(sp)
    80003490:	00050813          	mv	a6,a0
    80003494:	00058293          	mv	t0,a1
    80003498:	00060e13          	mv	t3,a2
    8000349c:	00068313          	mv	t1,a3
    800034a0:	00050e93          	mv	t4,a0
    800034a4:	00000f93          	li	t6,0
    800034a8:	00000393          	li	t2,0
    800034ac:	00000f13          	li	t5,0
    800034b0:	01ff08bb          	addw	a7,t5,t6
    800034b4:	02089713          	slli	a4,a7,0x20
    800034b8:	41df87b3          	sub	a5,t6,t4
    800034bc:	01e75413          	srli	s0,a4,0x1e
    800034c0:	0017f493          	andi	s1,a5,1
    800034c4:	008288b3          	add	a7,t0,s0
    800034c8:	000f0593          	mv	a1,t5
    800034cc:	000f8613          	mv	a2,t6
    800034d0:	00000413          	li	s0,0
    800034d4:	04048463          	beqz	s1,8000351c <matrix_mul_matrix_bitextract+0x9c>
    800034d8:	020f9513          	slli	a0,t6,0x20
    800034dc:	020f1693          	slli	a3,t5,0x20
    800034e0:	01f55593          	srli	a1,a0,0x1f
    800034e4:	01f6d613          	srli	a2,a3,0x1f
    800034e8:	00be07b3          	add	a5,t3,a1
    800034ec:	00c30733          	add	a4,t1,a2
    800034f0:	00079403          	lh	s0,0(a5)
    800034f4:	00071483          	lh	s1,0(a4)
    800034f8:	001f861b          	addiw	a2,t6,1
    800034fc:	01e805bb          	addw	a1,a6,t5
    80003500:	0294053b          	mulw	a0,s0,s1
    80003504:	4025569b          	sraiw	a3,a0,0x2
    80003508:	4055579b          	sraiw	a5,a0,0x5
    8000350c:	00f6f713          	andi	a4,a3,15
    80003510:	07f7f413          	andi	s0,a5,127
    80003514:	02870433          	mul	s0,a4,s0
    80003518:	08ce8863          	beq	t4,a2,800035a8 <matrix_mul_matrix_bitextract+0x128>
    8000351c:	02061493          	slli	s1,a2,0x20
    80003520:	01f4d693          	srli	a3,s1,0x1f
    80003524:	02059513          	slli	a0,a1,0x20
    80003528:	0016061b          	addiw	a2,a2,1
    8000352c:	00b805bb          	addw	a1,a6,a1
    80003530:	02061493          	slli	s1,a2,0x20
    80003534:	01f55793          	srli	a5,a0,0x1f
    80003538:	00de0733          	add	a4,t3,a3
    8000353c:	02059693          	slli	a3,a1,0x20
    80003540:	00f30533          	add	a0,t1,a5
    80003544:	01f4d793          	srli	a5,s1,0x1f
    80003548:	01f6d493          	srli	s1,a3,0x1f
    8000354c:	009306b3          	add	a3,t1,s1
    80003550:	00051503          	lh	a0,0(a0)
    80003554:	00fe07b3          	add	a5,t3,a5
    80003558:	00071703          	lh	a4,0(a4)
    8000355c:	00079483          	lh	s1,0(a5)
    80003560:	00069783          	lh	a5,0(a3)
    80003564:	02a7073b          	mulw	a4,a4,a0
    80003568:	0016061b          	addiw	a2,a2,1
    8000356c:	00b805bb          	addw	a1,a6,a1
    80003570:	02f484bb          	mulw	s1,s1,a5
    80003574:	4027551b          	sraiw	a0,a4,0x2
    80003578:	4057579b          	sraiw	a5,a4,0x5
    8000357c:	00f57693          	andi	a3,a0,15
    80003580:	07f7f713          	andi	a4,a5,127
    80003584:	4024d51b          	sraiw	a0,s1,0x2
    80003588:	4054d49b          	sraiw	s1,s1,0x5
    8000358c:	02e6873b          	mulw	a4,a3,a4
    80003590:	07f4f793          	andi	a5,s1,127
    80003594:	00f57693          	andi	a3,a0,15
    80003598:	02f6853b          	mulw	a0,a3,a5
    8000359c:	0087043b          	addw	s0,a4,s0
    800035a0:	0085043b          	addw	s0,a0,s0
    800035a4:	f6ce9ce3          	bne	t4,a2,8000351c <matrix_mul_matrix_bitextract+0x9c>
    800035a8:	0088a023          	sw	s0,0(a7)
    800035ac:	001f089b          	addiw	a7,t5,1
    800035b0:	01180663          	beq	a6,a7,800035bc <matrix_mul_matrix_bitextract+0x13c>
    800035b4:	00088f13          	mv	t5,a7
    800035b8:	ef9ff06f          	j	800034b0 <matrix_mul_matrix_bitextract+0x30>
    800035bc:	0013861b          	addiw	a2,t2,1
    800035c0:	01f80fbb          	addw	t6,a6,t6
    800035c4:	01d80ebb          	addw	t4,a6,t4
    800035c8:	01e38663          	beq	t2,t5,800035d4 <matrix_mul_matrix_bitextract+0x154>
    800035cc:	00060393          	mv	t2,a2
    800035d0:	eddff06f          	j	800034ac <matrix_mul_matrix_bitextract+0x2c>
    800035d4:	00813403          	ld	s0,8(sp)
    800035d8:	00013483          	ld	s1,0(sp)
    800035dc:	01010113          	addi	sp,sp,16
    800035e0:	00008067          	ret
    800035e4:	00008067          	ret

00000000800035e8 <core_init_state>:
    800035e8:	fff5089b          	addiw	a7,a0,-1
    800035ec:	00100793          	li	a5,1
    800035f0:	4b17f663          	bgeu	a5,a7,80003a9c <core_init_state+0x4b4>
    800035f4:	0015859b          	addiw	a1,a1,1
    800035f8:	03059693          	slli	a3,a1,0x30
    800035fc:	0306d693          	srli	a3,a3,0x30
    80003600:	00000793          	li	a5,0
    80003604:	00006e97          	auipc	t4,0x6
    80003608:	29ce8e93          	addi	t4,t4,668 # 800098a0 <intpat>
    8000360c:	00700e13          	li	t3,7
    80003610:	00800f93          	li	t6,8
    80003614:	00400813          	li	a6,4
    80003618:	00100313          	li	t1,1
    8000361c:	02c00f13          	li	t5,44
    80003620:	0a00006f          	j	800036c0 <core_init_state+0xd8>
    80003624:	44586263          	bltu	a6,t0,80003a68 <core_init_state+0x480>
    80003628:	ffd2839b          	addiw	t2,t0,-3
    8000362c:	03039293          	slli	t0,t2,0x30
    80003630:	00371713          	slli	a4,a4,0x3
    80003634:	0302d593          	srli	a1,t0,0x30
    80003638:	00ee83b3          	add	t2,t4,a4
    8000363c:	40b36e63          	bltu	t1,a1,80003a58 <core_init_state+0x470>
    80003640:	0203b703          	ld	a4,32(t2)
    80003644:	00800293          	li	t0,8
    80003648:	00900393          	li	t2,9
    8000364c:	007785bb          	addw	a1,a5,t2
    80003650:	0915fe63          	bgeu	a1,a7,800036ec <core_init_state+0x104>
    80003654:	00074383          	lbu	t2,0(a4)
    80003658:	02079793          	slli	a5,a5,0x20
    8000365c:	0207d793          	srli	a5,a5,0x20
    80003660:	00f607b3          	add	a5,a2,a5
    80003664:	00778023          	sb	t2,0(a5)
    80003668:	00174383          	lbu	t2,1(a4)
    8000366c:	007780a3          	sb	t2,1(a5)
    80003670:	00274383          	lbu	t2,2(a4)
    80003674:	00778123          	sb	t2,2(a5)
    80003678:	00374383          	lbu	t2,3(a4)
    8000367c:	007781a3          	sb	t2,3(a5)
    80003680:	03028463          	beq	t0,a6,800036a8 <core_init_state+0xc0>
    80003684:	00474383          	lbu	t2,4(a4)
    80003688:	00778223          	sb	t2,4(a5)
    8000368c:	00574383          	lbu	t2,5(a4)
    80003690:	007782a3          	sb	t2,5(a5)
    80003694:	00674383          	lbu	t2,6(a4)
    80003698:	00778323          	sb	t2,6(a5)
    8000369c:	01f29663          	bne	t0,t6,800036a8 <core_init_state+0xc0>
    800036a0:	00774703          	lbu	a4,7(a4)
    800036a4:	00e783a3          	sb	a4,7(a5)
    800036a8:	0016869b          	addiw	a3,a3,1
    800036ac:	005782b3          	add	t0,a5,t0
    800036b0:	03069793          	slli	a5,a3,0x30
    800036b4:	0307d693          	srli	a3,a5,0x30
    800036b8:	01e28023          	sb	t5,0(t0)
    800036bc:	00058793          	mv	a5,a1
    800036c0:	0036d713          	srli	a4,a3,0x3
    800036c4:	0076f293          	andi	t0,a3,7
    800036c8:	00377713          	andi	a4,a4,3
    800036cc:	f5c29ce3          	bne	t0,t3,80003624 <core_init_state+0x3c>
    800036d0:	00371593          	slli	a1,a4,0x3
    800036d4:	00900393          	li	t2,9
    800036d8:	00be82b3          	add	t0,t4,a1
    800036dc:	007785bb          	addw	a1,a5,t2
    800036e0:	0602b703          	ld	a4,96(t0)
    800036e4:	00800293          	li	t0,8
    800036e8:	f715e6e3          	bltu	a1,a7,80003654 <core_init_state+0x6c>
    800036ec:	3aa7f663          	bgeu	a5,a0,80003a98 <core_init_state+0x4b0>
    800036f0:	02079813          	slli	a6,a5,0x20
    800036f4:	02085813          	srli	a6,a6,0x20
    800036f8:	010608b3          	add	a7,a2,a6
    800036fc:	41100333          	neg	t1,a7
    80003700:	00737e13          	andi	t3,t1,7
    80003704:	007e0f93          	addi	t6,t3,7
    80003708:	00b00e93          	li	t4,11
    8000370c:	40f50f3b          	subw	t5,a0,a5
    80003710:	37dfe863          	bltu	t6,t4,80003a80 <core_init_state+0x498>
    80003714:	ffff069b          	addiw	a3,t5,-1
    80003718:	1df6e463          	bltu	a3,t6,800038e0 <core_init_state+0x2f8>
    8000371c:	380e0463          	beqz	t3,80003aa4 <core_init_state+0x4bc>
    80003720:	0017871b          	addiw	a4,a5,1
    80003724:	00088023          	sb	zero,0(a7)
    80003728:	00100393          	li	t2,1
    8000372c:	0007029b          	sext.w	t0,a4
    80003730:	0a7e0c63          	beq	t3,t2,800037e8 <core_init_state+0x200>
    80003734:	02071593          	slli	a1,a4,0x20
    80003738:	0205d893          	srli	a7,a1,0x20
    8000373c:	01160eb3          	add	t4,a2,a7
    80003740:	0027831b          	addiw	t1,a5,2
    80003744:	000e8023          	sb	zero,0(t4)
    80003748:	00200f93          	li	t6,2
    8000374c:	0003029b          	sext.w	t0,t1
    80003750:	09fe0c63          	beq	t3,t6,800037e8 <core_init_state+0x200>
    80003754:	02031693          	slli	a3,t1,0x20
    80003758:	0206d293          	srli	t0,a3,0x20
    8000375c:	00560733          	add	a4,a2,t0
    80003760:	0037839b          	addiw	t2,a5,3
    80003764:	00070023          	sb	zero,0(a4)
    80003768:	00300593          	li	a1,3
    8000376c:	0003829b          	sext.w	t0,t2
    80003770:	06be0c63          	beq	t3,a1,800037e8 <core_init_state+0x200>
    80003774:	02039893          	slli	a7,t2,0x20
    80003778:	0208de93          	srli	t4,a7,0x20
    8000377c:	01d60fb3          	add	t6,a2,t4
    80003780:	0047831b          	addiw	t1,a5,4
    80003784:	000f8023          	sb	zero,0(t6)
    80003788:	00400693          	li	a3,4
    8000378c:	0003029b          	sext.w	t0,t1
    80003790:	04de0c63          	beq	t3,a3,800037e8 <core_init_state+0x200>
    80003794:	02031293          	slli	t0,t1,0x20
    80003798:	0202d713          	srli	a4,t0,0x20
    8000379c:	00e603b3          	add	t2,a2,a4
    800037a0:	0057859b          	addiw	a1,a5,5
    800037a4:	00038023          	sb	zero,0(t2)
    800037a8:	00500893          	li	a7,5
    800037ac:	0005829b          	sext.w	t0,a1
    800037b0:	031e0c63          	beq	t3,a7,800037e8 <core_init_state+0x200>
    800037b4:	02059e93          	slli	t4,a1,0x20
    800037b8:	020edf93          	srli	t6,t4,0x20
    800037bc:	01f606b3          	add	a3,a2,t6
    800037c0:	0067831b          	addiw	t1,a5,6
    800037c4:	00068023          	sb	zero,0(a3)
    800037c8:	00700713          	li	a4,7
    800037cc:	0003029b          	sext.w	t0,t1
    800037d0:	00ee1c63          	bne	t3,a4,800037e8 <core_init_state+0x200>
    800037d4:	02031293          	slli	t0,t1,0x20
    800037d8:	0202d393          	srli	t2,t0,0x20
    800037dc:	007605b3          	add	a1,a2,t2
    800037e0:	00058023          	sb	zero,0(a1)
    800037e4:	0077829b          	addiw	t0,a5,7
    800037e8:	41cf0f3b          	subw	t5,t5,t3
    800037ec:	003f579b          	srliw	a5,t5,0x3
    800037f0:	fff7889b          	addiw	a7,a5,-1
    800037f4:	02089e93          	slli	t4,a7,0x20
    800037f8:	01dedf93          	srli	t6,t4,0x1d
    800037fc:	010e0833          	add	a6,t3,a6
    80003800:	010607b3          	add	a5,a2,a6
    80003804:	003fde13          	srli	t3,t6,0x3
    80003808:	00878713          	addi	a4,a5,8
    8000380c:	007e7693          	andi	a3,t3,7
    80003810:	000f031b          	sext.w	t1,t5
    80003814:	00ef83b3          	add	t2,t6,a4
    80003818:	0a068463          	beqz	a3,800038c0 <core_init_state+0x2d8>
    8000381c:	0007b023          	sd	zero,0(a5)
    80003820:	00100593          	li	a1,1
    80003824:	00070793          	mv	a5,a4
    80003828:	00870713          	addi	a4,a4,8
    8000382c:	08b68a63          	beq	a3,a1,800038c0 <core_init_state+0x2d8>
    80003830:	00200893          	li	a7,2
    80003834:	05168a63          	beq	a3,a7,80003888 <core_init_state+0x2a0>
    80003838:	00300e93          	li	t4,3
    8000383c:	05d68063          	beq	a3,t4,8000387c <core_init_state+0x294>
    80003840:	00400f93          	li	t6,4
    80003844:	03f68663          	beq	a3,t6,80003870 <core_init_state+0x288>
    80003848:	00500813          	li	a6,5
    8000384c:	01068c63          	beq	a3,a6,80003864 <core_init_state+0x27c>
    80003850:	00600e13          	li	t3,6
    80003854:	23c69a63          	bne	a3,t3,80003a88 <core_init_state+0x4a0>
    80003858:	0007b023          	sd	zero,0(a5)
    8000385c:	00070793          	mv	a5,a4
    80003860:	00870713          	addi	a4,a4,8
    80003864:	0007b023          	sd	zero,0(a5)
    80003868:	00070793          	mv	a5,a4
    8000386c:	00870713          	addi	a4,a4,8
    80003870:	0007b023          	sd	zero,0(a5)
    80003874:	00070793          	mv	a5,a4
    80003878:	00870713          	addi	a4,a4,8
    8000387c:	0007b023          	sd	zero,0(a5)
    80003880:	00070793          	mv	a5,a4
    80003884:	00870713          	addi	a4,a4,8
    80003888:	0007b023          	sd	zero,0(a5)
    8000388c:	00070793          	mv	a5,a4
    80003890:	0007b023          	sd	zero,0(a5)
    80003894:	00870713          	addi	a4,a4,8
    80003898:	02770863          	beq	a4,t2,800038c8 <core_init_state+0x2e0>
    8000389c:	00073023          	sd	zero,0(a4)
    800038a0:	00073423          	sd	zero,8(a4)
    800038a4:	00073823          	sd	zero,16(a4)
    800038a8:	00073c23          	sd	zero,24(a4)
    800038ac:	02073023          	sd	zero,32(a4)
    800038b0:	02073423          	sd	zero,40(a4)
    800038b4:	02073823          	sd	zero,48(a4)
    800038b8:	03870793          	addi	a5,a4,56
    800038bc:	04070713          	addi	a4,a4,64
    800038c0:	0007b023          	sd	zero,0(a5)
    800038c4:	fc771ce3          	bne	a4,t2,8000389c <core_init_state+0x2b4>
    800038c8:	ff8f7f13          	andi	t5,t5,-8
    800038cc:	000f069b          	sext.w	a3,t5
    800038d0:	005f07bb          	addw	a5,t5,t0
    800038d4:	18668063          	beq	a3,t1,80003a54 <core_init_state+0x46c>
    800038d8:	02079293          	slli	t0,a5,0x20
    800038dc:	0202d813          	srli	a6,t0,0x20
    800038e0:	01060333          	add	t1,a2,a6
    800038e4:	0017839b          	addiw	t2,a5,1
    800038e8:	00030023          	sb	zero,0(t1)
    800038ec:	0003859b          	sext.w	a1,t2
    800038f0:	16a5f263          	bgeu	a1,a0,80003a54 <core_init_state+0x46c>
    800038f4:	02039893          	slli	a7,t2,0x20
    800038f8:	0208de93          	srli	t4,a7,0x20
    800038fc:	01d60fb3          	add	t6,a2,t4
    80003900:	00278e1b          	addiw	t3,a5,2
    80003904:	000f8023          	sb	zero,0(t6)
    80003908:	000e071b          	sext.w	a4,t3
    8000390c:	14a77463          	bgeu	a4,a0,80003a54 <core_init_state+0x46c>
    80003910:	020e1f13          	slli	t5,t3,0x20
    80003914:	020f5693          	srli	a3,t5,0x20
    80003918:	00d602b3          	add	t0,a2,a3
    8000391c:	0037881b          	addiw	a6,a5,3
    80003920:	00028023          	sb	zero,0(t0)
    80003924:	0008031b          	sext.w	t1,a6
    80003928:	12a37663          	bgeu	t1,a0,80003a54 <core_init_state+0x46c>
    8000392c:	02081393          	slli	t2,a6,0x20
    80003930:	0203d593          	srli	a1,t2,0x20
    80003934:	00b608b3          	add	a7,a2,a1
    80003938:	00478e9b          	addiw	t4,a5,4
    8000393c:	00088023          	sb	zero,0(a7)
    80003940:	000e8f9b          	sext.w	t6,t4
    80003944:	10aff863          	bgeu	t6,a0,80003a54 <core_init_state+0x46c>
    80003948:	020e9e13          	slli	t3,t4,0x20
    8000394c:	020e5713          	srli	a4,t3,0x20
    80003950:	00e60f33          	add	t5,a2,a4
    80003954:	0057829b          	addiw	t0,a5,5
    80003958:	000f0023          	sb	zero,0(t5)
    8000395c:	0002869b          	sext.w	a3,t0
    80003960:	0ea6fa63          	bgeu	a3,a0,80003a54 <core_init_state+0x46c>
    80003964:	02029813          	slli	a6,t0,0x20
    80003968:	02085313          	srli	t1,a6,0x20
    8000396c:	006603b3          	add	t2,a2,t1
    80003970:	0067859b          	addiw	a1,a5,6
    80003974:	00038023          	sb	zero,0(t2)
    80003978:	0005889b          	sext.w	a7,a1
    8000397c:	0ca8fc63          	bgeu	a7,a0,80003a54 <core_init_state+0x46c>
    80003980:	02059e93          	slli	t4,a1,0x20
    80003984:	020edf93          	srli	t6,t4,0x20
    80003988:	01f60e33          	add	t3,a2,t6
    8000398c:	0077871b          	addiw	a4,a5,7
    80003990:	000e0023          	sb	zero,0(t3)
    80003994:	00070f1b          	sext.w	t5,a4
    80003998:	0aaf7e63          	bgeu	t5,a0,80003a54 <core_init_state+0x46c>
    8000399c:	02071293          	slli	t0,a4,0x20
    800039a0:	0202d693          	srli	a3,t0,0x20
    800039a4:	00d60833          	add	a6,a2,a3
    800039a8:	0087831b          	addiw	t1,a5,8
    800039ac:	00080023          	sb	zero,0(a6)
    800039b0:	0003039b          	sext.w	t2,t1
    800039b4:	0aa3f063          	bgeu	t2,a0,80003a54 <core_init_state+0x46c>
    800039b8:	02031593          	slli	a1,t1,0x20
    800039bc:	0205d893          	srli	a7,a1,0x20
    800039c0:	01160eb3          	add	t4,a2,a7
    800039c4:	00978f9b          	addiw	t6,a5,9
    800039c8:	000e8023          	sb	zero,0(t4)
    800039cc:	000f8e1b          	sext.w	t3,t6
    800039d0:	08ae7263          	bgeu	t3,a0,80003a54 <core_init_state+0x46c>
    800039d4:	020f9713          	slli	a4,t6,0x20
    800039d8:	02075f13          	srli	t5,a4,0x20
    800039dc:	01e602b3          	add	t0,a2,t5
    800039e0:	00a7869b          	addiw	a3,a5,10
    800039e4:	00028023          	sb	zero,0(t0)
    800039e8:	0006881b          	sext.w	a6,a3
    800039ec:	06a87463          	bgeu	a6,a0,80003a54 <core_init_state+0x46c>
    800039f0:	02069313          	slli	t1,a3,0x20
    800039f4:	02035393          	srli	t2,t1,0x20
    800039f8:	007605b3          	add	a1,a2,t2
    800039fc:	00b7889b          	addiw	a7,a5,11
    80003a00:	00058023          	sb	zero,0(a1)
    80003a04:	00088e9b          	sext.w	t4,a7
    80003a08:	04aef663          	bgeu	t4,a0,80003a54 <core_init_state+0x46c>
    80003a0c:	02089f93          	slli	t6,a7,0x20
    80003a10:	020fde13          	srli	t3,t6,0x20
    80003a14:	01c60733          	add	a4,a2,t3
    80003a18:	00c78f1b          	addiw	t5,a5,12
    80003a1c:	00070023          	sb	zero,0(a4)
    80003a20:	000f029b          	sext.w	t0,t5
    80003a24:	02a2f863          	bgeu	t0,a0,80003a54 <core_init_state+0x46c>
    80003a28:	020f1693          	slli	a3,t5,0x20
    80003a2c:	0206d813          	srli	a6,a3,0x20
    80003a30:	01060333          	add	t1,a2,a6
    80003a34:	00d7879b          	addiw	a5,a5,13
    80003a38:	00030023          	sb	zero,0(t1)
    80003a3c:	0007839b          	sext.w	t2,a5
    80003a40:	00a3fa63          	bgeu	t2,a0,80003a54 <core_init_state+0x46c>
    80003a44:	02079513          	slli	a0,a5,0x20
    80003a48:	02055593          	srli	a1,a0,0x20
    80003a4c:	00b60633          	add	a2,a2,a1
    80003a50:	00060023          	sb	zero,0(a2)
    80003a54:	00008067          	ret
    80003a58:	0003b703          	ld	a4,0(t2)
    80003a5c:	00400293          	li	t0,4
    80003a60:	00500393          	li	t2,5
    80003a64:	be9ff06f          	j	8000364c <core_init_state+0x64>
    80003a68:	00371593          	slli	a1,a4,0x3
    80003a6c:	00be8733          	add	a4,t4,a1
    80003a70:	04073703          	ld	a4,64(a4)
    80003a74:	00900393          	li	t2,9
    80003a78:	00800293          	li	t0,8
    80003a7c:	bd1ff06f          	j	8000364c <core_init_state+0x64>
    80003a80:	00b00f93          	li	t6,11
    80003a84:	c91ff06f          	j	80003714 <core_init_state+0x12c>
    80003a88:	0007b023          	sd	zero,0(a5)
    80003a8c:	00070793          	mv	a5,a4
    80003a90:	00870713          	addi	a4,a4,8
    80003a94:	dc5ff06f          	j	80003858 <core_init_state+0x270>
    80003a98:	00008067          	ret
    80003a9c:	00000793          	li	a5,0
    80003aa0:	c51ff06f          	j	800036f0 <core_init_state+0x108>
    80003aa4:	00078293          	mv	t0,a5
    80003aa8:	d41ff06f          	j	800037e8 <core_init_state+0x200>

0000000080003aac <core_state_transition>:
    80003aac:	00053303          	ld	t1,0(a0)
    80003ab0:	00050e13          	mv	t3,a0
    80003ab4:	00000513          	li	a0,0
    80003ab8:	00034803          	lbu	a6,0(t1)
    80003abc:	00030713          	mv	a4,t1
    80003ac0:	12080063          	beqz	a6,80003be0 <core_state_transition+0x134>
    80003ac4:	00130693          	addi	a3,t1,1
    80003ac8:	02c00513          	li	a0,44
    80003acc:	00068713          	mv	a4,a3
    80003ad0:	2aa80463          	beq	a6,a0,80003d78 <core_state_transition+0x2cc>
    80003ad4:	0005a603          	lw	a2,0(a1)
    80003ad8:	fd08079b          	addiw	a5,a6,-48
    80003adc:	0ff7f293          	zext.b	t0,a5
    80003ae0:	00900893          	li	a7,9
    80003ae4:	0016039b          	addiw	t2,a2,1
    80003ae8:	1058e063          	bltu	a7,t0,80003be8 <core_state_transition+0x13c>
    80003aec:	0075a023          	sw	t2,0(a1)
    80003af0:	00134783          	lbu	a5,1(t1)
    80003af4:	28078a63          	beqz	a5,80003d88 <core_state_transition+0x2dc>
    80003af8:	28a78c63          	beq	a5,a0,80003d90 <core_state_transition+0x2e4>
    80003afc:	fd078e9b          	addiw	t4,a5,-48
    80003b00:	02e00513          	li	a0,46
    80003b04:	00900613          	li	a2,9
    80003b08:	02c00293          	li	t0,44
    80003b0c:	0ffeff13          	zext.b	t5,t4
    80003b10:	00170f93          	addi	t6,a4,1
    80003b14:	02a78463          	beq	a5,a0,80003b3c <core_state_transition+0x90>
    80003b18:	11e66263          	bltu	a2,t5,80003c1c <core_state_transition+0x170>
    80003b1c:	000fc783          	lbu	a5,0(t6)
    80003b20:	26078263          	beqz	a5,80003d84 <core_state_transition+0x2d8>
    80003b24:	2c578863          	beq	a5,t0,80003df4 <core_state_transition+0x348>
    80003b28:	000f8713          	mv	a4,t6
    80003b2c:	fd078e9b          	addiw	t4,a5,-48
    80003b30:	0ffeff13          	zext.b	t5,t4
    80003b34:	00170f93          	addi	t6,a4,1
    80003b38:	fea790e3          	bne	a5,a0,80003b18 <core_state_transition+0x6c>
    80003b3c:	0105a883          	lw	a7,16(a1)
    80003b40:	0018831b          	addiw	t1,a7,1
    80003b44:	0065a823          	sw	t1,16(a1)
    80003b48:	00174283          	lbu	t0,1(a4)
    80003b4c:	28028e63          	beqz	t0,80003de8 <core_state_transition+0x33c>
    80003b50:	02c00393          	li	t2,44
    80003b54:	2a728863          	beq	t0,t2,80003e04 <core_state_transition+0x358>
    80003b58:	fd02871b          	addiw	a4,t0,-48
    80003b5c:	04500e93          	li	t4,69
    80003b60:	0df2f793          	andi	a5,t0,223
    80003b64:	0ff77693          	zext.b	a3,a4
    80003b68:	00900f13          	li	t5,9
    80003b6c:	02c00813          	li	a6,44
    80003b70:	001f8713          	addi	a4,t6,1
    80003b74:	03d78663          	beq	a5,t4,80003ba0 <core_state_transition+0xf4>
    80003b78:	14df6c63          	bltu	t5,a3,80003cd0 <core_state_transition+0x224>
    80003b7c:	00074283          	lbu	t0,0(a4)
    80003b80:	22028863          	beqz	t0,80003db0 <core_state_transition+0x304>
    80003b84:	29028863          	beq	t0,a6,80003e14 <core_state_transition+0x368>
    80003b88:	00070f93          	mv	t6,a4
    80003b8c:	0df2f793          	andi	a5,t0,223
    80003b90:	fd02871b          	addiw	a4,t0,-48
    80003b94:	0ff77693          	zext.b	a3,a4
    80003b98:	001f8713          	addi	a4,t6,1
    80003b9c:	fdd79ee3          	bne	a5,t4,80003b78 <core_state_transition+0xcc>
    80003ba0:	0145a503          	lw	a0,20(a1)
    80003ba4:	0015089b          	addiw	a7,a0,1
    80003ba8:	0115aa23          	sw	a7,20(a1)
    80003bac:	001fc303          	lbu	t1,1(t6)
    80003bb0:	00300513          	li	a0,3
    80003bb4:	02030663          	beqz	t1,80003be0 <core_state_transition+0x134>
    80003bb8:	02c00393          	li	t2,44
    80003bbc:	1e730e63          	beq	t1,t2,80003db8 <core_state_transition+0x30c>
    80003bc0:	00c5ae83          	lw	t4,12(a1)
    80003bc4:	fd530f1b          	addiw	t5,t1,-43
    80003bc8:	0fdf7813          	andi	a6,t5,253
    80003bcc:	001e879b          	addiw	a5,t4,1
    80003bd0:	002f8713          	addi	a4,t6,2
    80003bd4:	06080263          	beqz	a6,80003c38 <core_state_transition+0x18c>
    80003bd8:	00f5a623          	sw	a5,12(a1)
    80003bdc:	00100513          	li	a0,1
    80003be0:	00ee3023          	sd	a4,0(t3)
    80003be4:	00008067          	ret
    80003be8:	02d00e93          	li	t4,45
    80003bec:	11d80863          	beq	a6,t4,80003cfc <core_state_transition+0x250>
    80003bf0:	02e00f13          	li	t5,46
    80003bf4:	0fe80863          	beq	a6,t5,80003ce4 <core_state_transition+0x238>
    80003bf8:	02b00f93          	li	t6,43
    80003bfc:	11f80063          	beq	a6,t6,80003cfc <core_state_transition+0x250>
    80003c00:	0045a303          	lw	t1,4(a1)
    80003c04:	0075a023          	sw	t2,0(a1)
    80003c08:	00100513          	li	a0,1
    80003c0c:	0013039b          	addiw	t2,t1,1
    80003c10:	0075a223          	sw	t2,4(a1)
    80003c14:	00ee3023          	sd	a4,0(t3)
    80003c18:	00008067          	ret
    80003c1c:	0105a803          	lw	a6,16(a1)
    80003c20:	000f8713          	mv	a4,t6
    80003c24:	00100513          	li	a0,1
    80003c28:	0018069b          	addiw	a3,a6,1
    80003c2c:	00d5a823          	sw	a3,16(a1)
    80003c30:	00ee3023          	sd	a4,0(t3)
    80003c34:	00008067          	ret
    80003c38:	00f5a623          	sw	a5,12(a1)
    80003c3c:	002fc683          	lbu	a3,2(t6)
    80003c40:	16068463          	beqz	a3,80003da8 <core_state_transition+0x2fc>
    80003c44:	18768263          	beq	a3,t2,80003dc8 <core_state_transition+0x31c>
    80003c48:	0185a703          	lw	a4,24(a1)
    80003c4c:	fd06861b          	addiw	a2,a3,-48
    80003c50:	0ff67293          	zext.b	t0,a2
    80003c54:	00900513          	li	a0,9
    80003c58:	0017089b          	addiw	a7,a4,1
    80003c5c:	003f8713          	addi	a4,t6,3
    80003c60:	04556663          	bltu	a0,t0,80003cac <core_state_transition+0x200>
    80003c64:	0115ac23          	sw	a7,24(a1)
    80003c68:	003fc783          	lbu	a5,3(t6)
    80003c6c:	12078a63          	beqz	a5,80003da0 <core_state_transition+0x2f4>
    80003c70:	16778463          	beq	a5,t2,80003dd8 <core_state_transition+0x32c>
    80003c74:	00900f93          	li	t6,9
    80003c78:	02c00313          	li	t1,44
    80003c7c:	fd07839b          	addiw	t2,a5,-48
    80003c80:	0ff3fe93          	zext.b	t4,t2
    80003c84:	00170713          	addi	a4,a4,1
    80003c88:	03dfea63          	bltu	t6,t4,80003cbc <core_state_transition+0x210>
    80003c8c:	00074783          	lbu	a5,0(a4)
    80003c90:	10078863          	beqz	a5,80003da0 <core_state_transition+0x2f4>
    80003c94:	fe6794e3          	bne	a5,t1,80003c7c <core_state_transition+0x1d0>
    80003c98:	00170693          	addi	a3,a4,1
    80003c9c:	00700513          	li	a0,7
    80003ca0:	00068713          	mv	a4,a3
    80003ca4:	00ee3023          	sd	a4,0(t3)
    80003ca8:	00008067          	ret
    80003cac:	0115ac23          	sw	a7,24(a1)
    80003cb0:	00100513          	li	a0,1
    80003cb4:	00ee3023          	sd	a4,0(t3)
    80003cb8:	00008067          	ret
    80003cbc:	0045af03          	lw	t5,4(a1)
    80003cc0:	00100513          	li	a0,1
    80003cc4:	001f081b          	addiw	a6,t5,1
    80003cc8:	0105a223          	sw	a6,4(a1)
    80003ccc:	f15ff06f          	j	80003be0 <core_state_transition+0x134>
    80003cd0:	0145af83          	lw	t6,20(a1)
    80003cd4:	00100513          	li	a0,1
    80003cd8:	001f861b          	addiw	a2,t6,1
    80003cdc:	00c5aa23          	sw	a2,20(a1)
    80003ce0:	f01ff06f          	j	80003be0 <core_state_transition+0x134>
    80003ce4:	0075a023          	sw	t2,0(a1)
    80003ce8:	00134283          	lbu	t0,1(t1)
    80003cec:	0c028263          	beqz	t0,80003db0 <core_state_transition+0x304>
    80003cf0:	12a28e63          	beq	t0,a0,80003e2c <core_state_transition+0x380>
    80003cf4:	00068f93          	mv	t6,a3
    80003cf8:	e61ff06f          	j	80003b58 <core_state_transition+0xac>
    80003cfc:	0075a023          	sw	t2,0(a1)
    80003d00:	00134503          	lbu	a0,1(t1)
    80003d04:	12050063          	beqz	a0,80003e24 <core_state_transition+0x378>
    80003d08:	02c00813          	li	a6,44
    80003d0c:	13050863          	beq	a0,a6,80003e3c <core_state_transition+0x390>
    80003d10:	0085a683          	lw	a3,8(a1)
    80003d14:	fd05071b          	addiw	a4,a0,-48
    80003d18:	0ff77793          	zext.b	a5,a4
    80003d1c:	00900613          	li	a2,9
    80003d20:	0016829b          	addiw	t0,a3,1
    80003d24:	00230713          	addi	a4,t1,2
    80003d28:	00f67c63          	bgeu	a2,a5,80003d40 <core_state_transition+0x294>
    80003d2c:	02e00893          	li	a7,46
    80003d30:	03150863          	beq	a0,a7,80003d60 <core_state_transition+0x2b4>
    80003d34:	0055a423          	sw	t0,8(a1)
    80003d38:	00100513          	li	a0,1
    80003d3c:	ea5ff06f          	j	80003be0 <core_state_transition+0x134>
    80003d40:	0055a423          	sw	t0,8(a1)
    80003d44:	00234783          	lbu	a5,2(t1)
    80003d48:	04078063          	beqz	a5,80003d88 <core_state_transition+0x2dc>
    80003d4c:	db0798e3          	bne	a5,a6,80003afc <core_state_transition+0x50>
    80003d50:	00330693          	addi	a3,t1,3
    80003d54:	00400513          	li	a0,4
    80003d58:	00068713          	mv	a4,a3
    80003d5c:	f49ff06f          	j	80003ca4 <core_state_transition+0x1f8>
    80003d60:	0055a423          	sw	t0,8(a1)
    80003d64:	00234283          	lbu	t0,2(t1)
    80003d68:	04028463          	beqz	t0,80003db0 <core_state_transition+0x304>
    80003d6c:	0f028063          	beq	t0,a6,80003e4c <core_state_transition+0x3a0>
    80003d70:	00070f93          	mv	t6,a4
    80003d74:	de5ff06f          	j	80003b58 <core_state_transition+0xac>
    80003d78:	00000513          	li	a0,0
    80003d7c:	00068713          	mv	a4,a3
    80003d80:	f25ff06f          	j	80003ca4 <core_state_transition+0x1f8>
    80003d84:	000f8713          	mv	a4,t6
    80003d88:	00400513          	li	a0,4
    80003d8c:	e55ff06f          	j	80003be0 <core_state_transition+0x134>
    80003d90:	00230693          	addi	a3,t1,2
    80003d94:	00400513          	li	a0,4
    80003d98:	00068713          	mv	a4,a3
    80003d9c:	f09ff06f          	j	80003ca4 <core_state_transition+0x1f8>
    80003da0:	00700513          	li	a0,7
    80003da4:	e3dff06f          	j	80003be0 <core_state_transition+0x134>
    80003da8:	00600513          	li	a0,6
    80003dac:	e35ff06f          	j	80003be0 <core_state_transition+0x134>
    80003db0:	00500513          	li	a0,5
    80003db4:	e2dff06f          	j	80003be0 <core_state_transition+0x134>
    80003db8:	002f8693          	addi	a3,t6,2
    80003dbc:	00300513          	li	a0,3
    80003dc0:	00068713          	mv	a4,a3
    80003dc4:	ee1ff06f          	j	80003ca4 <core_state_transition+0x1f8>
    80003dc8:	003f8693          	addi	a3,t6,3
    80003dcc:	00600513          	li	a0,6
    80003dd0:	00068713          	mv	a4,a3
    80003dd4:	ed1ff06f          	j	80003ca4 <core_state_transition+0x1f8>
    80003dd8:	004f8693          	addi	a3,t6,4
    80003ddc:	00700513          	li	a0,7
    80003de0:	00068713          	mv	a4,a3
    80003de4:	ec1ff06f          	j	80003ca4 <core_state_transition+0x1f8>
    80003de8:	000f8713          	mv	a4,t6
    80003dec:	00500513          	li	a0,5
    80003df0:	df1ff06f          	j	80003be0 <core_state_transition+0x134>
    80003df4:	00270693          	addi	a3,a4,2
    80003df8:	00400513          	li	a0,4
    80003dfc:	00068713          	mv	a4,a3
    80003e00:	ea5ff06f          	j	80003ca4 <core_state_transition+0x1f8>
    80003e04:	00270693          	addi	a3,a4,2
    80003e08:	00500513          	li	a0,5
    80003e0c:	00068713          	mv	a4,a3
    80003e10:	e95ff06f          	j	80003ca4 <core_state_transition+0x1f8>
    80003e14:	002f8693          	addi	a3,t6,2
    80003e18:	00500513          	li	a0,5
    80003e1c:	00068713          	mv	a4,a3
    80003e20:	e85ff06f          	j	80003ca4 <core_state_transition+0x1f8>
    80003e24:	00200513          	li	a0,2
    80003e28:	db9ff06f          	j	80003be0 <core_state_transition+0x134>
    80003e2c:	00230693          	addi	a3,t1,2
    80003e30:	00500513          	li	a0,5
    80003e34:	00068713          	mv	a4,a3
    80003e38:	e6dff06f          	j	80003ca4 <core_state_transition+0x1f8>
    80003e3c:	00168693          	addi	a3,a3,1
    80003e40:	00200513          	li	a0,2
    80003e44:	00068713          	mv	a4,a3
    80003e48:	e5dff06f          	j	80003ca4 <core_state_transition+0x1f8>
    80003e4c:	00330693          	addi	a3,t1,3
    80003e50:	00500513          	li	a0,5
    80003e54:	00068713          	mv	a4,a3
    80003e58:	e4dff06f          	j	80003ca4 <core_state_transition+0x1f8>

0000000080003e5c <core_bench_state>:
    80003e5c:	f6010113          	addi	sp,sp,-160
    80003e60:	08813823          	sd	s0,144(sp)
    80003e64:	08913423          	sd	s1,136(sp)
    80003e68:	09213023          	sd	s2,128(sp)
    80003e6c:	07313c23          	sd	s3,120(sp)
    80003e70:	07413823          	sd	s4,112(sp)
    80003e74:	07513423          	sd	s5,104(sp)
    80003e78:	07613023          	sd	s6,96(sp)
    80003e7c:	08113c23          	sd	ra,152(sp)
    80003e80:	05713c23          	sd	s7,88(sp)
    80003e84:	0005cb83          	lbu	s7,0(a1)
    80003e88:	00b13423          	sd	a1,8(sp)
    80003e8c:	02013823          	sd	zero,48(sp)
    80003e90:	00013823          	sd	zero,16(sp)
    80003e94:	02013c23          	sd	zero,56(sp)
    80003e98:	00013c23          	sd	zero,24(sp)
    80003e9c:	04013023          	sd	zero,64(sp)
    80003ea0:	02013023          	sd	zero,32(sp)
    80003ea4:	04013423          	sd	zero,72(sp)
    80003ea8:	02013423          	sd	zero,40(sp)
    80003eac:	00058913          	mv	s2,a1
    80003eb0:	00050a93          	mv	s5,a0
    80003eb4:	00060b13          	mv	s6,a2
    80003eb8:	00068993          	mv	s3,a3
    80003ebc:	00070a13          	mv	s4,a4
    80003ec0:	00078413          	mv	s0,a5
    80003ec4:	03010493          	addi	s1,sp,48
    80003ec8:	020b8c63          	beqz	s7,80003f00 <core_bench_state+0xa4>
    80003ecc:	00048593          	mv	a1,s1
    80003ed0:	00810513          	addi	a0,sp,8
    80003ed4:	bd9ff0ef          	jal	ra,80003aac <core_state_transition>
    80003ed8:	02051713          	slli	a4,a0,0x20
    80003edc:	01e75793          	srli	a5,a4,0x1e
    80003ee0:	05078293          	addi	t0,a5,80
    80003ee4:	00228333          	add	t1,t0,sp
    80003ee8:	00813683          	ld	a3,8(sp)
    80003eec:	fc032383          	lw	t2,-64(t1)
    80003ef0:	0006c503          	lbu	a0,0(a3)
    80003ef4:	0013859b          	addiw	a1,t2,1
    80003ef8:	fcb32023          	sw	a1,-64(t1)
    80003efc:	fc0518e3          	bnez	a0,80003ecc <core_bench_state+0x70>
    80003f00:	020a9093          	slli	ra,s5,0x20
    80003f04:	0200d613          	srli	a2,ra,0x20
    80003f08:	01213423          	sd	s2,8(sp)
    80003f0c:	00c90ab3          	add	s5,s2,a2
    80003f10:	3f597ce3          	bgeu	s2,s5,80004b08 <core_bench_state+0xcac>
    80003f14:	00100813          	li	a6,1
    80003f18:	000a089b          	sext.w	a7,s4
    80003f1c:	3d0a14e3          	bne	s4,a6,80004ae4 <core_bench_state+0xc88>
    80003f20:	00094b83          	lbu	s7,0(s2)
    80003f24:	fff94713          	not	a4,s2
    80003f28:	00ea87b3          	add	a5,s5,a4
    80003f2c:	02c00293          	li	t0,44
    80003f30:	0077f313          	andi	t1,a5,7
    80003f34:	005b8663          	beq	s7,t0,80003f40 <core_bench_state+0xe4>
    80003f38:	016bc3b3          	xor	t2,s7,s6
    80003f3c:	00790023          	sb	t2,0(s2)
    80003f40:	00190793          	addi	a5,s2,1
    80003f44:	1557fa63          	bgeu	a5,s5,80004098 <core_bench_state+0x23c>
    80003f48:	0c030263          	beqz	t1,8000400c <core_bench_state+0x1b0>
    80003f4c:	00100693          	li	a3,1
    80003f50:	0ad30263          	beq	t1,a3,80003ff4 <core_bench_state+0x198>
    80003f54:	00200513          	li	a0,2
    80003f58:	08a30463          	beq	t1,a0,80003fe0 <core_bench_state+0x184>
    80003f5c:	00300593          	li	a1,3
    80003f60:	06b30663          	beq	t1,a1,80003fcc <core_bench_state+0x170>
    80003f64:	00400093          	li	ra,4
    80003f68:	04130863          	beq	t1,ra,80003fb8 <core_bench_state+0x15c>
    80003f6c:	00500613          	li	a2,5
    80003f70:	02c30a63          	beq	t1,a2,80003fa4 <core_bench_state+0x148>
    80003f74:	00600813          	li	a6,6
    80003f78:	01030c63          	beq	t1,a6,80003f90 <core_bench_state+0x134>
    80003f7c:	0007ce03          	lbu	t3,0(a5)
    80003f80:	005e0663          	beq	t3,t0,80003f8c <core_bench_state+0x130>
    80003f84:	016e4eb3          	xor	t4,t3,s6
    80003f88:	01d78023          	sb	t4,0(a5)
    80003f8c:	00178793          	addi	a5,a5,1
    80003f90:	0007cf03          	lbu	t5,0(a5)
    80003f94:	005f0663          	beq	t5,t0,80003fa0 <core_bench_state+0x144>
    80003f98:	016f4fb3          	xor	t6,t5,s6
    80003f9c:	01f78023          	sb	t6,0(a5)
    80003fa0:	00178793          	addi	a5,a5,1
    80003fa4:	0007cb83          	lbu	s7,0(a5)
    80003fa8:	005b8663          	beq	s7,t0,80003fb4 <core_bench_state+0x158>
    80003fac:	016bc733          	xor	a4,s7,s6
    80003fb0:	00e78023          	sb	a4,0(a5)
    80003fb4:	00178793          	addi	a5,a5,1
    80003fb8:	0007c303          	lbu	t1,0(a5)
    80003fbc:	00530663          	beq	t1,t0,80003fc8 <core_bench_state+0x16c>
    80003fc0:	016343b3          	xor	t2,t1,s6
    80003fc4:	00778023          	sb	t2,0(a5)
    80003fc8:	00178793          	addi	a5,a5,1
    80003fcc:	0007c683          	lbu	a3,0(a5)
    80003fd0:	00568663          	beq	a3,t0,80003fdc <core_bench_state+0x180>
    80003fd4:	0166c533          	xor	a0,a3,s6
    80003fd8:	00a78023          	sb	a0,0(a5)
    80003fdc:	00178793          	addi	a5,a5,1
    80003fe0:	0007c583          	lbu	a1,0(a5)
    80003fe4:	00558663          	beq	a1,t0,80003ff0 <core_bench_state+0x194>
    80003fe8:	0165c0b3          	xor	ra,a1,s6
    80003fec:	00178023          	sb	ra,0(a5)
    80003ff0:	00178793          	addi	a5,a5,1
    80003ff4:	0007c603          	lbu	a2,0(a5)
    80003ff8:	00560663          	beq	a2,t0,80004004 <core_bench_state+0x1a8>
    80003ffc:	01664833          	xor	a6,a2,s6
    80004000:	01078023          	sb	a6,0(a5)
    80004004:	00178793          	addi	a5,a5,1
    80004008:	0957f863          	bgeu	a5,s5,80004098 <core_bench_state+0x23c>
    8000400c:	0007ce03          	lbu	t3,0(a5)
    80004010:	005e0663          	beq	t3,t0,8000401c <core_bench_state+0x1c0>
    80004014:	016e4eb3          	xor	t4,t3,s6
    80004018:	01d78023          	sb	t4,0(a5)
    8000401c:	0017cf03          	lbu	t5,1(a5)
    80004020:	00178f93          	addi	t6,a5,1
    80004024:	005f0663          	beq	t5,t0,80004030 <core_bench_state+0x1d4>
    80004028:	016f4bb3          	xor	s7,t5,s6
    8000402c:	017780a3          	sb	s7,1(a5)
    80004030:	001fc783          	lbu	a5,1(t6)
    80004034:	00578663          	beq	a5,t0,80004040 <core_bench_state+0x1e4>
    80004038:	0167c733          	xor	a4,a5,s6
    8000403c:	00ef80a3          	sb	a4,1(t6)
    80004040:	002fc303          	lbu	t1,2(t6)
    80004044:	00530663          	beq	t1,t0,80004050 <core_bench_state+0x1f4>
    80004048:	016343b3          	xor	t2,t1,s6
    8000404c:	007f8123          	sb	t2,2(t6)
    80004050:	003fc683          	lbu	a3,3(t6)
    80004054:	00568663          	beq	a3,t0,80004060 <core_bench_state+0x204>
    80004058:	0166c533          	xor	a0,a3,s6
    8000405c:	00af81a3          	sb	a0,3(t6)
    80004060:	004fc583          	lbu	a1,4(t6)
    80004064:	00558663          	beq	a1,t0,80004070 <core_bench_state+0x214>
    80004068:	0165c0b3          	xor	ra,a1,s6
    8000406c:	001f8223          	sb	ra,4(t6)
    80004070:	005fc603          	lbu	a2,5(t6)
    80004074:	00560663          	beq	a2,t0,80004080 <core_bench_state+0x224>
    80004078:	01664833          	xor	a6,a2,s6
    8000407c:	010f82a3          	sb	a6,5(t6)
    80004080:	006fce03          	lbu	t3,6(t6)
    80004084:	005e0663          	beq	t3,t0,80004090 <core_bench_state+0x234>
    80004088:	016e4eb3          	xor	t4,t3,s6
    8000408c:	01df8323          	sb	t4,6(t6)
    80004090:	007f8793          	addi	a5,t6,7
    80004094:	f757ece3          	bltu	a5,s5,8000400c <core_bench_state+0x1b0>
    80004098:	00094b03          	lbu	s6,0(s2)
    8000409c:	260b0ae3          	beqz	s6,80004b10 <core_bench_state+0xcb4>
    800040a0:	00048593          	mv	a1,s1
    800040a4:	00810513          	addi	a0,sp,8
    800040a8:	a05ff0ef          	jal	ra,80003aac <core_state_transition>
    800040ac:	02051893          	slli	a7,a0,0x20
    800040b0:	01e8d293          	srli	t0,a7,0x1e
    800040b4:	05028f13          	addi	t5,t0,80
    800040b8:	002f0fb3          	add	t6,t5,sp
    800040bc:	00813703          	ld	a4,8(sp)
    800040c0:	fc0fab83          	lw	s7,-64(t6)
    800040c4:	00074303          	lbu	t1,0(a4)
    800040c8:	001b839b          	addiw	t2,s7,1
    800040cc:	fc7fa023          	sw	t2,-64(t6)
    800040d0:	fc0318e3          	bnez	t1,800040a0 <core_bench_state+0x244>
    800040d4:	01213423          	sd	s2,8(sp)
    800040d8:	000a089b          	sext.w	a7,s4
    800040dc:	19597463          	bgeu	s2,s5,80004264 <core_bench_state+0x408>
    800040e0:	00100513          	li	a0,1
    800040e4:	02c00693          	li	a3,44
    800040e8:	1ea890e3          	bne	a7,a0,80004ac8 <core_bench_state+0xc6c>
    800040ec:	00094a03          	lbu	s4,0(s2)
    800040f0:	fff94593          	not	a1,s2
    800040f4:	00ba80b3          	add	ra,s5,a1
    800040f8:	02c00613          	li	a2,44
    800040fc:	0070f813          	andi	a6,ra,7
    80004100:	00ca0663          	beq	s4,a2,8000410c <core_bench_state+0x2b0>
    80004104:	013a4e33          	xor	t3,s4,s3
    80004108:	01c90023          	sb	t3,0(s2)
    8000410c:	00190913          	addi	s2,s2,1
    80004110:	15597a63          	bgeu	s2,s5,80004264 <core_bench_state+0x408>
    80004114:	0c080263          	beqz	a6,800041d8 <core_bench_state+0x37c>
    80004118:	00100e93          	li	t4,1
    8000411c:	0bd80263          	beq	a6,t4,800041c0 <core_bench_state+0x364>
    80004120:	00200793          	li	a5,2
    80004124:	08f80463          	beq	a6,a5,800041ac <core_bench_state+0x350>
    80004128:	00300b13          	li	s6,3
    8000412c:	07680663          	beq	a6,s6,80004198 <core_bench_state+0x33c>
    80004130:	00400893          	li	a7,4
    80004134:	05180863          	beq	a6,a7,80004184 <core_bench_state+0x328>
    80004138:	00500293          	li	t0,5
    8000413c:	02580a63          	beq	a6,t0,80004170 <core_bench_state+0x314>
    80004140:	00600f13          	li	t5,6
    80004144:	01e80c63          	beq	a6,t5,8000415c <core_bench_state+0x300>
    80004148:	00094f83          	lbu	t6,0(s2)
    8000414c:	00cf8663          	beq	t6,a2,80004158 <core_bench_state+0x2fc>
    80004150:	013fcbb3          	xor	s7,t6,s3
    80004154:	01790023          	sb	s7,0(s2)
    80004158:	00190913          	addi	s2,s2,1
    8000415c:	00094703          	lbu	a4,0(s2)
    80004160:	00c70663          	beq	a4,a2,8000416c <core_bench_state+0x310>
    80004164:	01374333          	xor	t1,a4,s3
    80004168:	00690023          	sb	t1,0(s2)
    8000416c:	00190913          	addi	s2,s2,1
    80004170:	00094383          	lbu	t2,0(s2)
    80004174:	00c38663          	beq	t2,a2,80004180 <core_bench_state+0x324>
    80004178:	0133c533          	xor	a0,t2,s3
    8000417c:	00a90023          	sb	a0,0(s2)
    80004180:	00190913          	addi	s2,s2,1
    80004184:	00094683          	lbu	a3,0(s2)
    80004188:	00c68663          	beq	a3,a2,80004194 <core_bench_state+0x338>
    8000418c:	0136ca33          	xor	s4,a3,s3
    80004190:	01490023          	sb	s4,0(s2)
    80004194:	00190913          	addi	s2,s2,1
    80004198:	00094583          	lbu	a1,0(s2)
    8000419c:	00c58663          	beq	a1,a2,800041a8 <core_bench_state+0x34c>
    800041a0:	0135c0b3          	xor	ra,a1,s3
    800041a4:	00190023          	sb	ra,0(s2)
    800041a8:	00190913          	addi	s2,s2,1
    800041ac:	00094803          	lbu	a6,0(s2)
    800041b0:	00c80663          	beq	a6,a2,800041bc <core_bench_state+0x360>
    800041b4:	01384e33          	xor	t3,a6,s3
    800041b8:	01c90023          	sb	t3,0(s2)
    800041bc:	00190913          	addi	s2,s2,1
    800041c0:	00094e83          	lbu	t4,0(s2)
    800041c4:	00ce8663          	beq	t4,a2,800041d0 <core_bench_state+0x374>
    800041c8:	013ec7b3          	xor	a5,t4,s3
    800041cc:	00f90023          	sb	a5,0(s2)
    800041d0:	00190913          	addi	s2,s2,1
    800041d4:	09597863          	bgeu	s2,s5,80004264 <core_bench_state+0x408>
    800041d8:	00094b03          	lbu	s6,0(s2)
    800041dc:	00cb0663          	beq	s6,a2,800041e8 <core_bench_state+0x38c>
    800041e0:	013b48b3          	xor	a7,s6,s3
    800041e4:	01190023          	sb	a7,0(s2)
    800041e8:	00194283          	lbu	t0,1(s2)
    800041ec:	00190f13          	addi	t5,s2,1
    800041f0:	00c28663          	beq	t0,a2,800041fc <core_bench_state+0x3a0>
    800041f4:	0132cfb3          	xor	t6,t0,s3
    800041f8:	01f900a3          	sb	t6,1(s2)
    800041fc:	001f4903          	lbu	s2,1(t5)
    80004200:	00c90663          	beq	s2,a2,8000420c <core_bench_state+0x3b0>
    80004204:	01394bb3          	xor	s7,s2,s3
    80004208:	017f00a3          	sb	s7,1(t5)
    8000420c:	002f4703          	lbu	a4,2(t5)
    80004210:	00c70663          	beq	a4,a2,8000421c <core_bench_state+0x3c0>
    80004214:	01374333          	xor	t1,a4,s3
    80004218:	006f0123          	sb	t1,2(t5)
    8000421c:	003f4383          	lbu	t2,3(t5)
    80004220:	00c38663          	beq	t2,a2,8000422c <core_bench_state+0x3d0>
    80004224:	0133c533          	xor	a0,t2,s3
    80004228:	00af01a3          	sb	a0,3(t5)
    8000422c:	004f4683          	lbu	a3,4(t5)
    80004230:	00c68663          	beq	a3,a2,8000423c <core_bench_state+0x3e0>
    80004234:	0136ca33          	xor	s4,a3,s3
    80004238:	014f0223          	sb	s4,4(t5)
    8000423c:	005f4583          	lbu	a1,5(t5)
    80004240:	00c58663          	beq	a1,a2,8000424c <core_bench_state+0x3f0>
    80004244:	0135c0b3          	xor	ra,a1,s3
    80004248:	001f02a3          	sb	ra,5(t5)
    8000424c:	006f4803          	lbu	a6,6(t5)
    80004250:	00c80663          	beq	a6,a2,8000425c <core_bench_state+0x400>
    80004254:	01384e33          	xor	t3,a6,s3
    80004258:	01cf0323          	sb	t3,6(t5)
    8000425c:	007f0913          	addi	s2,t5,7
    80004260:	f7596ce3          	bltu	s2,s5,800041d8 <core_bench_state+0x37c>
    80004264:	ffffa9b7          	lui	s3,0xffffa
    80004268:	01010693          	addi	a3,sp,16
    8000426c:	00048613          	mv	a2,s1
    80004270:	00198a93          	addi	s5,s3,1 # ffffffffffffa001 <_pmem_end+0xffffffff77ffa001>
    80004274:	0006ab03          	lw	s6,0(a3)
    80004278:	00145393          	srli	t2,s0,0x1
    8000427c:	0ffb7293          	zext.b	t0,s6
    80004280:	0082c433          	xor	s0,t0,s0
    80004284:	030b1f13          	slli	t5,s6,0x30
    80004288:	00147893          	andi	a7,s0,1
    8000428c:	030f5f93          	srli	t6,t5,0x30
    80004290:	0012db93          	srli	s7,t0,0x1
    80004294:	00088863          	beqz	a7,800042a4 <core_bench_state+0x448>
    80004298:	0153c7b3          	xor	a5,t2,s5
    8000429c:	03079713          	slli	a4,a5,0x30
    800042a0:	03075393          	srli	t2,a4,0x30
    800042a4:	007bc333          	xor	t1,s7,t2
    800042a8:	00137513          	andi	a0,t1,1
    800042ac:	0022da13          	srli	s4,t0,0x2
    800042b0:	0013d813          	srli	a6,t2,0x1
    800042b4:	00050863          	beqz	a0,800042c4 <core_bench_state+0x468>
    800042b8:	015845b3          	xor	a1,a6,s5
    800042bc:	03059093          	slli	ra,a1,0x30
    800042c0:	0300d813          	srli	a6,ra,0x30
    800042c4:	010a4e33          	xor	t3,s4,a6
    800042c8:	001e7e93          	andi	t4,t3,1
    800042cc:	0032d913          	srli	s2,t0,0x3
    800042d0:	00185f13          	srli	t5,a6,0x1
    800042d4:	000e8863          	beqz	t4,800042e4 <core_bench_state+0x488>
    800042d8:	015f49b3          	xor	s3,t5,s5
    800042dc:	03099413          	slli	s0,s3,0x30
    800042e0:	03045f13          	srli	t5,s0,0x30
    800042e4:	01e948b3          	xor	a7,s2,t5
    800042e8:	0018fb93          	andi	s7,a7,1
    800042ec:	0042d713          	srli	a4,t0,0x4
    800042f0:	001f5513          	srli	a0,t5,0x1
    800042f4:	000b8863          	beqz	s7,80004304 <core_bench_state+0x4a8>
    800042f8:	015547b3          	xor	a5,a0,s5
    800042fc:	03079393          	slli	t2,a5,0x30
    80004300:	0303d513          	srli	a0,t2,0x30
    80004304:	00a74333          	xor	t1,a4,a0
    80004308:	00137a13          	andi	s4,t1,1
    8000430c:	0052d593          	srli	a1,t0,0x5
    80004310:	00155e13          	srli	t3,a0,0x1
    80004314:	000a0863          	beqz	s4,80004324 <core_bench_state+0x4c8>
    80004318:	015e40b3          	xor	ra,t3,s5
    8000431c:	03009813          	slli	a6,ra,0x30
    80004320:	03085e13          	srli	t3,a6,0x30
    80004324:	01c5ceb3          	xor	t4,a1,t3
    80004328:	001ef913          	andi	s2,t4,1
    8000432c:	0062d993          	srli	s3,t0,0x6
    80004330:	001e5b93          	srli	s7,t3,0x1
    80004334:	00090863          	beqz	s2,80004344 <core_bench_state+0x4e8>
    80004338:	015bc433          	xor	s0,s7,s5
    8000433c:	03041f13          	slli	t5,s0,0x30
    80004340:	030f5b93          	srli	s7,t5,0x30
    80004344:	0179c8b3          	xor	a7,s3,s7
    80004348:	0018f713          	andi	a4,a7,1
    8000434c:	0072d293          	srli	t0,t0,0x7
    80004350:	001bd513          	srli	a0,s7,0x1
    80004354:	00070863          	beqz	a4,80004364 <core_bench_state+0x508>
    80004358:	015547b3          	xor	a5,a0,s5
    8000435c:	03079393          	slli	t2,a5,0x30
    80004360:	0303d513          	srli	a0,t2,0x30
    80004364:	00157313          	andi	t1,a0,1
    80004368:	00155093          	srli	ra,a0,0x1
    8000436c:	00530863          	beq	t1,t0,8000437c <core_bench_state+0x520>
    80004370:	0150ca33          	xor	s4,ra,s5
    80004374:	030a1593          	slli	a1,s4,0x30
    80004378:	0305d093          	srli	ra,a1,0x30
    8000437c:	008fde13          	srli	t3,t6,0x8
    80004380:	001e4833          	xor	a6,t3,ra
    80004384:	00187e93          	andi	t4,a6,1
    80004388:	009fdf93          	srli	t6,t6,0x9
    8000438c:	0010d413          	srli	s0,ra,0x1
    80004390:	000e8863          	beqz	t4,800043a0 <core_bench_state+0x544>
    80004394:	01544933          	xor	s2,s0,s5
    80004398:	03091993          	slli	s3,s2,0x30
    8000439c:	0309d413          	srli	s0,s3,0x30
    800043a0:	008fcf33          	xor	t5,t6,s0
    800043a4:	001f7b93          	andi	s7,t5,1
    800043a8:	002e5893          	srli	a7,t3,0x2
    800043ac:	00145793          	srli	a5,s0,0x1
    800043b0:	000b8863          	beqz	s7,800043c0 <core_bench_state+0x564>
    800043b4:	0157c733          	xor	a4,a5,s5
    800043b8:	03071293          	slli	t0,a4,0x30
    800043bc:	0302d793          	srli	a5,t0,0x30
    800043c0:	00f8c3b3          	xor	t2,a7,a5
    800043c4:	0013f513          	andi	a0,t2,1
    800043c8:	003e5313          	srli	t1,t3,0x3
    800043cc:	0017d093          	srli	ra,a5,0x1
    800043d0:	00050863          	beqz	a0,800043e0 <core_bench_state+0x584>
    800043d4:	0150ca33          	xor	s4,ra,s5
    800043d8:	030a1593          	slli	a1,s4,0x30
    800043dc:	0305d093          	srli	ra,a1,0x30
    800043e0:	00134833          	xor	a6,t1,ra
    800043e4:	00187e93          	andi	t4,a6,1
    800043e8:	004e5f93          	srli	t6,t3,0x4
    800043ec:	0010d413          	srli	s0,ra,0x1
    800043f0:	000e8863          	beqz	t4,80004400 <core_bench_state+0x5a4>
    800043f4:	01544933          	xor	s2,s0,s5
    800043f8:	03091993          	slli	s3,s2,0x30
    800043fc:	0309d413          	srli	s0,s3,0x30
    80004400:	008fcf33          	xor	t5,t6,s0
    80004404:	001f7b93          	andi	s7,t5,1
    80004408:	005e5893          	srli	a7,t3,0x5
    8000440c:	00145793          	srli	a5,s0,0x1
    80004410:	000b8863          	beqz	s7,80004420 <core_bench_state+0x5c4>
    80004414:	0157c733          	xor	a4,a5,s5
    80004418:	03071293          	slli	t0,a4,0x30
    8000441c:	0302d793          	srli	a5,t0,0x30
    80004420:	00f8c3b3          	xor	t2,a7,a5
    80004424:	0013f513          	andi	a0,t2,1
    80004428:	006e5313          	srli	t1,t3,0x6
    8000442c:	0017d093          	srli	ra,a5,0x1
    80004430:	00050863          	beqz	a0,80004440 <core_bench_state+0x5e4>
    80004434:	0150ca33          	xor	s4,ra,s5
    80004438:	030a1593          	slli	a1,s4,0x30
    8000443c:	0305d093          	srli	ra,a1,0x30
    80004440:	00134833          	xor	a6,t1,ra
    80004444:	00187e93          	andi	t4,a6,1
    80004448:	007e5e13          	srli	t3,t3,0x7
    8000444c:	0010d993          	srli	s3,ra,0x1
    80004450:	000e8863          	beqz	t4,80004460 <core_bench_state+0x604>
    80004454:	0159cfb3          	xor	t6,s3,s5
    80004458:	030f9913          	slli	s2,t6,0x30
    8000445c:	03095993          	srli	s3,s2,0x30
    80004460:	013e4433          	xor	s0,t3,s3
    80004464:	00147f13          	andi	t5,s0,1
    80004468:	0019d713          	srli	a4,s3,0x1
    8000446c:	000f0863          	beqz	t5,8000447c <core_bench_state+0x620>
    80004470:	01574bb3          	xor	s7,a4,s5
    80004474:	030b9893          	slli	a7,s7,0x30
    80004478:	0308d713          	srli	a4,a7,0x30
    8000447c:	010b529b          	srliw	t0,s6,0x10
    80004480:	0ff2f393          	zext.b	t2,t0
    80004484:	00e3c7b3          	xor	a5,t2,a4
    80004488:	0017f513          	andi	a0,a5,1
    8000448c:	010b5b1b          	srliw	s6,s6,0x10
    80004490:	0013d313          	srli	t1,t2,0x1
    80004494:	00175093          	srli	ra,a4,0x1
    80004498:	00050863          	beqz	a0,800044a8 <core_bench_state+0x64c>
    8000449c:	0150ca33          	xor	s4,ra,s5
    800044a0:	030a1593          	slli	a1,s4,0x30
    800044a4:	0305d093          	srli	ra,a1,0x30
    800044a8:	00134833          	xor	a6,t1,ra
    800044ac:	00187e93          	andi	t4,a6,1
    800044b0:	0023de13          	srli	t3,t2,0x2
    800044b4:	0010d993          	srli	s3,ra,0x1
    800044b8:	000e8863          	beqz	t4,800044c8 <core_bench_state+0x66c>
    800044bc:	0159cfb3          	xor	t6,s3,s5
    800044c0:	030f9913          	slli	s2,t6,0x30
    800044c4:	03095993          	srli	s3,s2,0x30
    800044c8:	013e4433          	xor	s0,t3,s3
    800044cc:	00147f13          	andi	t5,s0,1
    800044d0:	0033db93          	srli	s7,t2,0x3
    800044d4:	0019d293          	srli	t0,s3,0x1
    800044d8:	000f0863          	beqz	t5,800044e8 <core_bench_state+0x68c>
    800044dc:	0152c8b3          	xor	a7,t0,s5
    800044e0:	03089713          	slli	a4,a7,0x30
    800044e4:	03075293          	srli	t0,a4,0x30
    800044e8:	005bc7b3          	xor	a5,s7,t0
    800044ec:	0017f513          	andi	a0,a5,1
    800044f0:	0043d313          	srli	t1,t2,0x4
    800044f4:	0012d093          	srli	ra,t0,0x1
    800044f8:	00050863          	beqz	a0,80004508 <core_bench_state+0x6ac>
    800044fc:	0150ca33          	xor	s4,ra,s5
    80004500:	030a1593          	slli	a1,s4,0x30
    80004504:	0305d093          	srli	ra,a1,0x30
    80004508:	00134833          	xor	a6,t1,ra
    8000450c:	00187e93          	andi	t4,a6,1
    80004510:	0053de13          	srli	t3,t2,0x5
    80004514:	0010d993          	srli	s3,ra,0x1
    80004518:	000e8863          	beqz	t4,80004528 <core_bench_state+0x6cc>
    8000451c:	0159cfb3          	xor	t6,s3,s5
    80004520:	030f9913          	slli	s2,t6,0x30
    80004524:	03095993          	srli	s3,s2,0x30
    80004528:	013e4433          	xor	s0,t3,s3
    8000452c:	00147f13          	andi	t5,s0,1
    80004530:	0063db93          	srli	s7,t2,0x6
    80004534:	0019d293          	srli	t0,s3,0x1
    80004538:	000f0863          	beqz	t5,80004548 <core_bench_state+0x6ec>
    8000453c:	0152c8b3          	xor	a7,t0,s5
    80004540:	03089713          	slli	a4,a7,0x30
    80004544:	03075293          	srli	t0,a4,0x30
    80004548:	005bc7b3          	xor	a5,s7,t0
    8000454c:	0017f313          	andi	t1,a5,1
    80004550:	0073d393          	srli	t2,t2,0x7
    80004554:	0012d593          	srli	a1,t0,0x1
    80004558:	00030863          	beqz	t1,80004568 <core_bench_state+0x70c>
    8000455c:	0155c533          	xor	a0,a1,s5
    80004560:	03051a13          	slli	s4,a0,0x30
    80004564:	030a5593          	srli	a1,s4,0x30
    80004568:	0015f093          	andi	ra,a1,1
    8000456c:	0015de13          	srli	t3,a1,0x1
    80004570:	00708863          	beq	ra,t2,80004580 <core_bench_state+0x724>
    80004574:	015e4833          	xor	a6,t3,s5
    80004578:	03081e93          	slli	t4,a6,0x30
    8000457c:	030ede13          	srli	t3,t4,0x30
    80004580:	008b5f93          	srli	t6,s6,0x8
    80004584:	01cfc933          	xor	s2,t6,t3
    80004588:	00197993          	andi	s3,s2,1
    8000458c:	009b5b13          	srli	s6,s6,0x9
    80004590:	001e5b93          	srli	s7,t3,0x1
    80004594:	00098863          	beqz	s3,800045a4 <core_bench_state+0x748>
    80004598:	015bc433          	xor	s0,s7,s5
    8000459c:	03041f13          	slli	t5,s0,0x30
    800045a0:	030f5b93          	srli	s7,t5,0x30
    800045a4:	017b48b3          	xor	a7,s6,s7
    800045a8:	0018f713          	andi	a4,a7,1
    800045ac:	002fd293          	srli	t0,t6,0x2
    800045b0:	001bd393          	srli	t2,s7,0x1
    800045b4:	00070863          	beqz	a4,800045c4 <core_bench_state+0x768>
    800045b8:	0153c7b3          	xor	a5,t2,s5
    800045bc:	03079313          	slli	t1,a5,0x30
    800045c0:	03035393          	srli	t2,t1,0x30
    800045c4:	0072c533          	xor	a0,t0,t2
    800045c8:	00157a13          	andi	s4,a0,1
    800045cc:	003fd593          	srli	a1,t6,0x3
    800045d0:	0013de93          	srli	t4,t2,0x1
    800045d4:	000a0863          	beqz	s4,800045e4 <core_bench_state+0x788>
    800045d8:	015ec0b3          	xor	ra,t4,s5
    800045dc:	03009813          	slli	a6,ra,0x30
    800045e0:	03085e93          	srli	t4,a6,0x30
    800045e4:	01d5ce33          	xor	t3,a1,t4
    800045e8:	001e7913          	andi	s2,t3,1
    800045ec:	004fd993          	srli	s3,t6,0x4
    800045f0:	001edf13          	srli	t5,t4,0x1
    800045f4:	00090863          	beqz	s2,80004604 <core_bench_state+0x7a8>
    800045f8:	015f4b33          	xor	s6,t5,s5
    800045fc:	030b1413          	slli	s0,s6,0x30
    80004600:	03045f13          	srli	t5,s0,0x30
    80004604:	01e9cbb3          	xor	s7,s3,t5
    80004608:	001bf893          	andi	a7,s7,1
    8000460c:	005fd713          	srli	a4,t6,0x5
    80004610:	001f5313          	srli	t1,t5,0x1
    80004614:	00088863          	beqz	a7,80004624 <core_bench_state+0x7c8>
    80004618:	015342b3          	xor	t0,t1,s5
    8000461c:	03029793          	slli	a5,t0,0x30
    80004620:	0307d313          	srli	t1,a5,0x30
    80004624:	006743b3          	xor	t2,a4,t1
    80004628:	0013f513          	andi	a0,t2,1
    8000462c:	006fda13          	srli	s4,t6,0x6
    80004630:	00135813          	srli	a6,t1,0x1
    80004634:	00050863          	beqz	a0,80004644 <core_bench_state+0x7e8>
    80004638:	015845b3          	xor	a1,a6,s5
    8000463c:	03059093          	slli	ra,a1,0x30
    80004640:	0300d813          	srli	a6,ra,0x30
    80004644:	010a4eb3          	xor	t4,s4,a6
    80004648:	001efe13          	andi	t3,t4,1
    8000464c:	007fdf93          	srli	t6,t6,0x7
    80004650:	00185b13          	srli	s6,a6,0x1
    80004654:	000e0863          	beqz	t3,80004664 <core_bench_state+0x808>
    80004658:	015b4933          	xor	s2,s6,s5
    8000465c:	03091993          	slli	s3,s2,0x30
    80004660:	0309db13          	srli	s6,s3,0x30
    80004664:	016fc433          	xor	s0,t6,s6
    80004668:	00147f13          	andi	t5,s0,1
    8000466c:	001b5713          	srli	a4,s6,0x1
    80004670:	000f0863          	beqz	t5,80004680 <core_bench_state+0x824>
    80004674:	01574bb3          	xor	s7,a4,s5
    80004678:	030b9893          	slli	a7,s7,0x30
    8000467c:	0308d713          	srli	a4,a7,0x30
    80004680:	00062283          	lw	t0,0(a2)
    80004684:	00175e93          	srli	t4,a4,0x1
    80004688:	0ff2f313          	zext.b	t1,t0
    8000468c:	00e347b3          	xor	a5,t1,a4
    80004690:	03029513          	slli	a0,t0,0x30
    80004694:	0017f393          	andi	t2,a5,1
    80004698:	03055a13          	srli	s4,a0,0x30
    8000469c:	00135593          	srli	a1,t1,0x1
    800046a0:	00038863          	beqz	t2,800046b0 <core_bench_state+0x854>
    800046a4:	015ec0b3          	xor	ra,t4,s5
    800046a8:	03009813          	slli	a6,ra,0x30
    800046ac:	03085e93          	srli	t4,a6,0x30
    800046b0:	01d5ce33          	xor	t3,a1,t4
    800046b4:	001e7f93          	andi	t6,t3,1
    800046b8:	00235913          	srli	s2,t1,0x2
    800046bc:	001ed413          	srli	s0,t4,0x1
    800046c0:	000f8863          	beqz	t6,800046d0 <core_bench_state+0x874>
    800046c4:	015449b3          	xor	s3,s0,s5
    800046c8:	03099b13          	slli	s6,s3,0x30
    800046cc:	030b5413          	srli	s0,s6,0x30
    800046d0:	00894f33          	xor	t5,s2,s0
    800046d4:	001f7b93          	andi	s7,t5,1
    800046d8:	00335893          	srli	a7,t1,0x3
    800046dc:	00145393          	srli	t2,s0,0x1
    800046e0:	000b8863          	beqz	s7,800046f0 <core_bench_state+0x894>
    800046e4:	0153c733          	xor	a4,t2,s5
    800046e8:	03071793          	slli	a5,a4,0x30
    800046ec:	0307d393          	srli	t2,a5,0x30
    800046f0:	0078c533          	xor	a0,a7,t2
    800046f4:	00157593          	andi	a1,a0,1
    800046f8:	00435093          	srli	ra,t1,0x4
    800046fc:	0013de13          	srli	t3,t2,0x1
    80004700:	00058863          	beqz	a1,80004710 <core_bench_state+0x8b4>
    80004704:	015e4833          	xor	a6,t3,s5
    80004708:	03081e93          	slli	t4,a6,0x30
    8000470c:	030ede13          	srli	t3,t4,0x30
    80004710:	01c0cfb3          	xor	t6,ra,t3
    80004714:	001ff913          	andi	s2,t6,1
    80004718:	00535993          	srli	s3,t1,0x5
    8000471c:	001e5f13          	srli	t5,t3,0x1
    80004720:	00090863          	beqz	s2,80004730 <core_bench_state+0x8d4>
    80004724:	015f4b33          	xor	s6,t5,s5
    80004728:	030b1413          	slli	s0,s6,0x30
    8000472c:	03045f13          	srli	t5,s0,0x30
    80004730:	01e9cbb3          	xor	s7,s3,t5
    80004734:	001bf713          	andi	a4,s7,1
    80004738:	00635893          	srli	a7,t1,0x6
    8000473c:	001f5513          	srli	a0,t5,0x1
    80004740:	00070863          	beqz	a4,80004750 <core_bench_state+0x8f4>
    80004744:	015547b3          	xor	a5,a0,s5
    80004748:	03079393          	slli	t2,a5,0x30
    8000474c:	0303d513          	srli	a0,t2,0x30
    80004750:	00a8c5b3          	xor	a1,a7,a0
    80004754:	0015f093          	andi	ra,a1,1
    80004758:	00735313          	srli	t1,t1,0x7
    8000475c:	00155e13          	srli	t3,a0,0x1
    80004760:	00008863          	beqz	ra,80004770 <core_bench_state+0x914>
    80004764:	015e4833          	xor	a6,t3,s5
    80004768:	03081e93          	slli	t4,a6,0x30
    8000476c:	030ede13          	srli	t3,t4,0x30
    80004770:	001e7f93          	andi	t6,t3,1
    80004774:	001e5b13          	srli	s6,t3,0x1
    80004778:	006f8863          	beq	t6,t1,80004788 <core_bench_state+0x92c>
    8000477c:	015b4933          	xor	s2,s6,s5
    80004780:	03091993          	slli	s3,s2,0x30
    80004784:	0309db13          	srli	s6,s3,0x30
    80004788:	008a5f13          	srli	t5,s4,0x8
    8000478c:	016f4433          	xor	s0,t5,s6
    80004790:	00147b93          	andi	s7,s0,1
    80004794:	009a5a13          	srli	s4,s4,0x9
    80004798:	001b5793          	srli	a5,s6,0x1
    8000479c:	000b8863          	beqz	s7,800047ac <core_bench_state+0x950>
    800047a0:	0157c733          	xor	a4,a5,s5
    800047a4:	03071893          	slli	a7,a4,0x30
    800047a8:	0308d793          	srli	a5,a7,0x30
    800047ac:	00fa43b3          	xor	t2,s4,a5
    800047b0:	0013f593          	andi	a1,t2,1
    800047b4:	002f5513          	srli	a0,t5,0x2
    800047b8:	0017de93          	srli	t4,a5,0x1
    800047bc:	00058863          	beqz	a1,800047cc <core_bench_state+0x970>
    800047c0:	015ec0b3          	xor	ra,t4,s5
    800047c4:	03009313          	slli	t1,ra,0x30
    800047c8:	03035e93          	srli	t4,t1,0x30
    800047cc:	01d54833          	xor	a6,a0,t4
    800047d0:	00187e13          	andi	t3,a6,1
    800047d4:	003f5f93          	srli	t6,t5,0x3
    800047d8:	001edb13          	srli	s6,t4,0x1
    800047dc:	000e0863          	beqz	t3,800047ec <core_bench_state+0x990>
    800047e0:	015b4933          	xor	s2,s6,s5
    800047e4:	03091993          	slli	s3,s2,0x30
    800047e8:	0309db13          	srli	s6,s3,0x30
    800047ec:	016fc433          	xor	s0,t6,s6
    800047f0:	00147b93          	andi	s7,s0,1
    800047f4:	004f5a13          	srli	s4,t5,0x4
    800047f8:	001b5793          	srli	a5,s6,0x1
    800047fc:	000b8863          	beqz	s7,8000480c <core_bench_state+0x9b0>
    80004800:	0157c733          	xor	a4,a5,s5
    80004804:	03071893          	slli	a7,a4,0x30
    80004808:	0308d793          	srli	a5,a7,0x30
    8000480c:	00fa43b3          	xor	t2,s4,a5
    80004810:	0013f593          	andi	a1,t2,1
    80004814:	005f5513          	srli	a0,t5,0x5
    80004818:	0017de93          	srli	t4,a5,0x1
    8000481c:	00058863          	beqz	a1,8000482c <core_bench_state+0x9d0>
    80004820:	015ec0b3          	xor	ra,t4,s5
    80004824:	03009313          	slli	t1,ra,0x30
    80004828:	03035e93          	srli	t4,t1,0x30
    8000482c:	01d54833          	xor	a6,a0,t4
    80004830:	00187e13          	andi	t3,a6,1
    80004834:	006f5f93          	srli	t6,t5,0x6
    80004838:	001edb13          	srli	s6,t4,0x1
    8000483c:	000e0863          	beqz	t3,8000484c <core_bench_state+0x9f0>
    80004840:	015b4933          	xor	s2,s6,s5
    80004844:	03091993          	slli	s3,s2,0x30
    80004848:	0309db13          	srli	s6,s3,0x30
    8000484c:	016fc433          	xor	s0,t6,s6
    80004850:	00147b93          	andi	s7,s0,1
    80004854:	007f5f13          	srli	t5,t5,0x7
    80004858:	001b5893          	srli	a7,s6,0x1
    8000485c:	000b8863          	beqz	s7,8000486c <core_bench_state+0xa10>
    80004860:	0158ca33          	xor	s4,a7,s5
    80004864:	030a1713          	slli	a4,s4,0x30
    80004868:	03075893          	srli	a7,a4,0x30
    8000486c:	011f47b3          	xor	a5,t5,a7
    80004870:	0017f393          	andi	t2,a5,1
    80004874:	0018d093          	srli	ra,a7,0x1
    80004878:	00038863          	beqz	t2,80004888 <core_bench_state+0xa2c>
    8000487c:	0150c5b3          	xor	a1,ra,s5
    80004880:	03059513          	slli	a0,a1,0x30
    80004884:	03055093          	srli	ra,a0,0x30
    80004888:	0102d31b          	srliw	t1,t0,0x10
    8000488c:	0ff37e93          	zext.b	t4,t1
    80004890:	001ec833          	xor	a6,t4,ra
    80004894:	00187e13          	andi	t3,a6,1
    80004898:	0102d29b          	srliw	t0,t0,0x10
    8000489c:	001edf93          	srli	t6,t4,0x1
    800048a0:	0010db13          	srli	s6,ra,0x1
    800048a4:	000e0863          	beqz	t3,800048b4 <core_bench_state+0xa58>
    800048a8:	015b4933          	xor	s2,s6,s5
    800048ac:	03091993          	slli	s3,s2,0x30
    800048b0:	0309db13          	srli	s6,s3,0x30
    800048b4:	016fc433          	xor	s0,t6,s6
    800048b8:	00147b93          	andi	s7,s0,1
    800048bc:	002edf13          	srli	t5,t4,0x2
    800048c0:	001b5893          	srli	a7,s6,0x1
    800048c4:	000b8863          	beqz	s7,800048d4 <core_bench_state+0xa78>
    800048c8:	0158ca33          	xor	s4,a7,s5
    800048cc:	030a1713          	slli	a4,s4,0x30
    800048d0:	03075893          	srli	a7,a4,0x30
    800048d4:	011f47b3          	xor	a5,t5,a7
    800048d8:	0017f393          	andi	t2,a5,1
    800048dc:	003ed593          	srli	a1,t4,0x3
    800048e0:	0018d313          	srli	t1,a7,0x1
    800048e4:	00038863          	beqz	t2,800048f4 <core_bench_state+0xa98>
    800048e8:	01534533          	xor	a0,t1,s5
    800048ec:	03051093          	slli	ra,a0,0x30
    800048f0:	0300d313          	srli	t1,ra,0x30
    800048f4:	0065c833          	xor	a6,a1,t1
    800048f8:	00187e13          	andi	t3,a6,1
    800048fc:	004edf93          	srli	t6,t4,0x4
    80004900:	00135b13          	srli	s6,t1,0x1
    80004904:	000e0863          	beqz	t3,80004914 <core_bench_state+0xab8>
    80004908:	015b4933          	xor	s2,s6,s5
    8000490c:	03091993          	slli	s3,s2,0x30
    80004910:	0309db13          	srli	s6,s3,0x30
    80004914:	016fc433          	xor	s0,t6,s6
    80004918:	00147b93          	andi	s7,s0,1
    8000491c:	005edf13          	srli	t5,t4,0x5
    80004920:	001b5893          	srli	a7,s6,0x1
    80004924:	000b8863          	beqz	s7,80004934 <core_bench_state+0xad8>
    80004928:	0158ca33          	xor	s4,a7,s5
    8000492c:	030a1713          	slli	a4,s4,0x30
    80004930:	03075893          	srli	a7,a4,0x30
    80004934:	011f47b3          	xor	a5,t5,a7
    80004938:	0017f393          	andi	t2,a5,1
    8000493c:	006ed593          	srli	a1,t4,0x6
    80004940:	0018d313          	srli	t1,a7,0x1
    80004944:	00038863          	beqz	t2,80004954 <core_bench_state+0xaf8>
    80004948:	01534533          	xor	a0,t1,s5
    8000494c:	03051093          	slli	ra,a0,0x30
    80004950:	0300d313          	srli	t1,ra,0x30
    80004954:	0065c833          	xor	a6,a1,t1
    80004958:	00187e13          	andi	t3,a6,1
    8000495c:	007ede93          	srli	t4,t4,0x7
    80004960:	00135993          	srli	s3,t1,0x1
    80004964:	000e0863          	beqz	t3,80004974 <core_bench_state+0xb18>
    80004968:	0159cfb3          	xor	t6,s3,s5
    8000496c:	030f9913          	slli	s2,t6,0x30
    80004970:	03095993          	srli	s3,s2,0x30
    80004974:	0019fb13          	andi	s6,s3,1
    80004978:	0019df13          	srli	t5,s3,0x1
    8000497c:	01db0863          	beq	s6,t4,8000498c <core_bench_state+0xb30>
    80004980:	015f4433          	xor	s0,t5,s5
    80004984:	03041b93          	slli	s7,s0,0x30
    80004988:	030bdf13          	srli	t5,s7,0x30
    8000498c:	0082da13          	srli	s4,t0,0x8
    80004990:	01ea4733          	xor	a4,s4,t5
    80004994:	00177893          	andi	a7,a4,1
    80004998:	0092d293          	srli	t0,t0,0x9
    8000499c:	001f5093          	srli	ra,t5,0x1
    800049a0:	00088863          	beqz	a7,800049b0 <core_bench_state+0xb54>
    800049a4:	0150c7b3          	xor	a5,ra,s5
    800049a8:	03079393          	slli	t2,a5,0x30
    800049ac:	0303d093          	srli	ra,t2,0x30
    800049b0:	0012c5b3          	xor	a1,t0,ra
    800049b4:	0015f313          	andi	t1,a1,1
    800049b8:	002a5513          	srli	a0,s4,0x2
    800049bc:	0010de93          	srli	t4,ra,0x1
    800049c0:	00030863          	beqz	t1,800049d0 <core_bench_state+0xb74>
    800049c4:	015ec833          	xor	a6,t4,s5
    800049c8:	03081e13          	slli	t3,a6,0x30
    800049cc:	030e5e93          	srli	t4,t3,0x30
    800049d0:	01d54fb3          	xor	t6,a0,t4
    800049d4:	001ff913          	andi	s2,t6,1
    800049d8:	003a5993          	srli	s3,s4,0x3
    800049dc:	001edb93          	srli	s7,t4,0x1
    800049e0:	00090863          	beqz	s2,800049f0 <core_bench_state+0xb94>
    800049e4:	015bcb33          	xor	s6,s7,s5
    800049e8:	030b1413          	slli	s0,s6,0x30
    800049ec:	03045b93          	srli	s7,s0,0x30
    800049f0:	0179cf33          	xor	t5,s3,s7
    800049f4:	001f7713          	andi	a4,t5,1
    800049f8:	004a5893          	srli	a7,s4,0x4
    800049fc:	001bd393          	srli	t2,s7,0x1
    80004a00:	00070863          	beqz	a4,80004a10 <core_bench_state+0xbb4>
    80004a04:	0153c2b3          	xor	t0,t2,s5
    80004a08:	03029793          	slli	a5,t0,0x30
    80004a0c:	0307d393          	srli	t2,a5,0x30
    80004a10:	0078c0b3          	xor	ra,a7,t2
    80004a14:	0010f593          	andi	a1,ra,1
    80004a18:	005a5313          	srli	t1,s4,0x5
    80004a1c:	0013de13          	srli	t3,t2,0x1
    80004a20:	00058863          	beqz	a1,80004a30 <core_bench_state+0xbd4>
    80004a24:	015e4533          	xor	a0,t3,s5
    80004a28:	03051813          	slli	a6,a0,0x30
    80004a2c:	03085e13          	srli	t3,a6,0x30
    80004a30:	01c34eb3          	xor	t4,t1,t3
    80004a34:	001eff93          	andi	t6,t4,1
    80004a38:	006a5913          	srli	s2,s4,0x6
    80004a3c:	001e5413          	srli	s0,t3,0x1
    80004a40:	000f8863          	beqz	t6,80004a50 <core_bench_state+0xbf4>
    80004a44:	015449b3          	xor	s3,s0,s5
    80004a48:	03099b13          	slli	s6,s3,0x30
    80004a4c:	030b5413          	srli	s0,s6,0x30
    80004a50:	00894bb3          	xor	s7,s2,s0
    80004a54:	001bff13          	andi	t5,s7,1
    80004a58:	007a5a13          	srli	s4,s4,0x7
    80004a5c:	00145293          	srli	t0,s0,0x1
    80004a60:	000f0863          	beqz	t5,80004a70 <core_bench_state+0xc14>
    80004a64:	0152c733          	xor	a4,t0,s5
    80004a68:	03071893          	slli	a7,a4,0x30
    80004a6c:	0308d293          	srli	t0,a7,0x30
    80004a70:	005a47b3          	xor	a5,s4,t0
    80004a74:	0017f393          	andi	t2,a5,1
    80004a78:	0012d413          	srli	s0,t0,0x1
    80004a7c:	00038863          	beqz	t2,80004a8c <core_bench_state+0xc30>
    80004a80:	015440b3          	xor	ra,s0,s5
    80004a84:	03009593          	slli	a1,ra,0x30
    80004a88:	0305d413          	srli	s0,a1,0x30
    80004a8c:	00468693          	addi	a3,a3,4
    80004a90:	00460613          	addi	a2,a2,4
    80004a94:	fe969063          	bne	a3,s1,80004274 <core_bench_state+0x418>
    80004a98:	09813083          	ld	ra,152(sp)
    80004a9c:	00040513          	mv	a0,s0
    80004aa0:	09013403          	ld	s0,144(sp)
    80004aa4:	08813483          	ld	s1,136(sp)
    80004aa8:	08013903          	ld	s2,128(sp)
    80004aac:	07813983          	ld	s3,120(sp)
    80004ab0:	07013a03          	ld	s4,112(sp)
    80004ab4:	06813a83          	ld	s5,104(sp)
    80004ab8:	06013b03          	ld	s6,96(sp)
    80004abc:	05813b83          	ld	s7,88(sp)
    80004ac0:	0a010113          	addi	sp,sp,160
    80004ac4:	00008067          	ret
    80004ac8:	00094603          	lbu	a2,0(s2)
    80004acc:	01364eb3          	xor	t4,a2,s3
    80004ad0:	00d60463          	beq	a2,a3,80004ad8 <core_bench_state+0xc7c>
    80004ad4:	01d90023          	sb	t4,0(s2)
    80004ad8:	01490933          	add	s2,s2,s4
    80004adc:	ff5966e3          	bltu	s2,s5,80004ac8 <core_bench_state+0xc6c>
    80004ae0:	f84ff06f          	j	80004264 <core_bench_state+0x408>
    80004ae4:	00090f93          	mv	t6,s2
    80004ae8:	02c00e13          	li	t3,44
    80004aec:	000fce83          	lbu	t4,0(t6)
    80004af0:	016ecf33          	xor	t5,t4,s6
    80004af4:	01ce8463          	beq	t4,t3,80004afc <core_bench_state+0xca0>
    80004af8:	01ef8023          	sb	t5,0(t6)
    80004afc:	014f8fb3          	add	t6,t6,s4
    80004b00:	ff5fe6e3          	bltu	t6,s5,80004aec <core_bench_state+0xc90>
    80004b04:	d94ff06f          	j	80004098 <core_bench_state+0x23c>
    80004b08:	d80b9c63          	bnez	s7,800040a0 <core_bench_state+0x244>
    80004b0c:	f58ff06f          	j	80004264 <core_bench_state+0x408>
    80004b10:	01213423          	sd	s2,8(sp)
    80004b14:	dccff06f          	j	800040e0 <core_bench_state+0x284>

0000000080004b18 <calc_func>:
    80004b18:	fd010113          	addi	sp,sp,-48
    80004b1c:	00913c23          	sd	s1,24(sp)
    80004b20:	00051483          	lh	s1,0(a0)
    80004b24:	02113423          	sd	ra,40(sp)
    80004b28:	02813023          	sd	s0,32(sp)
    80004b2c:	4074d79b          	sraiw	a5,s1,0x7
    80004b30:	01213823          	sd	s2,16(sp)
    80004b34:	01313423          	sd	s3,8(sp)
    80004b38:	0017f093          	andi	ra,a5,1
    80004b3c:	02008263          	beqz	ra,80004b60 <calc_func+0x48>
    80004b40:	02813083          	ld	ra,40(sp)
    80004b44:	02013403          	ld	s0,32(sp)
    80004b48:	01013903          	ld	s2,16(sp)
    80004b4c:	00813983          	ld	s3,8(sp)
    80004b50:	07f4f513          	andi	a0,s1,127
    80004b54:	01813483          	ld	s1,24(sp)
    80004b58:	03010113          	addi	sp,sp,48
    80004b5c:	00008067          	ret
    80004b60:	4034d29b          	sraiw	t0,s1,0x3
    80004b64:	00f2f313          	andi	t1,t0,15
    80004b68:	00431713          	slli	a4,t1,0x4
    80004b6c:	0074f693          	andi	a3,s1,7
    80004b70:	0605d403          	lhu	s0,96(a1)
    80004b74:	00050993          	mv	s3,a0
    80004b78:	00058913          	mv	s2,a1
    80004b7c:	00676733          	or	a4,a4,t1
    80004b80:	56068e63          	beqz	a3,800050fc <calc_func+0x5e4>
    80004b84:	00100513          	li	a0,1
    80004b88:	56a69263          	bne	a3,a0,800050ec <calc_func+0x5d4>
    80004b8c:	0485b603          	ld	a2,72(a1)
    80004b90:	0505b683          	ld	a3,80(a1)
    80004b94:	04092503          	lw	a0,64(s2)
    80004b98:	0585b583          	ld	a1,88(a1)
    80004b9c:	cf1fb0ef          	jal	ra,8000088c <matrix_test>
    80004ba0:	0ff57893          	zext.b	a7,a0
    80004ba4:	0088c633          	xor	a2,a7,s0
    80004ba8:	03051e93          	slli	t4,a0,0x30
    80004bac:	00167e13          	andi	t3,a2,1
    80004bb0:	030edf13          	srli	t5,t4,0x30
    80004bb4:	0018df93          	srli	t6,a7,0x1
    80004bb8:	00145713          	srli	a4,s0,0x1
    80004bbc:	000e0c63          	beqz	t3,80004bd4 <calc_func+0xbc>
    80004bc0:	ffffa7b7          	lui	a5,0xffffa
    80004bc4:	00178093          	addi	ra,a5,1 # ffffffffffffa001 <_pmem_end+0xffffffff77ffa001>
    80004bc8:	001742b3          	xor	t0,a4,ra
    80004bcc:	03029313          	slli	t1,t0,0x30
    80004bd0:	03035713          	srli	a4,t1,0x30
    80004bd4:	00efc6b3          	xor	a3,t6,a4
    80004bd8:	0016f393          	andi	t2,a3,1
    80004bdc:	0028d813          	srli	a6,a7,0x2
    80004be0:	00175e13          	srli	t3,a4,0x1
    80004be4:	00038c63          	beqz	t2,80004bfc <calc_func+0xe4>
    80004be8:	ffffa5b7          	lui	a1,0xffffa
    80004bec:	00158413          	addi	s0,a1,1 # ffffffffffffa001 <_pmem_end+0xffffffff77ffa001>
    80004bf0:	008e4533          	xor	a0,t3,s0
    80004bf4:	03051613          	slli	a2,a0,0x30
    80004bf8:	03065e13          	srli	t3,a2,0x30
    80004bfc:	01c84eb3          	xor	t4,a6,t3
    80004c00:	001eff93          	andi	t6,t4,1
    80004c04:	0038d793          	srli	a5,a7,0x3
    80004c08:	001e5393          	srli	t2,t3,0x1
    80004c0c:	000f8c63          	beqz	t6,80004c24 <calc_func+0x10c>
    80004c10:	ffffa0b7          	lui	ra,0xffffa
    80004c14:	00108293          	addi	t0,ra,1 # ffffffffffffa001 <_pmem_end+0xffffffff77ffa001>
    80004c18:	0053c333          	xor	t1,t2,t0
    80004c1c:	03031713          	slli	a4,t1,0x30
    80004c20:	03075393          	srli	t2,a4,0x30
    80004c24:	0077c6b3          	xor	a3,a5,t2
    80004c28:	0016f813          	andi	a6,a3,1
    80004c2c:	0048d593          	srli	a1,a7,0x4
    80004c30:	0013de93          	srli	t4,t2,0x1
    80004c34:	00080c63          	beqz	a6,80004c4c <calc_func+0x134>
    80004c38:	ffffa437          	lui	s0,0xffffa
    80004c3c:	00140613          	addi	a2,s0,1 # ffffffffffffa001 <_pmem_end+0xffffffff77ffa001>
    80004c40:	00cec533          	xor	a0,t4,a2
    80004c44:	03051e13          	slli	t3,a0,0x30
    80004c48:	030e5e93          	srli	t4,t3,0x30
    80004c4c:	01d5cfb3          	xor	t6,a1,t4
    80004c50:	001ff793          	andi	a5,t6,1
    80004c54:	0058d093          	srli	ra,a7,0x5
    80004c58:	001ed813          	srli	a6,t4,0x1
    80004c5c:	00078c63          	beqz	a5,80004c74 <calc_func+0x15c>
    80004c60:	ffffa2b7          	lui	t0,0xffffa
    80004c64:	00128313          	addi	t1,t0,1 # ffffffffffffa001 <_pmem_end+0xffffffff77ffa001>
    80004c68:	00684733          	xor	a4,a6,t1
    80004c6c:	03071393          	slli	t2,a4,0x30
    80004c70:	0303d813          	srli	a6,t2,0x30
    80004c74:	0100c6b3          	xor	a3,ra,a6
    80004c78:	0016f593          	andi	a1,a3,1
    80004c7c:	0068d413          	srli	s0,a7,0x6
    80004c80:	00185f93          	srli	t6,a6,0x1
    80004c84:	00058c63          	beqz	a1,80004c9c <calc_func+0x184>
    80004c88:	ffffa637          	lui	a2,0xffffa
    80004c8c:	00160e13          	addi	t3,a2,1 # ffffffffffffa001 <_pmem_end+0xffffffff77ffa001>
    80004c90:	01cfc533          	xor	a0,t6,t3
    80004c94:	03051e93          	slli	t4,a0,0x30
    80004c98:	030edf93          	srli	t6,t4,0x30
    80004c9c:	01f447b3          	xor	a5,s0,t6
    80004ca0:	0017f093          	andi	ra,a5,1
    80004ca4:	0078d893          	srli	a7,a7,0x7
    80004ca8:	001fd813          	srli	a6,t6,0x1
    80004cac:	00008c63          	beqz	ra,80004cc4 <calc_func+0x1ac>
    80004cb0:	ffffa2b7          	lui	t0,0xffffa
    80004cb4:	00128313          	addi	t1,t0,1 # ffffffffffffa001 <_pmem_end+0xffffffff77ffa001>
    80004cb8:	00684733          	xor	a4,a6,t1
    80004cbc:	03071393          	slli	t2,a4,0x30
    80004cc0:	0303d813          	srli	a6,t2,0x30
    80004cc4:	00187693          	andi	a3,a6,1
    80004cc8:	00185513          	srli	a0,a6,0x1
    80004ccc:	01168c63          	beq	a3,a7,80004ce4 <calc_func+0x1cc>
    80004cd0:	ffffa5b7          	lui	a1,0xffffa
    80004cd4:	00158413          	addi	s0,a1,1 # ffffffffffffa001 <_pmem_end+0xffffffff77ffa001>
    80004cd8:	00854633          	xor	a2,a0,s0
    80004cdc:	03061e13          	slli	t3,a2,0x30
    80004ce0:	030e5513          	srli	a0,t3,0x30
    80004ce4:	008f5e93          	srli	t4,t5,0x8
    80004ce8:	00aecfb3          	xor	t6,t4,a0
    80004cec:	001ff793          	andi	a5,t6,1
    80004cf0:	009f5f13          	srli	t5,t5,0x9
    80004cf4:	00155393          	srli	t2,a0,0x1
    80004cf8:	00078c63          	beqz	a5,80004d10 <calc_func+0x1f8>
    80004cfc:	ffffa0b7          	lui	ra,0xffffa
    80004d00:	00108893          	addi	a7,ra,1 # ffffffffffffa001 <_pmem_end+0xffffffff77ffa001>
    80004d04:	0113c2b3          	xor	t0,t2,a7
    80004d08:	03029313          	slli	t1,t0,0x30
    80004d0c:	03035393          	srli	t2,t1,0x30
    80004d10:	007f4733          	xor	a4,t5,t2
    80004d14:	00177813          	andi	a6,a4,1
    80004d18:	002ed693          	srli	a3,t4,0x2
    80004d1c:	0013d513          	srli	a0,t2,0x1
    80004d20:	00080c63          	beqz	a6,80004d38 <calc_func+0x220>
    80004d24:	ffffa5b7          	lui	a1,0xffffa
    80004d28:	00158413          	addi	s0,a1,1 # ffffffffffffa001 <_pmem_end+0xffffffff77ffa001>
    80004d2c:	00854633          	xor	a2,a0,s0
    80004d30:	03061e13          	slli	t3,a2,0x30
    80004d34:	030e5513          	srli	a0,t3,0x30
    80004d38:	00a6cfb3          	xor	t6,a3,a0
    80004d3c:	001ff793          	andi	a5,t6,1
    80004d40:	003edf13          	srli	t5,t4,0x3
    80004d44:	00155393          	srli	t2,a0,0x1
    80004d48:	00078c63          	beqz	a5,80004d60 <calc_func+0x248>
    80004d4c:	ffffa0b7          	lui	ra,0xffffa
    80004d50:	00108893          	addi	a7,ra,1 # ffffffffffffa001 <_pmem_end+0xffffffff77ffa001>
    80004d54:	0113c2b3          	xor	t0,t2,a7
    80004d58:	03029313          	slli	t1,t0,0x30
    80004d5c:	03035393          	srli	t2,t1,0x30
    80004d60:	007f4733          	xor	a4,t5,t2
    80004d64:	00177813          	andi	a6,a4,1
    80004d68:	004ed593          	srli	a1,t4,0x4
    80004d6c:	0013d513          	srli	a0,t2,0x1
    80004d70:	00080c63          	beqz	a6,80004d88 <calc_func+0x270>
    80004d74:	ffffa6b7          	lui	a3,0xffffa
    80004d78:	00168413          	addi	s0,a3,1 # ffffffffffffa001 <_pmem_end+0xffffffff77ffa001>
    80004d7c:	00854633          	xor	a2,a0,s0
    80004d80:	03061e13          	slli	t3,a2,0x30
    80004d84:	030e5513          	srli	a0,t3,0x30
    80004d88:	00a5cfb3          	xor	t6,a1,a0
    80004d8c:	001ff793          	andi	a5,t6,1
    80004d90:	005edf13          	srli	t5,t4,0x5
    80004d94:	00155393          	srli	t2,a0,0x1
    80004d98:	00078c63          	beqz	a5,80004db0 <calc_func+0x298>
    80004d9c:	ffffa0b7          	lui	ra,0xffffa
    80004da0:	00108893          	addi	a7,ra,1 # ffffffffffffa001 <_pmem_end+0xffffffff77ffa001>
    80004da4:	0113c2b3          	xor	t0,t2,a7
    80004da8:	03029313          	slli	t1,t0,0x30
    80004dac:	03035393          	srli	t2,t1,0x30
    80004db0:	007f4733          	xor	a4,t5,t2
    80004db4:	00177813          	andi	a6,a4,1
    80004db8:	006ed593          	srli	a1,t4,0x6
    80004dbc:	0013d513          	srli	a0,t2,0x1
    80004dc0:	00080c63          	beqz	a6,80004dd8 <calc_func+0x2c0>
    80004dc4:	ffffa6b7          	lui	a3,0xffffa
    80004dc8:	00168413          	addi	s0,a3,1 # ffffffffffffa001 <_pmem_end+0xffffffff77ffa001>
    80004dcc:	00854633          	xor	a2,a0,s0
    80004dd0:	03061e13          	slli	t3,a2,0x30
    80004dd4:	030e5513          	srli	a0,t3,0x30
    80004dd8:	00a5cfb3          	xor	t6,a1,a0
    80004ddc:	001fff13          	andi	t5,t6,1
    80004de0:	007ede93          	srli	t4,t4,0x7
    80004de4:	00155313          	srli	t1,a0,0x1
    80004de8:	000f0c63          	beqz	t5,80004e00 <calc_func+0x2e8>
    80004dec:	ffffa7b7          	lui	a5,0xffffa
    80004df0:	00178093          	addi	ra,a5,1 # ffffffffffffa001 <_pmem_end+0xffffffff77ffa001>
    80004df4:	001348b3          	xor	a7,t1,ra
    80004df8:	03089293          	slli	t0,a7,0x30
    80004dfc:	0302d313          	srli	t1,t0,0x30
    80004e00:	006ec3b3          	xor	t2,t4,t1
    80004e04:	0013f713          	andi	a4,t2,1
    80004e08:	00135513          	srli	a0,t1,0x1
    80004e0c:	00070c63          	beqz	a4,80004e24 <calc_func+0x30c>
    80004e10:	ffffa837          	lui	a6,0xffffa
    80004e14:	00180593          	addi	a1,a6,1 # ffffffffffffa001 <_pmem_end+0xffffffff77ffa001>
    80004e18:	00b546b3          	xor	a3,a0,a1
    80004e1c:	03069413          	slli	s0,a3,0x30
    80004e20:	03045513          	srli	a0,s0,0x30
    80004e24:	06495603          	lhu	a2,100(s2)
    80004e28:	01051e1b          	slliw	t3,a0,0x10
    80004e2c:	06095403          	lhu	s0,96(s2)
    80004e30:	410e5f9b          	sraiw	t6,t3,0x10
    80004e34:	00061463          	bnez	a2,80004e3c <calc_func+0x324>
    80004e38:	06a91223          	sh	a0,100(s2)
    80004e3c:	0fffff13          	zext.b	t5,t6
    80004e40:	008f4eb3          	xor	t4,t5,s0
    80004e44:	001ef093          	andi	ra,t4,1
    80004e48:	001f5893          	srli	a7,t5,0x1
    80004e4c:	00145713          	srli	a4,s0,0x1
    80004e50:	00008c63          	beqz	ra,80004e68 <calc_func+0x350>
    80004e54:	ffffa2b7          	lui	t0,0xffffa
    80004e58:	00128313          	addi	t1,t0,1 # ffffffffffffa001 <_pmem_end+0xffffffff77ffa001>
    80004e5c:	006747b3          	xor	a5,a4,t1
    80004e60:	03079393          	slli	t2,a5,0x30
    80004e64:	0303d713          	srli	a4,t2,0x30
    80004e68:	00e8c833          	xor	a6,a7,a4
    80004e6c:	00187593          	andi	a1,a6,1
    80004e70:	002f5693          	srli	a3,t5,0x2
    80004e74:	00175093          	srli	ra,a4,0x1
    80004e78:	00058c63          	beqz	a1,80004e90 <calc_func+0x378>
    80004e7c:	ffffa637          	lui	a2,0xffffa
    80004e80:	00160e13          	addi	t3,a2,1 # ffffffffffffa001 <_pmem_end+0xffffffff77ffa001>
    80004e84:	01c0c433          	xor	s0,ra,t3
    80004e88:	03041e93          	slli	t4,s0,0x30
    80004e8c:	030ed093          	srli	ra,t4,0x30
    80004e90:	0016c8b3          	xor	a7,a3,ra
    80004e94:	0018f293          	andi	t0,a7,1
    80004e98:	003f5313          	srli	t1,t5,0x3
    80004e9c:	0010d693          	srli	a3,ra,0x1
    80004ea0:	00028c63          	beqz	t0,80004eb8 <calc_func+0x3a0>
    80004ea4:	ffffa3b7          	lui	t2,0xffffa
    80004ea8:	00138713          	addi	a4,t2,1 # ffffffffffffa001 <_pmem_end+0xffffffff77ffa001>
    80004eac:	00e6c7b3          	xor	a5,a3,a4
    80004eb0:	03079813          	slli	a6,a5,0x30
    80004eb4:	03085693          	srli	a3,a6,0x30
    80004eb8:	00d345b3          	xor	a1,t1,a3
    80004ebc:	0015fe13          	andi	t3,a1,1
    80004ec0:	004f5613          	srli	a2,t5,0x4
    80004ec4:	0016d293          	srli	t0,a3,0x1
    80004ec8:	000e0c63          	beqz	t3,80004ee0 <calc_func+0x3c8>
    80004ecc:	ffffa437          	lui	s0,0xffffa
    80004ed0:	00140e93          	addi	t4,s0,1 # ffffffffffffa001 <_pmem_end+0xffffffff77ffa001>
    80004ed4:	01d2c0b3          	xor	ra,t0,t4
    80004ed8:	03009893          	slli	a7,ra,0x30
    80004edc:	0308d293          	srli	t0,a7,0x30
    80004ee0:	00564333          	xor	t1,a2,t0
    80004ee4:	00137393          	andi	t2,t1,1
    80004ee8:	005f5713          	srli	a4,t5,0x5
    80004eec:	0012de13          	srli	t3,t0,0x1
    80004ef0:	00038c63          	beqz	t2,80004f08 <calc_func+0x3f0>
    80004ef4:	ffffa837          	lui	a6,0xffffa
    80004ef8:	00180693          	addi	a3,a6,1 # ffffffffffffa001 <_pmem_end+0xffffffff77ffa001>
    80004efc:	00de47b3          	xor	a5,t3,a3
    80004f00:	03079593          	slli	a1,a5,0x30
    80004f04:	0305de13          	srli	t3,a1,0x30
    80004f08:	01c74633          	xor	a2,a4,t3
    80004f0c:	00167413          	andi	s0,a2,1
    80004f10:	006f5e93          	srli	t4,t5,0x6
    80004f14:	001e5393          	srli	t2,t3,0x1
    80004f18:	00040c63          	beqz	s0,80004f30 <calc_func+0x418>
    80004f1c:	ffffa0b7          	lui	ra,0xffffa
    80004f20:	00108893          	addi	a7,ra,1 # ffffffffffffa001 <_pmem_end+0xffffffff77ffa001>
    80004f24:	0113c2b3          	xor	t0,t2,a7
    80004f28:	03029313          	slli	t1,t0,0x30
    80004f2c:	03035393          	srli	t2,t1,0x30
    80004f30:	007ec733          	xor	a4,t4,t2
    80004f34:	00177813          	andi	a6,a4,1
    80004f38:	007f5f13          	srli	t5,t5,0x7
    80004f3c:	0013d413          	srli	s0,t2,0x1
    80004f40:	00080c63          	beqz	a6,80004f58 <calc_func+0x440>
    80004f44:	ffffa6b7          	lui	a3,0xffffa
    80004f48:	00168593          	addi	a1,a3,1 # ffffffffffffa001 <_pmem_end+0xffffffff77ffa001>
    80004f4c:	00b447b3          	xor	a5,s0,a1
    80004f50:	03079e13          	slli	t3,a5,0x30
    80004f54:	030e5413          	srli	s0,t3,0x30
    80004f58:	00147613          	andi	a2,s0,1
    80004f5c:	00145313          	srli	t1,s0,0x1
    80004f60:	01e60c63          	beq	a2,t5,80004f78 <calc_func+0x460>
    80004f64:	ffffaeb7          	lui	t4,0xffffa
    80004f68:	001e8093          	addi	ra,t4,1 # ffffffffffffa001 <_pmem_end+0xffffffff77ffa001>
    80004f6c:	001348b3          	xor	a7,t1,ra
    80004f70:	03089293          	slli	t0,a7,0x30
    80004f74:	0302d313          	srli	t1,t0,0x30
    80004f78:	0085551b          	srliw	a0,a0,0x8
    80004f7c:	0ff57393          	zext.b	t2,a0
    80004f80:	0063c733          	xor	a4,t2,t1
    80004f84:	00177813          	andi	a6,a4,1
    80004f88:	0013df13          	srli	t5,t2,0x1
    80004f8c:	00135413          	srli	s0,t1,0x1
    80004f90:	00080c63          	beqz	a6,80004fa8 <calc_func+0x490>
    80004f94:	ffffa6b7          	lui	a3,0xffffa
    80004f98:	00168593          	addi	a1,a3,1 # ffffffffffffa001 <_pmem_end+0xffffffff77ffa001>
    80004f9c:	00b447b3          	xor	a5,s0,a1
    80004fa0:	03079e13          	slli	t3,a5,0x30
    80004fa4:	030e5413          	srli	s0,t3,0x30
    80004fa8:	008f4633          	xor	a2,t5,s0
    80004fac:	00167e93          	andi	t4,a2,1
    80004fb0:	0023d093          	srli	ra,t2,0x2
    80004fb4:	00145713          	srli	a4,s0,0x1
    80004fb8:	000e8c63          	beqz	t4,80004fd0 <calc_func+0x4b8>
    80004fbc:	ffffa8b7          	lui	a7,0xffffa
    80004fc0:	00188293          	addi	t0,a7,1 # ffffffffffffa001 <_pmem_end+0xffffffff77ffa001>
    80004fc4:	00574333          	xor	t1,a4,t0
    80004fc8:	03031513          	slli	a0,t1,0x30
    80004fcc:	03055713          	srli	a4,a0,0x30
    80004fd0:	00e0c833          	xor	a6,ra,a4
    80004fd4:	00187f13          	andi	t5,a6,1
    80004fd8:	0033d593          	srli	a1,t2,0x3
    80004fdc:	00175e93          	srli	t4,a4,0x1
    80004fe0:	000f0c63          	beqz	t5,80004ff8 <calc_func+0x4e0>
    80004fe4:	ffffa6b7          	lui	a3,0xffffa
    80004fe8:	00168e13          	addi	t3,a3,1 # ffffffffffffa001 <_pmem_end+0xffffffff77ffa001>
    80004fec:	01cec7b3          	xor	a5,t4,t3
    80004ff0:	03079413          	slli	s0,a5,0x30
    80004ff4:	03045e93          	srli	t4,s0,0x30
    80004ff8:	01d5c633          	xor	a2,a1,t4
    80004ffc:	00167093          	andi	ra,a2,1
    80005000:	0043d893          	srli	a7,t2,0x4
    80005004:	001ed813          	srli	a6,t4,0x1
    80005008:	00008c63          	beqz	ra,80005020 <calc_func+0x508>
    8000500c:	ffffa2b7          	lui	t0,0xffffa
    80005010:	00128313          	addi	t1,t0,1 # ffffffffffffa001 <_pmem_end+0xffffffff77ffa001>
    80005014:	00684533          	xor	a0,a6,t1
    80005018:	03051713          	slli	a4,a0,0x30
    8000501c:	03075813          	srli	a6,a4,0x30
    80005020:	0108cf33          	xor	t5,a7,a6
    80005024:	001f7593          	andi	a1,t5,1
    80005028:	0053de13          	srli	t3,t2,0x5
    8000502c:	00185093          	srli	ra,a6,0x1
    80005030:	00058c63          	beqz	a1,80005048 <calc_func+0x530>
    80005034:	ffffa6b7          	lui	a3,0xffffa
    80005038:	00168413          	addi	s0,a3,1 # ffffffffffffa001 <_pmem_end+0xffffffff77ffa001>
    8000503c:	0080c7b3          	xor	a5,ra,s0
    80005040:	03079e93          	slli	t4,a5,0x30
    80005044:	030ed093          	srli	ra,t4,0x30
    80005048:	001e4633          	xor	a2,t3,ra
    8000504c:	00167893          	andi	a7,a2,1
    80005050:	0063d293          	srli	t0,t2,0x6
    80005054:	0010df13          	srli	t5,ra,0x1
    80005058:	00088c63          	beqz	a7,80005070 <calc_func+0x558>
    8000505c:	ffffa337          	lui	t1,0xffffa
    80005060:	00130513          	addi	a0,t1,1 # ffffffffffffa001 <_pmem_end+0xffffffff77ffa001>
    80005064:	00af4733          	xor	a4,t5,a0
    80005068:	03071813          	slli	a6,a4,0x30
    8000506c:	03085f13          	srli	t5,a6,0x30
    80005070:	01e2c5b3          	xor	a1,t0,t5
    80005074:	0015fe13          	andi	t3,a1,1
    80005078:	0073d393          	srli	t2,t2,0x7
    8000507c:	001f5093          	srli	ra,t5,0x1
    80005080:	000e0c63          	beqz	t3,80005098 <calc_func+0x580>
    80005084:	ffffa6b7          	lui	a3,0xffffa
    80005088:	00168413          	addi	s0,a3,1 # ffffffffffffa001 <_pmem_end+0xffffffff77ffa001>
    8000508c:	0080c7b3          	xor	a5,ra,s0
    80005090:	03079e93          	slli	t4,a5,0x30
    80005094:	030ed093          	srli	ra,t4,0x30
    80005098:	0010f613          	andi	a2,ra,1
    8000509c:	0010d713          	srli	a4,ra,0x1
    800050a0:	00760c63          	beq	a2,t2,800050b8 <calc_func+0x5a0>
    800050a4:	ffffa8b7          	lui	a7,0xffffa
    800050a8:	00188293          	addi	t0,a7,1 # ffffffffffffa001 <_pmem_end+0xffffffff77ffa001>
    800050ac:	00574333          	xor	t1,a4,t0
    800050b0:	03031513          	slli	a0,t1,0x30
    800050b4:	03055713          	srli	a4,a0,0x30
    800050b8:	07fff513          	andi	a0,t6,127
    800050bc:	f004f493          	andi	s1,s1,-256
    800050c0:	02813083          	ld	ra,40(sp)
    800050c4:	02013403          	ld	s0,32(sp)
    800050c8:	00956fb3          	or	t6,a0,s1
    800050cc:	06e91023          	sh	a4,96(s2)
    800050d0:	080fe913          	ori	s2,t6,128
    800050d4:	01299023          	sh	s2,0(s3)
    800050d8:	01813483          	ld	s1,24(sp)
    800050dc:	01013903          	ld	s2,16(sp)
    800050e0:	00813983          	ld	s3,8(sp)
    800050e4:	03010113          	addi	sp,sp,48
    800050e8:	00008067          	ret
    800050ec:	03049513          	slli	a0,s1,0x30
    800050f0:	03055513          	srli	a0,a0,0x30
    800050f4:	00048f93          	mv	t6,s1
    800050f8:	d45ff06f          	j	80004e3c <calc_func+0x324>
    800050fc:	02200393          	li	t2,34
    80005100:	00070813          	mv	a6,a4
    80005104:	00775463          	bge	a4,t2,8000510c <calc_func+0x5f4>
    80005108:	02200813          	li	a6,34
    8000510c:	02093583          	ld	a1,32(s2)
    80005110:	00291683          	lh	a3,2(s2)
    80005114:	00091603          	lh	a2,0(s2)
    80005118:	02892503          	lw	a0,40(s2)
    8000511c:	00040793          	mv	a5,s0
    80005120:	0ff87713          	zext.b	a4,a6
    80005124:	d39fe0ef          	jal	ra,80003e5c <core_bench_state>
    80005128:	06695583          	lhu	a1,102(s2)
    8000512c:	0105141b          	slliw	s0,a0,0x10
    80005130:	41045f9b          	sraiw	t6,s0,0x10
    80005134:	06095403          	lhu	s0,96(s2)
    80005138:	d00592e3          	bnez	a1,80004e3c <calc_func+0x324>
    8000513c:	06a91323          	sh	a0,102(s2)
    80005140:	cfdff06f          	j	80004e3c <calc_func+0x324>

0000000080005144 <cmp_complex>:
    80005144:	fc010113          	addi	sp,sp,-64
    80005148:	03213023          	sd	s2,32(sp)
    8000514c:	00051903          	lh	s2,0(a0)
    80005150:	02113c23          	sd	ra,56(sp)
    80005154:	02913423          	sd	s1,40(sp)
    80005158:	4079579b          	sraiw	a5,s2,0x7
    8000515c:	01313c23          	sd	s3,24(sp)
    80005160:	01413823          	sd	s4,16(sp)
    80005164:	02813823          	sd	s0,48(sp)
    80005168:	01513423          	sd	s5,8(sp)
    8000516c:	0017f093          	andi	ra,a5,1
    80005170:	00058993          	mv	s3,a1
    80005174:	00060493          	mv	s1,a2
    80005178:	07f97a13          	andi	s4,s2,127
    8000517c:	2c009663          	bnez	ra,80005448 <cmp_complex+0x304>
    80005180:	4039571b          	sraiw	a4,s2,0x3
    80005184:	00f77293          	andi	t0,a4,15
    80005188:	00429693          	slli	a3,t0,0x4
    8000518c:	00797313          	andi	t1,s2,7
    80005190:	06065a03          	lhu	s4,96(a2)
    80005194:	00050a93          	mv	s5,a0
    80005198:	00d2e733          	or	a4,t0,a3
    8000519c:	0a0304e3          	beqz	t1,80005a44 <cmp_complex+0x900>
    800051a0:	00100513          	li	a0,1
    800051a4:	0ea304e3          	beq	t1,a0,80005a8c <cmp_complex+0x948>
    800051a8:	03091693          	slli	a3,s2,0x30
    800051ac:	0306d513          	srli	a0,a3,0x30
    800051b0:	00090313          	mv	t1,s2
    800051b4:	0ff37393          	zext.b	t2,t1
    800051b8:	0143c833          	xor	a6,t2,s4
    800051bc:	00187593          	andi	a1,a6,1
    800051c0:	0013de13          	srli	t3,t2,0x1
    800051c4:	001a5f93          	srli	t6,s4,0x1
    800051c8:	00058c63          	beqz	a1,800051e0 <cmp_complex+0x9c>
    800051cc:	ffffaf37          	lui	t5,0xffffa
    800051d0:	001f0613          	addi	a2,t5,1 # ffffffffffffa001 <_pmem_end+0xffffffff77ffa001>
    800051d4:	00cfceb3          	xor	t4,t6,a2
    800051d8:	030e9893          	slli	a7,t4,0x30
    800051dc:	0308df93          	srli	t6,a7,0x30
    800051e0:	01fe4433          	xor	s0,t3,t6
    800051e4:	00147093          	andi	ra,s0,1
    800051e8:	0023d293          	srli	t0,t2,0x2
    800051ec:	001fd813          	srli	a6,t6,0x1
    800051f0:	00008c63          	beqz	ra,80005208 <cmp_complex+0xc4>
    800051f4:	ffffa737          	lui	a4,0xffffa
    800051f8:	00170a13          	addi	s4,a4,1 # ffffffffffffa001 <_pmem_end+0xffffffff77ffa001>
    800051fc:	014847b3          	xor	a5,a6,s4
    80005200:	03079693          	slli	a3,a5,0x30
    80005204:	0306d813          	srli	a6,a3,0x30
    80005208:	0102c5b3          	xor	a1,t0,a6
    8000520c:	0015fe13          	andi	t3,a1,1
    80005210:	0033df13          	srli	t5,t2,0x3
    80005214:	00185413          	srli	s0,a6,0x1
    80005218:	000e0c63          	beqz	t3,80005230 <cmp_complex+0xec>
    8000521c:	ffffa637          	lui	a2,0xffffa
    80005220:	00160e93          	addi	t4,a2,1 # ffffffffffffa001 <_pmem_end+0xffffffff77ffa001>
    80005224:	01d448b3          	xor	a7,s0,t4
    80005228:	03089f93          	slli	t6,a7,0x30
    8000522c:	030fd413          	srli	s0,t6,0x30
    80005230:	008f40b3          	xor	ra,t5,s0
    80005234:	0010f293          	andi	t0,ra,1
    80005238:	0043d713          	srli	a4,t2,0x4
    8000523c:	00145593          	srli	a1,s0,0x1
    80005240:	00028c63          	beqz	t0,80005258 <cmp_complex+0x114>
    80005244:	ffffaa37          	lui	s4,0xffffa
    80005248:	001a0693          	addi	a3,s4,1 # ffffffffffffa001 <_pmem_end+0xffffffff77ffa001>
    8000524c:	00d5c7b3          	xor	a5,a1,a3
    80005250:	03079813          	slli	a6,a5,0x30
    80005254:	03085593          	srli	a1,a6,0x30
    80005258:	00b74e33          	xor	t3,a4,a1
    8000525c:	001e7f13          	andi	t5,t3,1
    80005260:	0053d613          	srli	a2,t2,0x5
    80005264:	0015d093          	srli	ra,a1,0x1
    80005268:	000f0c63          	beqz	t5,80005280 <cmp_complex+0x13c>
    8000526c:	ffffaeb7          	lui	t4,0xffffa
    80005270:	001e8893          	addi	a7,t4,1 # ffffffffffffa001 <_pmem_end+0xffffffff77ffa001>
    80005274:	0110cfb3          	xor	t6,ra,a7
    80005278:	030f9413          	slli	s0,t6,0x30
    8000527c:	03045093          	srli	ra,s0,0x30
    80005280:	001642b3          	xor	t0,a2,ra
    80005284:	0012f713          	andi	a4,t0,1
    80005288:	0063da13          	srli	s4,t2,0x6
    8000528c:	0010de13          	srli	t3,ra,0x1
    80005290:	00070c63          	beqz	a4,800052a8 <cmp_complex+0x164>
    80005294:	ffffa6b7          	lui	a3,0xffffa
    80005298:	00168813          	addi	a6,a3,1 # ffffffffffffa001 <_pmem_end+0xffffffff77ffa001>
    8000529c:	010e47b3          	xor	a5,t3,a6
    800052a0:	03079593          	slli	a1,a5,0x30
    800052a4:	0305de13          	srli	t3,a1,0x30
    800052a8:	01ca4f33          	xor	t5,s4,t3
    800052ac:	001f7613          	andi	a2,t5,1
    800052b0:	0073d393          	srli	t2,t2,0x7
    800052b4:	001e5093          	srli	ra,t3,0x1
    800052b8:	00060c63          	beqz	a2,800052d0 <cmp_complex+0x18c>
    800052bc:	ffffaeb7          	lui	t4,0xffffa
    800052c0:	001e8893          	addi	a7,t4,1 # ffffffffffffa001 <_pmem_end+0xffffffff77ffa001>
    800052c4:	0110cfb3          	xor	t6,ra,a7
    800052c8:	030f9413          	slli	s0,t6,0x30
    800052cc:	03045093          	srli	ra,s0,0x30
    800052d0:	0010f293          	andi	t0,ra,1
    800052d4:	0010d793          	srli	a5,ra,0x1
    800052d8:	00728c63          	beq	t0,t2,800052f0 <cmp_complex+0x1ac>
    800052dc:	ffffa737          	lui	a4,0xffffa
    800052e0:	00170a13          	addi	s4,a4,1 # ffffffffffffa001 <_pmem_end+0xffffffff77ffa001>
    800052e4:	0147c6b3          	xor	a3,a5,s4
    800052e8:	03069813          	slli	a6,a3,0x30
    800052ec:	03085793          	srli	a5,a6,0x30
    800052f0:	0085551b          	srliw	a0,a0,0x8
    800052f4:	0ff57593          	zext.b	a1,a0
    800052f8:	00f5ce33          	xor	t3,a1,a5
    800052fc:	001e7f13          	andi	t5,t3,1
    80005300:	0015d613          	srli	a2,a1,0x1
    80005304:	0017d413          	srli	s0,a5,0x1
    80005308:	000f0c63          	beqz	t5,80005320 <cmp_complex+0x1dc>
    8000530c:	ffffa3b7          	lui	t2,0xffffa
    80005310:	00138e93          	addi	t4,t2,1 # ffffffffffffa001 <_pmem_end+0xffffffff77ffa001>
    80005314:	01d448b3          	xor	a7,s0,t4
    80005318:	03089f93          	slli	t6,a7,0x30
    8000531c:	030fd413          	srli	s0,t6,0x30
    80005320:	008640b3          	xor	ra,a2,s0
    80005324:	0010f293          	andi	t0,ra,1
    80005328:	0025d713          	srli	a4,a1,0x2
    8000532c:	00145513          	srli	a0,s0,0x1
    80005330:	00028c63          	beqz	t0,80005348 <cmp_complex+0x204>
    80005334:	ffffaa37          	lui	s4,0xffffa
    80005338:	001a0693          	addi	a3,s4,1 # ffffffffffffa001 <_pmem_end+0xffffffff77ffa001>
    8000533c:	00d54833          	xor	a6,a0,a3
    80005340:	03081793          	slli	a5,a6,0x30
    80005344:	0307d513          	srli	a0,a5,0x30
    80005348:	00a74e33          	xor	t3,a4,a0
    8000534c:	001e7f13          	andi	t5,t3,1
    80005350:	0035d613          	srli	a2,a1,0x3
    80005354:	00155413          	srli	s0,a0,0x1
    80005358:	000f0c63          	beqz	t5,80005370 <cmp_complex+0x22c>
    8000535c:	ffffa3b7          	lui	t2,0xffffa
    80005360:	00138e93          	addi	t4,t2,1 # ffffffffffffa001 <_pmem_end+0xffffffff77ffa001>
    80005364:	01d448b3          	xor	a7,s0,t4
    80005368:	03089f93          	slli	t6,a7,0x30
    8000536c:	030fd413          	srli	s0,t6,0x30
    80005370:	008640b3          	xor	ra,a2,s0
    80005374:	0010f293          	andi	t0,ra,1
    80005378:	0045d713          	srli	a4,a1,0x4
    8000537c:	00145513          	srli	a0,s0,0x1
    80005380:	00028c63          	beqz	t0,80005398 <cmp_complex+0x254>
    80005384:	ffffaa37          	lui	s4,0xffffa
    80005388:	001a0693          	addi	a3,s4,1 # ffffffffffffa001 <_pmem_end+0xffffffff77ffa001>
    8000538c:	00d54833          	xor	a6,a0,a3
    80005390:	03081793          	slli	a5,a6,0x30
    80005394:	0307d513          	srli	a0,a5,0x30
    80005398:	00a74e33          	xor	t3,a4,a0
    8000539c:	001e7f13          	andi	t5,t3,1
    800053a0:	0055d613          	srli	a2,a1,0x5
    800053a4:	00155413          	srli	s0,a0,0x1
    800053a8:	000f0c63          	beqz	t5,800053c0 <cmp_complex+0x27c>
    800053ac:	ffffa3b7          	lui	t2,0xffffa
    800053b0:	00138e93          	addi	t4,t2,1 # ffffffffffffa001 <_pmem_end+0xffffffff77ffa001>
    800053b4:	01d448b3          	xor	a7,s0,t4
    800053b8:	03089f93          	slli	t6,a7,0x30
    800053bc:	030fd413          	srli	s0,t6,0x30
    800053c0:	008640b3          	xor	ra,a2,s0
    800053c4:	0010f293          	andi	t0,ra,1
    800053c8:	0065d713          	srli	a4,a1,0x6
    800053cc:	00145e13          	srli	t3,s0,0x1
    800053d0:	00028c63          	beqz	t0,800053e8 <cmp_complex+0x2a4>
    800053d4:	ffffaa37          	lui	s4,0xffffa
    800053d8:	001a0693          	addi	a3,s4,1 # ffffffffffffa001 <_pmem_end+0xffffffff77ffa001>
    800053dc:	00de4833          	xor	a6,t3,a3
    800053e0:	03081793          	slli	a5,a6,0x30
    800053e4:	0307de13          	srli	t3,a5,0x30
    800053e8:	01c74533          	xor	a0,a4,t3
    800053ec:	00157f13          	andi	t5,a0,1
    800053f0:	0075d593          	srli	a1,a1,0x7
    800053f4:	001e5f93          	srli	t6,t3,0x1
    800053f8:	000f0c63          	beqz	t5,80005410 <cmp_complex+0x2cc>
    800053fc:	ffffa637          	lui	a2,0xffffa
    80005400:	00160393          	addi	t2,a2,1 # ffffffffffffa001 <_pmem_end+0xffffffff77ffa001>
    80005404:	007fceb3          	xor	t4,t6,t2
    80005408:	030e9893          	slli	a7,t4,0x30
    8000540c:	0308df93          	srli	t6,a7,0x30
    80005410:	001ff413          	andi	s0,t6,1
    80005414:	001fd693          	srli	a3,t6,0x1
    80005418:	00b40c63          	beq	s0,a1,80005430 <cmp_complex+0x2ec>
    8000541c:	ffffa0b7          	lui	ra,0xffffa
    80005420:	00108293          	addi	t0,ra,1 # ffffffffffffa001 <_pmem_end+0xffffffff77ffa001>
    80005424:	0056c733          	xor	a4,a3,t0
    80005428:	03071a13          	slli	s4,a4,0x30
    8000542c:	030a5693          	srli	a3,s4,0x30
    80005430:	07f37a13          	andi	s4,t1,127
    80005434:	f0097913          	andi	s2,s2,-256
    80005438:	012a6333          	or	t1,s4,s2
    8000543c:	06d49023          	sh	a3,96(s1)
    80005440:	08036813          	ori	a6,t1,128
    80005444:	010a9023          	sh	a6,0(s5)
    80005448:	00099a83          	lh	s5,0(s3)
    8000544c:	407ad79b          	sraiw	a5,s5,0x7
    80005450:	0017fe13          	andi	t3,a5,1
    80005454:	07faf393          	andi	t2,s5,127
    80005458:	560e1663          	bnez	t3,800059c4 <cmp_complex+0x880>
    8000545c:	403ad51b          	sraiw	a0,s5,0x3
    80005460:	00f57f13          	andi	t5,a0,15
    80005464:	004f1593          	slli	a1,t5,0x4
    80005468:	007af613          	andi	a2,s5,7
    8000546c:	0604d403          	lhu	s0,96(s1)
    80005470:	00bf6733          	or	a4,t5,a1
    80005474:	58060463          	beqz	a2,800059fc <cmp_complex+0x8b8>
    80005478:	00100093          	li	ra,1
    8000547c:	56161863          	bne	a2,ra,800059ec <cmp_complex+0x8a8>
    80005480:	0504b683          	ld	a3,80(s1)
    80005484:	0484b603          	ld	a2,72(s1)
    80005488:	0584b583          	ld	a1,88(s1)
    8000548c:	0404a503          	lw	a0,64(s1)
    80005490:	bfcfb0ef          	jal	ra,8000088c <matrix_test>
    80005494:	0ff57293          	zext.b	t0,a0
    80005498:	0082c733          	xor	a4,t0,s0
    8000549c:	03051693          	slli	a3,a0,0x30
    800054a0:	00177913          	andi	s2,a4,1
    800054a4:	0306d313          	srli	t1,a3,0x30
    800054a8:	0012d813          	srli	a6,t0,0x1
    800054ac:	00145f13          	srli	t5,s0,0x1
    800054b0:	00090c63          	beqz	s2,800054c8 <cmp_complex+0x384>
    800054b4:	ffffa437          	lui	s0,0xffffa
    800054b8:	00140793          	addi	a5,s0,1 # ffffffffffffa001 <_pmem_end+0xffffffff77ffa001>
    800054bc:	00ff4e33          	xor	t3,t5,a5
    800054c0:	030e1513          	slli	a0,t3,0x30
    800054c4:	03055f13          	srli	t5,a0,0x30
    800054c8:	01e845b3          	xor	a1,a6,t5
    800054cc:	0015f613          	andi	a2,a1,1
    800054d0:	0022d393          	srli	t2,t0,0x2
    800054d4:	001f5713          	srli	a4,t5,0x1
    800054d8:	00060c63          	beqz	a2,800054f0 <cmp_complex+0x3ac>
    800054dc:	ffffaeb7          	lui	t4,0xffffa
    800054e0:	001e8893          	addi	a7,t4,1 # ffffffffffffa001 <_pmem_end+0xffffffff77ffa001>
    800054e4:	01174fb3          	xor	t6,a4,a7
    800054e8:	030f9093          	slli	ra,t6,0x30
    800054ec:	0300d713          	srli	a4,ra,0x30
    800054f0:	00e3c933          	xor	s2,t2,a4
    800054f4:	00197693          	andi	a3,s2,1
    800054f8:	0032d813          	srli	a6,t0,0x3
    800054fc:	00175f13          	srli	t5,a4,0x1
    80005500:	00068c63          	beqz	a3,80005518 <cmp_complex+0x3d4>
    80005504:	ffffa437          	lui	s0,0xffffa
    80005508:	00140793          	addi	a5,s0,1 # ffffffffffffa001 <_pmem_end+0xffffffff77ffa001>
    8000550c:	00ff4e33          	xor	t3,t5,a5
    80005510:	030e1513          	slli	a0,t3,0x30
    80005514:	03055f13          	srli	t5,a0,0x30
    80005518:	01e845b3          	xor	a1,a6,t5
    8000551c:	0015f613          	andi	a2,a1,1
    80005520:	0042d393          	srli	t2,t0,0x4
    80005524:	001f5713          	srli	a4,t5,0x1
    80005528:	00060c63          	beqz	a2,80005540 <cmp_complex+0x3fc>
    8000552c:	ffffaeb7          	lui	t4,0xffffa
    80005530:	001e8893          	addi	a7,t4,1 # ffffffffffffa001 <_pmem_end+0xffffffff77ffa001>
    80005534:	01174fb3          	xor	t6,a4,a7
    80005538:	030f9093          	slli	ra,t6,0x30
    8000553c:	0300d713          	srli	a4,ra,0x30
    80005540:	00e3c933          	xor	s2,t2,a4
    80005544:	00197693          	andi	a3,s2,1
    80005548:	0052d813          	srli	a6,t0,0x5
    8000554c:	00175f13          	srli	t5,a4,0x1
    80005550:	00068c63          	beqz	a3,80005568 <cmp_complex+0x424>
    80005554:	ffffa437          	lui	s0,0xffffa
    80005558:	00140793          	addi	a5,s0,1 # ffffffffffffa001 <_pmem_end+0xffffffff77ffa001>
    8000555c:	00ff4e33          	xor	t3,t5,a5
    80005560:	030e1513          	slli	a0,t3,0x30
    80005564:	03055f13          	srli	t5,a0,0x30
    80005568:	01e845b3          	xor	a1,a6,t5
    8000556c:	0015f613          	andi	a2,a1,1
    80005570:	0062d393          	srli	t2,t0,0x6
    80005574:	001f5713          	srli	a4,t5,0x1
    80005578:	00060c63          	beqz	a2,80005590 <cmp_complex+0x44c>
    8000557c:	ffffaeb7          	lui	t4,0xffffa
    80005580:	001e8893          	addi	a7,t4,1 # ffffffffffffa001 <_pmem_end+0xffffffff77ffa001>
    80005584:	01174fb3          	xor	t6,a4,a7
    80005588:	030f9093          	slli	ra,t6,0x30
    8000558c:	0300d713          	srli	a4,ra,0x30
    80005590:	00e3c933          	xor	s2,t2,a4
    80005594:	00197693          	andi	a3,s2,1
    80005598:	0072d293          	srli	t0,t0,0x7
    8000559c:	00175513          	srli	a0,a4,0x1
    800055a0:	00068c63          	beqz	a3,800055b8 <cmp_complex+0x474>
    800055a4:	ffffa837          	lui	a6,0xffffa
    800055a8:	00180413          	addi	s0,a6,1 # ffffffffffffa001 <_pmem_end+0xffffffff77ffa001>
    800055ac:	008547b3          	xor	a5,a0,s0
    800055b0:	03079e13          	slli	t3,a5,0x30
    800055b4:	030e5513          	srli	a0,t3,0x30
    800055b8:	00157f13          	andi	t5,a0,1
    800055bc:	00155893          	srli	a7,a0,0x1
    800055c0:	005f0c63          	beq	t5,t0,800055d8 <cmp_complex+0x494>
    800055c4:	ffffa5b7          	lui	a1,0xffffa
    800055c8:	00158613          	addi	a2,a1,1 # ffffffffffffa001 <_pmem_end+0xffffffff77ffa001>
    800055cc:	00c8c3b3          	xor	t2,a7,a2
    800055d0:	03039e93          	slli	t4,t2,0x30
    800055d4:	030ed893          	srli	a7,t4,0x30
    800055d8:	00835f93          	srli	t6,t1,0x8
    800055dc:	011fc0b3          	xor	ra,t6,a7
    800055e0:	0010f913          	andi	s2,ra,1
    800055e4:	00935313          	srli	t1,t1,0x9
    800055e8:	0018d413          	srli	s0,a7,0x1
    800055ec:	00090c63          	beqz	s2,80005604 <cmp_complex+0x4c0>
    800055f0:	ffffa737          	lui	a4,0xffffa
    800055f4:	00170693          	addi	a3,a4,1 # ffffffffffffa001 <_pmem_end+0xffffffff77ffa001>
    800055f8:	00d442b3          	xor	t0,s0,a3
    800055fc:	03029813          	slli	a6,t0,0x30
    80005600:	03085413          	srli	s0,a6,0x30
    80005604:	008347b3          	xor	a5,t1,s0
    80005608:	0017fe13          	andi	t3,a5,1
    8000560c:	002fdf13          	srli	t5,t6,0x2
    80005610:	00145e93          	srli	t4,s0,0x1
    80005614:	000e0c63          	beqz	t3,8000562c <cmp_complex+0x4e8>
    80005618:	ffffa5b7          	lui	a1,0xffffa
    8000561c:	00158613          	addi	a2,a1,1 # ffffffffffffa001 <_pmem_end+0xffffffff77ffa001>
    80005620:	00cec533          	xor	a0,t4,a2
    80005624:	03051393          	slli	t2,a0,0x30
    80005628:	0303de93          	srli	t4,t2,0x30
    8000562c:	01df48b3          	xor	a7,t5,t4
    80005630:	0018f093          	andi	ra,a7,1
    80005634:	003fd913          	srli	s2,t6,0x3
    80005638:	001ed813          	srli	a6,t4,0x1
    8000563c:	00008c63          	beqz	ra,80005654 <cmp_complex+0x510>
    80005640:	ffffa337          	lui	t1,0xffffa
    80005644:	00130713          	addi	a4,t1,1 # ffffffffffffa001 <_pmem_end+0xffffffff77ffa001>
    80005648:	00e846b3          	xor	a3,a6,a4
    8000564c:	03069293          	slli	t0,a3,0x30
    80005650:	0302d813          	srli	a6,t0,0x30
    80005654:	01094433          	xor	s0,s2,a6
    80005658:	00147793          	andi	a5,s0,1
    8000565c:	004fde13          	srli	t3,t6,0x4
    80005660:	00185393          	srli	t2,a6,0x1
    80005664:	00078c63          	beqz	a5,8000567c <cmp_complex+0x538>
    80005668:	ffffaf37          	lui	t5,0xffffa
    8000566c:	001f0593          	addi	a1,t5,1 # ffffffffffffa001 <_pmem_end+0xffffffff77ffa001>
    80005670:	00b3c633          	xor	a2,t2,a1
    80005674:	03061513          	slli	a0,a2,0x30
    80005678:	03055393          	srli	t2,a0,0x30
    8000567c:	007e4eb3          	xor	t4,t3,t2
    80005680:	001ef893          	andi	a7,t4,1
    80005684:	005fd093          	srli	ra,t6,0x5
    80005688:	0013d293          	srli	t0,t2,0x1
    8000568c:	00088c63          	beqz	a7,800056a4 <cmp_complex+0x560>
    80005690:	ffffa937          	lui	s2,0xffffa
    80005694:	00190313          	addi	t1,s2,1 # ffffffffffffa001 <_pmem_end+0xffffffff77ffa001>
    80005698:	0062c733          	xor	a4,t0,t1
    8000569c:	03071693          	slli	a3,a4,0x30
    800056a0:	0306d293          	srli	t0,a3,0x30
    800056a4:	0050c833          	xor	a6,ra,t0
    800056a8:	00187413          	andi	s0,a6,1
    800056ac:	006fd793          	srli	a5,t6,0x6
    800056b0:	0012d513          	srli	a0,t0,0x1
    800056b4:	00040c63          	beqz	s0,800056cc <cmp_complex+0x588>
    800056b8:	ffffae37          	lui	t3,0xffffa
    800056bc:	001e0f13          	addi	t5,t3,1 # ffffffffffffa001 <_pmem_end+0xffffffff77ffa001>
    800056c0:	01e545b3          	xor	a1,a0,t5
    800056c4:	03059613          	slli	a2,a1,0x30
    800056c8:	03065513          	srli	a0,a2,0x30
    800056cc:	00a7c3b3          	xor	t2,a5,a0
    800056d0:	0013fe93          	andi	t4,t2,1
    800056d4:	007fdf93          	srli	t6,t6,0x7
    800056d8:	00155713          	srli	a4,a0,0x1
    800056dc:	000e8c63          	beqz	t4,800056f4 <cmp_complex+0x5b0>
    800056e0:	ffffa8b7          	lui	a7,0xffffa
    800056e4:	00188093          	addi	ra,a7,1 # ffffffffffffa001 <_pmem_end+0xffffffff77ffa001>
    800056e8:	00174933          	xor	s2,a4,ra
    800056ec:	03091313          	slli	t1,s2,0x30
    800056f0:	03035713          	srli	a4,t1,0x30
    800056f4:	00efc6b3          	xor	a3,t6,a4
    800056f8:	0016f293          	andi	t0,a3,1
    800056fc:	00175513          	srli	a0,a4,0x1
    80005700:	00028c63          	beqz	t0,80005718 <cmp_complex+0x5d4>
    80005704:	ffffa837          	lui	a6,0xffffa
    80005708:	00180413          	addi	s0,a6,1 # ffffffffffffa001 <_pmem_end+0xffffffff77ffa001>
    8000570c:	008547b3          	xor	a5,a0,s0
    80005710:	03079e13          	slli	t3,a5,0x30
    80005714:	030e5513          	srli	a0,t3,0x30
    80005718:	0644df03          	lhu	t5,100(s1)
    8000571c:	0105159b          	slliw	a1,a0,0x10
    80005720:	0604d403          	lhu	s0,96(s1)
    80005724:	4105d39b          	sraiw	t2,a1,0x10
    80005728:	000f1463          	bnez	t5,80005730 <cmp_complex+0x5ec>
    8000572c:	06a49223          	sh	a0,100(s1)
    80005730:	0ff3fe93          	zext.b	t4,t2
    80005734:	008ecfb3          	xor	t6,t4,s0
    80005738:	001ff893          	andi	a7,t6,1
    8000573c:	001ed093          	srli	ra,t4,0x1
    80005740:	00145293          	srli	t0,s0,0x1
    80005744:	00088c63          	beqz	a7,8000575c <cmp_complex+0x618>
    80005748:	ffffa937          	lui	s2,0xffffa
    8000574c:	00190313          	addi	t1,s2,1 # ffffffffffffa001 <_pmem_end+0xffffffff77ffa001>
    80005750:	0062c733          	xor	a4,t0,t1
    80005754:	03071693          	slli	a3,a4,0x30
    80005758:	0306d293          	srli	t0,a3,0x30
    8000575c:	0050c833          	xor	a6,ra,t0
    80005760:	00187e13          	andi	t3,a6,1
    80005764:	002edf13          	srli	t5,t4,0x2
    80005768:	0012df93          	srli	t6,t0,0x1
    8000576c:	000e0c63          	beqz	t3,80005784 <cmp_complex+0x640>
    80005770:	ffffa5b7          	lui	a1,0xffffa
    80005774:	00158413          	addi	s0,a1,1 # ffffffffffffa001 <_pmem_end+0xffffffff77ffa001>
    80005778:	008fc7b3          	xor	a5,t6,s0
    8000577c:	03079613          	slli	a2,a5,0x30
    80005780:	03065f93          	srli	t6,a2,0x30
    80005784:	01ff48b3          	xor	a7,t5,t6
    80005788:	0018f093          	andi	ra,a7,1
    8000578c:	003ed913          	srli	s2,t4,0x3
    80005790:	001fd813          	srli	a6,t6,0x1
    80005794:	00008c63          	beqz	ra,800057ac <cmp_complex+0x668>
    80005798:	ffffa337          	lui	t1,0xffffa
    8000579c:	00130713          	addi	a4,t1,1 # ffffffffffffa001 <_pmem_end+0xffffffff77ffa001>
    800057a0:	00e846b3          	xor	a3,a6,a4
    800057a4:	03069293          	slli	t0,a3,0x30
    800057a8:	0302d813          	srli	a6,t0,0x30
    800057ac:	01094e33          	xor	t3,s2,a6
    800057b0:	001e7f13          	andi	t5,t3,1
    800057b4:	004ed413          	srli	s0,t4,0x4
    800057b8:	00185893          	srli	a7,a6,0x1
    800057bc:	000f0c63          	beqz	t5,800057d4 <cmp_complex+0x690>
    800057c0:	ffffa5b7          	lui	a1,0xffffa
    800057c4:	00158613          	addi	a2,a1,1 # ffffffffffffa001 <_pmem_end+0xffffffff77ffa001>
    800057c8:	00c8c7b3          	xor	a5,a7,a2
    800057cc:	03079f93          	slli	t6,a5,0x30
    800057d0:	030fd893          	srli	a7,t6,0x30
    800057d4:	011440b3          	xor	ra,s0,a7
    800057d8:	0010f913          	andi	s2,ra,1
    800057dc:	005ed313          	srli	t1,t4,0x5
    800057e0:	0018de13          	srli	t3,a7,0x1
    800057e4:	00090c63          	beqz	s2,800057fc <cmp_complex+0x6b8>
    800057e8:	ffffa737          	lui	a4,0xffffa
    800057ec:	00170693          	addi	a3,a4,1 # ffffffffffffa001 <_pmem_end+0xffffffff77ffa001>
    800057f0:	00de42b3          	xor	t0,t3,a3
    800057f4:	03029813          	slli	a6,t0,0x30
    800057f8:	03085e13          	srli	t3,a6,0x30
    800057fc:	01c34f33          	xor	t5,t1,t3
    80005800:	001f7413          	andi	s0,t5,1
    80005804:	006ed613          	srli	a2,t4,0x6
    80005808:	001e5093          	srli	ra,t3,0x1
    8000580c:	00040c63          	beqz	s0,80005824 <cmp_complex+0x6e0>
    80005810:	ffffa5b7          	lui	a1,0xffffa
    80005814:	00158f93          	addi	t6,a1,1 # ffffffffffffa001 <_pmem_end+0xffffffff77ffa001>
    80005818:	01f0c7b3          	xor	a5,ra,t6
    8000581c:	03079893          	slli	a7,a5,0x30
    80005820:	0308d093          	srli	ra,a7,0x30
    80005824:	00164933          	xor	s2,a2,ra
    80005828:	00197313          	andi	t1,s2,1
    8000582c:	007ede93          	srli	t4,t4,0x7
    80005830:	0010de13          	srli	t3,ra,0x1
    80005834:	00030c63          	beqz	t1,8000584c <cmp_complex+0x708>
    80005838:	ffffa737          	lui	a4,0xffffa
    8000583c:	00170693          	addi	a3,a4,1 # ffffffffffffa001 <_pmem_end+0xffffffff77ffa001>
    80005840:	00de42b3          	xor	t0,t3,a3
    80005844:	03029813          	slli	a6,t0,0x30
    80005848:	03085e13          	srli	t3,a6,0x30
    8000584c:	001e7f13          	andi	t5,t3,1
    80005850:	001e5793          	srli	a5,t3,0x1
    80005854:	01df0c63          	beq	t5,t4,8000586c <cmp_complex+0x728>
    80005858:	ffffa437          	lui	s0,0xffffa
    8000585c:	00140613          	addi	a2,s0,1 # ffffffffffffa001 <_pmem_end+0xffffffff77ffa001>
    80005860:	00c7c5b3          	xor	a1,a5,a2
    80005864:	03059f93          	slli	t6,a1,0x30
    80005868:	030fd793          	srli	a5,t6,0x30
    8000586c:	0085551b          	srliw	a0,a0,0x8
    80005870:	0ff57893          	zext.b	a7,a0
    80005874:	00f8c0b3          	xor	ra,a7,a5
    80005878:	0010f913          	andi	s2,ra,1
    8000587c:	0018d313          	srli	t1,a7,0x1
    80005880:	0017d813          	srli	a6,a5,0x1
    80005884:	00090c63          	beqz	s2,8000589c <cmp_complex+0x758>
    80005888:	ffffaeb7          	lui	t4,0xffffa
    8000588c:	001e8713          	addi	a4,t4,1 # ffffffffffffa001 <_pmem_end+0xffffffff77ffa001>
    80005890:	00e846b3          	xor	a3,a6,a4
    80005894:	03069293          	slli	t0,a3,0x30
    80005898:	0302d813          	srli	a6,t0,0x30
    8000589c:	01034e33          	xor	t3,t1,a6
    800058a0:	001e7f13          	andi	t5,t3,1
    800058a4:	0028d413          	srli	s0,a7,0x2
    800058a8:	00185513          	srli	a0,a6,0x1
    800058ac:	000f0c63          	beqz	t5,800058c4 <cmp_complex+0x780>
    800058b0:	ffffa637          	lui	a2,0xffffa
    800058b4:	00160593          	addi	a1,a2,1 # ffffffffffffa001 <_pmem_end+0xffffffff77ffa001>
    800058b8:	00b54fb3          	xor	t6,a0,a1
    800058bc:	030f9793          	slli	a5,t6,0x30
    800058c0:	0307d513          	srli	a0,a5,0x30
    800058c4:	00a440b3          	xor	ra,s0,a0
    800058c8:	0010f913          	andi	s2,ra,1
    800058cc:	0038d313          	srli	t1,a7,0x3
    800058d0:	00155813          	srli	a6,a0,0x1
    800058d4:	00090c63          	beqz	s2,800058ec <cmp_complex+0x7a8>
    800058d8:	ffffaeb7          	lui	t4,0xffffa
    800058dc:	001e8713          	addi	a4,t4,1 # ffffffffffffa001 <_pmem_end+0xffffffff77ffa001>
    800058e0:	00e846b3          	xor	a3,a6,a4
    800058e4:	03069293          	slli	t0,a3,0x30
    800058e8:	0302d813          	srli	a6,t0,0x30
    800058ec:	01034e33          	xor	t3,t1,a6
    800058f0:	001e7f13          	andi	t5,t3,1
    800058f4:	0048d413          	srli	s0,a7,0x4
    800058f8:	00185513          	srli	a0,a6,0x1
    800058fc:	000f0c63          	beqz	t5,80005914 <cmp_complex+0x7d0>
    80005900:	ffffa637          	lui	a2,0xffffa
    80005904:	00160593          	addi	a1,a2,1 # ffffffffffffa001 <_pmem_end+0xffffffff77ffa001>
    80005908:	00b54fb3          	xor	t6,a0,a1
    8000590c:	030f9793          	slli	a5,t6,0x30
    80005910:	0307d513          	srli	a0,a5,0x30
    80005914:	00a440b3          	xor	ra,s0,a0
    80005918:	0010f913          	andi	s2,ra,1
    8000591c:	0058d313          	srli	t1,a7,0x5
    80005920:	00155813          	srli	a6,a0,0x1
    80005924:	00090c63          	beqz	s2,8000593c <cmp_complex+0x7f8>
    80005928:	ffffaeb7          	lui	t4,0xffffa
    8000592c:	001e8713          	addi	a4,t4,1 # ffffffffffffa001 <_pmem_end+0xffffffff77ffa001>
    80005930:	00e846b3          	xor	a3,a6,a4
    80005934:	03069293          	slli	t0,a3,0x30
    80005938:	0302d813          	srli	a6,t0,0x30
    8000593c:	01034e33          	xor	t3,t1,a6
    80005940:	001e7f13          	andi	t5,t3,1
    80005944:	0068d413          	srli	s0,a7,0x6
    80005948:	00185093          	srli	ra,a6,0x1
    8000594c:	000f0c63          	beqz	t5,80005964 <cmp_complex+0x820>
    80005950:	ffffa637          	lui	a2,0xffffa
    80005954:	00160593          	addi	a1,a2,1 # ffffffffffffa001 <_pmem_end+0xffffffff77ffa001>
    80005958:	00b0cfb3          	xor	t6,ra,a1
    8000595c:	030f9793          	slli	a5,t6,0x30
    80005960:	0307d093          	srli	ra,a5,0x30
    80005964:	00144533          	xor	a0,s0,ra
    80005968:	00157913          	andi	s2,a0,1
    8000596c:	0078d893          	srli	a7,a7,0x7
    80005970:	0010d293          	srli	t0,ra,0x1
    80005974:	00090c63          	beqz	s2,8000598c <cmp_complex+0x848>
    80005978:	ffffa337          	lui	t1,0xffffa
    8000597c:	00130e93          	addi	t4,t1,1 # ffffffffffffa001 <_pmem_end+0xffffffff77ffa001>
    80005980:	01d2c733          	xor	a4,t0,t4
    80005984:	03071693          	slli	a3,a4,0x30
    80005988:	0306d293          	srli	t0,a3,0x30
    8000598c:	0012f813          	andi	a6,t0,1
    80005990:	0012d593          	srli	a1,t0,0x1
    80005994:	01180c63          	beq	a6,a7,800059ac <cmp_complex+0x868>
    80005998:	ffffae37          	lui	t3,0xffffa
    8000599c:	001e0f13          	addi	t5,t3,1 # ffffffffffffa001 <_pmem_end+0xffffffff77ffa001>
    800059a0:	01e5c433          	xor	s0,a1,t5
    800059a4:	03041613          	slli	a2,s0,0x30
    800059a8:	03065593          	srli	a1,a2,0x30
    800059ac:	07f3f393          	andi	t2,t2,127
    800059b0:	f00afa93          	andi	s5,s5,-256
    800059b4:	0153efb3          	or	t6,t2,s5
    800059b8:	06b49023          	sh	a1,96(s1)
    800059bc:	080fe493          	ori	s1,t6,128
    800059c0:	00999023          	sh	s1,0(s3)
    800059c4:	03813083          	ld	ra,56(sp)
    800059c8:	03013403          	ld	s0,48(sp)
    800059cc:	02813483          	ld	s1,40(sp)
    800059d0:	02013903          	ld	s2,32(sp)
    800059d4:	01813983          	ld	s3,24(sp)
    800059d8:	00813a83          	ld	s5,8(sp)
    800059dc:	407a053b          	subw	a0,s4,t2
    800059e0:	01013a03          	ld	s4,16(sp)
    800059e4:	04010113          	addi	sp,sp,64
    800059e8:	00008067          	ret
    800059ec:	030a9613          	slli	a2,s5,0x30
    800059f0:	03065513          	srli	a0,a2,0x30
    800059f4:	000a8393          	mv	t2,s5
    800059f8:	d39ff06f          	j	80005730 <cmp_complex+0x5ec>
    800059fc:	02200393          	li	t2,34
    80005a00:	00070e93          	mv	t4,a4
    80005a04:	00775463          	bge	a4,t2,80005a0c <cmp_complex+0x8c8>
    80005a08:	02200e93          	li	t4,34
    80005a0c:	00249683          	lh	a3,2(s1)
    80005a10:	00049603          	lh	a2,0(s1)
    80005a14:	0204b583          	ld	a1,32(s1)
    80005a18:	0284a503          	lw	a0,40(s1)
    80005a1c:	00040793          	mv	a5,s0
    80005a20:	0ffef713          	zext.b	a4,t4
    80005a24:	c38fe0ef          	jal	ra,80003e5c <core_bench_state>
    80005a28:	0664d883          	lhu	a7,102(s1)
    80005a2c:	01051f9b          	slliw	t6,a0,0x10
    80005a30:	0604d403          	lhu	s0,96(s1)
    80005a34:	410fd39b          	sraiw	t2,t6,0x10
    80005a38:	ce089ce3          	bnez	a7,80005730 <cmp_complex+0x5ec>
    80005a3c:	06a49323          	sh	a0,102(s1)
    80005a40:	cf1ff06f          	j	80005730 <cmp_complex+0x5ec>
    80005a44:	02200393          	li	t2,34
    80005a48:	00070813          	mv	a6,a4
    80005a4c:	00775463          	bge	a4,t2,80005a54 <cmp_complex+0x910>
    80005a50:	02200813          	li	a6,34
    80005a54:	0204b583          	ld	a1,32(s1)
    80005a58:	00249683          	lh	a3,2(s1)
    80005a5c:	00049603          	lh	a2,0(s1)
    80005a60:	0284a503          	lw	a0,40(s1)
    80005a64:	000a0793          	mv	a5,s4
    80005a68:	0ff87713          	zext.b	a4,a6
    80005a6c:	bf0fe0ef          	jal	ra,80003e5c <core_bench_state>
    80005a70:	0664d583          	lhu	a1,102(s1)
    80005a74:	01051a1b          	slliw	s4,a0,0x10
    80005a78:	410a531b          	sraiw	t1,s4,0x10
    80005a7c:	0604da03          	lhu	s4,96(s1)
    80005a80:	f2059a63          	bnez	a1,800051b4 <cmp_complex+0x70>
    80005a84:	06a49323          	sh	a0,102(s1)
    80005a88:	f2cff06f          	j	800051b4 <cmp_complex+0x70>
    80005a8c:	05063683          	ld	a3,80(a2)
    80005a90:	0584b583          	ld	a1,88(s1)
    80005a94:	04863603          	ld	a2,72(a2)
    80005a98:	0404a503          	lw	a0,64(s1)
    80005a9c:	df1fa0ef          	jal	ra,8000088c <matrix_test>
    80005aa0:	0ff57893          	zext.b	a7,a0
    80005aa4:	0148c633          	xor	a2,a7,s4
    80005aa8:	03051e93          	slli	t4,a0,0x30
    80005aac:	00167e13          	andi	t3,a2,1
    80005ab0:	030edf13          	srli	t5,t4,0x30
    80005ab4:	0018df93          	srli	t6,a7,0x1
    80005ab8:	001a5293          	srli	t0,s4,0x1
    80005abc:	000e0c63          	beqz	t3,80005ad4 <cmp_complex+0x990>
    80005ac0:	ffffa437          	lui	s0,0xffffa
    80005ac4:	00140793          	addi	a5,s0,1 # ffffffffffffa001 <_pmem_end+0xffffffff77ffa001>
    80005ac8:	00f2c0b3          	xor	ra,t0,a5
    80005acc:	03009713          	slli	a4,ra,0x30
    80005ad0:	03075293          	srli	t0,a4,0x30
    80005ad4:	005fc6b3          	xor	a3,t6,t0
    80005ad8:	0016f313          	andi	t1,a3,1
    80005adc:	0028d393          	srli	t2,a7,0x2
    80005ae0:	0012de13          	srli	t3,t0,0x1
    80005ae4:	00030c63          	beqz	t1,80005afc <cmp_complex+0x9b8>
    80005ae8:	ffffa837          	lui	a6,0xffffa
    80005aec:	00180593          	addi	a1,a6,1 # ffffffffffffa001 <_pmem_end+0xffffffff77ffa001>
    80005af0:	00be4a33          	xor	s4,t3,a1
    80005af4:	030a1513          	slli	a0,s4,0x30
    80005af8:	03055e13          	srli	t3,a0,0x30
    80005afc:	01c3c633          	xor	a2,t2,t3
    80005b00:	00167e93          	andi	t4,a2,1
    80005b04:	0038df93          	srli	t6,a7,0x3
    80005b08:	001e5293          	srli	t0,t3,0x1
    80005b0c:	000e8c63          	beqz	t4,80005b24 <cmp_complex+0x9e0>
    80005b10:	ffffa437          	lui	s0,0xffffa
    80005b14:	00140793          	addi	a5,s0,1 # ffffffffffffa001 <_pmem_end+0xffffffff77ffa001>
    80005b18:	00f2c0b3          	xor	ra,t0,a5
    80005b1c:	03009713          	slli	a4,ra,0x30
    80005b20:	03075293          	srli	t0,a4,0x30
    80005b24:	005fc6b3          	xor	a3,t6,t0
    80005b28:	0016f313          	andi	t1,a3,1
    80005b2c:	0048d393          	srli	t2,a7,0x4
    80005b30:	0012de13          	srli	t3,t0,0x1
    80005b34:	00030c63          	beqz	t1,80005b4c <cmp_complex+0xa08>
    80005b38:	ffffa837          	lui	a6,0xffffa
    80005b3c:	00180593          	addi	a1,a6,1 # ffffffffffffa001 <_pmem_end+0xffffffff77ffa001>
    80005b40:	00be4a33          	xor	s4,t3,a1
    80005b44:	030a1513          	slli	a0,s4,0x30
    80005b48:	03055e13          	srli	t3,a0,0x30
    80005b4c:	01c3c633          	xor	a2,t2,t3
    80005b50:	00167e93          	andi	t4,a2,1
    80005b54:	0058df93          	srli	t6,a7,0x5
    80005b58:	001e5293          	srli	t0,t3,0x1
    80005b5c:	000e8c63          	beqz	t4,80005b74 <cmp_complex+0xa30>
    80005b60:	ffffa437          	lui	s0,0xffffa
    80005b64:	00140793          	addi	a5,s0,1 # ffffffffffffa001 <_pmem_end+0xffffffff77ffa001>
    80005b68:	00f2c0b3          	xor	ra,t0,a5
    80005b6c:	03009713          	slli	a4,ra,0x30
    80005b70:	03075293          	srli	t0,a4,0x30
    80005b74:	005fc6b3          	xor	a3,t6,t0
    80005b78:	0016f313          	andi	t1,a3,1
    80005b7c:	0068d393          	srli	t2,a7,0x6
    80005b80:	0012de13          	srli	t3,t0,0x1
    80005b84:	00030c63          	beqz	t1,80005b9c <cmp_complex+0xa58>
    80005b88:	ffffa837          	lui	a6,0xffffa
    80005b8c:	00180593          	addi	a1,a6,1 # ffffffffffffa001 <_pmem_end+0xffffffff77ffa001>
    80005b90:	00be4a33          	xor	s4,t3,a1
    80005b94:	030a1513          	slli	a0,s4,0x30
    80005b98:	03055e13          	srli	t3,a0,0x30
    80005b9c:	01c3c633          	xor	a2,t2,t3
    80005ba0:	00167e93          	andi	t4,a2,1
    80005ba4:	0078d893          	srli	a7,a7,0x7
    80005ba8:	001e5713          	srli	a4,t3,0x1
    80005bac:	000e8c63          	beqz	t4,80005bc4 <cmp_complex+0xa80>
    80005bb0:	ffffafb7          	lui	t6,0xffffa
    80005bb4:	001f8413          	addi	s0,t6,1 # ffffffffffffa001 <_pmem_end+0xffffffff77ffa001>
    80005bb8:	008747b3          	xor	a5,a4,s0
    80005bbc:	03079093          	slli	ra,a5,0x30
    80005bc0:	0300d713          	srli	a4,ra,0x30
    80005bc4:	00177293          	andi	t0,a4,1
    80005bc8:	00175593          	srli	a1,a4,0x1
    80005bcc:	01128c63          	beq	t0,a7,80005be4 <cmp_complex+0xaa0>
    80005bd0:	ffffa6b7          	lui	a3,0xffffa
    80005bd4:	00168313          	addi	t1,a3,1 # ffffffffffffa001 <_pmem_end+0xffffffff77ffa001>
    80005bd8:	0065c3b3          	xor	t2,a1,t1
    80005bdc:	03039813          	slli	a6,t2,0x30
    80005be0:	03085593          	srli	a1,a6,0x30
    80005be4:	008f5a13          	srli	s4,t5,0x8
    80005be8:	00ba4533          	xor	a0,s4,a1
    80005bec:	00157e13          	andi	t3,a0,1
    80005bf0:	009f5f13          	srli	t5,t5,0x9
    80005bf4:	0015d413          	srli	s0,a1,0x1
    80005bf8:	000e0c63          	beqz	t3,80005c10 <cmp_complex+0xacc>
    80005bfc:	ffffa637          	lui	a2,0xffffa
    80005c00:	00160e93          	addi	t4,a2,1 # ffffffffffffa001 <_pmem_end+0xffffffff77ffa001>
    80005c04:	01d448b3          	xor	a7,s0,t4
    80005c08:	03089f93          	slli	t6,a7,0x30
    80005c0c:	030fd413          	srli	s0,t6,0x30
    80005c10:	008f47b3          	xor	a5,t5,s0
    80005c14:	0017f093          	andi	ra,a5,1
    80005c18:	002a5293          	srli	t0,s4,0x2
    80005c1c:	00145813          	srli	a6,s0,0x1
    80005c20:	00008c63          	beqz	ra,80005c38 <cmp_complex+0xaf4>
    80005c24:	ffffa737          	lui	a4,0xffffa
    80005c28:	00170693          	addi	a3,a4,1 # ffffffffffffa001 <_pmem_end+0xffffffff77ffa001>
    80005c2c:	00d84333          	xor	t1,a6,a3
    80005c30:	03031393          	slli	t2,t1,0x30
    80005c34:	0303d813          	srli	a6,t2,0x30
    80005c38:	0102c5b3          	xor	a1,t0,a6
    80005c3c:	0015fe13          	andi	t3,a1,1
    80005c40:	003a5f13          	srli	t5,s4,0x3
    80005c44:	00185f93          	srli	t6,a6,0x1
    80005c48:	000e0c63          	beqz	t3,80005c60 <cmp_complex+0xb1c>
    80005c4c:	ffffa637          	lui	a2,0xffffa
    80005c50:	00160e93          	addi	t4,a2,1 # ffffffffffffa001 <_pmem_end+0xffffffff77ffa001>
    80005c54:	01dfc533          	xor	a0,t6,t4
    80005c58:	03051893          	slli	a7,a0,0x30
    80005c5c:	0308df93          	srli	t6,a7,0x30
    80005c60:	01ff4433          	xor	s0,t5,t6
    80005c64:	00147793          	andi	a5,s0,1
    80005c68:	004a5093          	srli	ra,s4,0x4
    80005c6c:	001fd393          	srli	t2,t6,0x1
    80005c70:	00078c63          	beqz	a5,80005c88 <cmp_complex+0xb44>
    80005c74:	ffffa2b7          	lui	t0,0xffffa
    80005c78:	00128713          	addi	a4,t0,1 # ffffffffffffa001 <_pmem_end+0xffffffff77ffa001>
    80005c7c:	00e3c6b3          	xor	a3,t2,a4
    80005c80:	03069313          	slli	t1,a3,0x30
    80005c84:	03035393          	srli	t2,t1,0x30
    80005c88:	0070c833          	xor	a6,ra,t2
    80005c8c:	00187593          	andi	a1,a6,1
    80005c90:	005a5e13          	srli	t3,s4,0x5
    80005c94:	0013d893          	srli	a7,t2,0x1
    80005c98:	00058c63          	beqz	a1,80005cb0 <cmp_complex+0xb6c>
    80005c9c:	ffffaf37          	lui	t5,0xffffa
    80005ca0:	001f0613          	addi	a2,t5,1 # ffffffffffffa001 <_pmem_end+0xffffffff77ffa001>
    80005ca4:	00c8ceb3          	xor	t4,a7,a2
    80005ca8:	030e9513          	slli	a0,t4,0x30
    80005cac:	03055893          	srli	a7,a0,0x30
    80005cb0:	011e4fb3          	xor	t6,t3,a7
    80005cb4:	001ff413          	andi	s0,t6,1
    80005cb8:	006a5793          	srli	a5,s4,0x6
    80005cbc:	0018d313          	srli	t1,a7,0x1
    80005cc0:	00040c63          	beqz	s0,80005cd8 <cmp_complex+0xb94>
    80005cc4:	ffffa0b7          	lui	ra,0xffffa
    80005cc8:	00108293          	addi	t0,ra,1 # ffffffffffffa001 <_pmem_end+0xffffffff77ffa001>
    80005ccc:	00534733          	xor	a4,t1,t0
    80005cd0:	03071693          	slli	a3,a4,0x30
    80005cd4:	0306d313          	srli	t1,a3,0x30
    80005cd8:	0067c3b3          	xor	t2,a5,t1
    80005cdc:	0013f813          	andi	a6,t2,1
    80005ce0:	007a5a13          	srli	s4,s4,0x7
    80005ce4:	00135e93          	srli	t4,t1,0x1
    80005ce8:	00080c63          	beqz	a6,80005d00 <cmp_complex+0xbbc>
    80005cec:	ffffa5b7          	lui	a1,0xffffa
    80005cf0:	00158e13          	addi	t3,a1,1 # ffffffffffffa001 <_pmem_end+0xffffffff77ffa001>
    80005cf4:	01cecf33          	xor	t5,t4,t3
    80005cf8:	030f1613          	slli	a2,t5,0x30
    80005cfc:	03065e93          	srli	t4,a2,0x30
    80005d00:	01da4533          	xor	a0,s4,t4
    80005d04:	00157893          	andi	a7,a0,1
    80005d08:	001ed513          	srli	a0,t4,0x1
    80005d0c:	00088c63          	beqz	a7,80005d24 <cmp_complex+0xbe0>
    80005d10:	ffffafb7          	lui	t6,0xffffa
    80005d14:	001f8413          	addi	s0,t6,1 # ffffffffffffa001 <_pmem_end+0xffffffff77ffa001>
    80005d18:	008547b3          	xor	a5,a0,s0
    80005d1c:	03079093          	slli	ra,a5,0x30
    80005d20:	0300d513          	srli	a0,ra,0x30
    80005d24:	0644d283          	lhu	t0,100(s1)
    80005d28:	0105171b          	slliw	a4,a0,0x10
    80005d2c:	0604da03          	lhu	s4,96(s1)
    80005d30:	4107531b          	sraiw	t1,a4,0x10
    80005d34:	c8029063          	bnez	t0,800051b4 <cmp_complex+0x70>
    80005d38:	06a49223          	sh	a0,100(s1)
    80005d3c:	c78ff06f          	j	800051b4 <cmp_complex+0x70>

0000000080005d40 <core_bench_list>:
    80005d40:	00451e03          	lh	t3,4(a0)
    80005d44:	f9010113          	addi	sp,sp,-112
    80005d48:	06813023          	sd	s0,96(sp)
    80005d4c:	03813023          	sd	s8,32(sp)
    80005d50:	01b13423          	sd	s11,8(sp)
    80005d54:	06113423          	sd	ra,104(sp)
    80005d58:	04913c23          	sd	s1,88(sp)
    80005d5c:	05213823          	sd	s2,80(sp)
    80005d60:	05313423          	sd	s3,72(sp)
    80005d64:	05413023          	sd	s4,64(sp)
    80005d68:	03513c23          	sd	s5,56(sp)
    80005d6c:	03613823          	sd	s6,48(sp)
    80005d70:	03713423          	sd	s7,40(sp)
    80005d74:	01913c23          	sd	s9,24(sp)
    80005d78:	01a13823          	sd	s10,16(sp)
    80005d7c:	03853403          	ld	s0,56(a0)
    80005d80:	00050d93          	mv	s11,a0
    80005d84:	00058813          	mv	a6,a1
    80005d88:	00058c13          	mv	s8,a1
    80005d8c:	17c052e3          	blez	t3,800066f0 <core_bench_list+0x9b0>
    80005d90:	00000593          	li	a1,0
    80005d94:	00000313          	li	t1,0
    80005d98:	00000a93          	li	s5,0
    80005d9c:	00000f93          	li	t6,0
    80005da0:	0ff5fc93          	zext.b	s9,a1
    80005da4:	000c061b          	sext.w	a2,s8
    80005da8:	4e0c4463          	bltz	s8,80006290 <core_bench_list+0x550>
    80005dac:	140408e3          	beqz	s0,800066fc <core_bench_list+0x9bc>
    80005db0:	00040793          	mv	a5,s0
    80005db4:	00c0006f          	j	80005dc0 <core_bench_list+0x80>
    80005db8:	0007b783          	ld	a5,0(a5)
    80005dbc:	00078863          	beqz	a5,80005dcc <core_bench_list+0x8c>
    80005dc0:	0087b283          	ld	t0,8(a5)
    80005dc4:	00229383          	lh	t2,2(t0)
    80005dc8:	fec398e3          	bne	t2,a2,80005db8 <core_bench_list+0x78>
    80005dcc:	00040493          	mv	s1,s0
    80005dd0:	00000913          	li	s2,0
    80005dd4:	0080006f          	j	80005ddc <core_bench_list+0x9c>
    80005dd8:	00040913          	mv	s2,s0
    80005ddc:	00048413          	mv	s0,s1
    80005de0:	0004b483          	ld	s1,0(s1)
    80005de4:	01243023          	sd	s2,0(s0)
    80005de8:	fe0498e3          	bnez	s1,80005dd8 <core_bench_list+0x98>
    80005dec:	4c078663          	beqz	a5,800062b8 <core_bench_list+0x578>
    80005df0:	0087b983          	ld	s3,8(a5)
    80005df4:	001a851b          	addiw	a0,s5,1
    80005df8:	03051a13          	slli	s4,a0,0x30
    80005dfc:	00099b03          	lh	s6,0(s3)
    80005e00:	030a5a93          	srli	s5,s4,0x30
    80005e04:	001b7b93          	andi	s7,s6,1
    80005e08:	000b8c63          	beqz	s7,80005e20 <core_bench_list+0xe0>
    80005e0c:	409b5d1b          	sraiw	s10,s6,0x9
    80005e10:	001d7e93          	andi	t4,s10,1
    80005e14:	01fe88bb          	addw	a7,t4,t6
    80005e18:	03089f13          	slli	t5,a7,0x30
    80005e1c:	030f5f93          	srli	t6,t5,0x30
    80005e20:	0007b703          	ld	a4,0(a5)
    80005e24:	00070c63          	beqz	a4,80005e3c <core_bench_list+0xfc>
    80005e28:	00073083          	ld	ra,0(a4)
    80005e2c:	0017b023          	sd	ra,0(a5)
    80005e30:	00043683          	ld	a3,0(s0)
    80005e34:	00d73023          	sd	a3,0(a4)
    80005e38:	00e43023          	sd	a4,0(s0)
    80005e3c:	00064863          	bltz	a2,80005e4c <core_bench_list+0x10c>
    80005e40:	001c0c1b          	addiw	s8,s8,1
    80005e44:	010c161b          	slliw	a2,s8,0x10
    80005e48:	41065c1b          	sraiw	s8,a2,0x10
    80005e4c:	0015859b          	addiw	a1,a1,1
    80005e50:	0105951b          	slliw	a0,a1,0x10
    80005e54:	4105559b          	sraiw	a1,a0,0x10
    80005e58:	f4be14e3          	bne	t3,a1,80005da0 <core_bench_list+0x60>
    80005e5c:	002a9e1b          	slliw	t3,s5,0x2
    80005e60:	406e0a3b          	subw	s4,t3,t1
    80005e64:	01fa0abb          	addw	s5,s4,t6
    80005e68:	030a9b13          	slli	s6,s5,0x30
    80005e6c:	030b5493          	srli	s1,s6,0x30
    80005e70:	71004c63          	bgtz	a6,80006588 <core_bench_list+0x848>
    80005e74:	00043d83          	ld	s11,0(s0)
    80005e78:	000c029b          	sext.w	t0,s8
    80005e7c:	00040793          	mv	a5,s0
    80005e80:	000db503          	ld	a0,0(s11)
    80005e84:	008dba83          	ld	s5,8(s11)
    80005e88:	000c861b          	sext.w	a2,s9
    80005e8c:	00853b83          	ld	s7,8(a0)
    80005e90:	00053683          	ld	a3,0(a0)
    80005e94:	017db423          	sd	s7,8(s11)
    80005e98:	01553423          	sd	s5,8(a0)
    80005e9c:	00ddb023          	sd	a3,0(s11)
    80005ea0:	00053023          	sd	zero,0(a0)
    80005ea4:	3a0c4c63          	bltz	s8,8000625c <core_bench_list+0x51c>
    80005ea8:	0087bc83          	ld	s9,8(a5)
    80005eac:	00078d13          	mv	s10,a5
    80005eb0:	0007b783          	ld	a5,0(a5)
    80005eb4:	002c9303          	lh	t1,2(s9)
    80005eb8:	3c530863          	beq	t1,t0,80006288 <core_bench_list+0x548>
    80005ebc:	fe0796e3          	bnez	a5,80005ea8 <core_bench_list+0x168>
    80005ec0:	00043583          	ld	a1,0(s0)
    80005ec4:	00058d13          	mv	s10,a1
    80005ec8:	20058c63          	beqz	a1,800060e0 <core_bench_list+0x3a0>
    80005ecc:	00843c03          	ld	s8,8(s0)
    80005ed0:	ffffae37          	lui	t3,0xffffa
    80005ed4:	001e0713          	addi	a4,t3,1 # ffffffffffffa001 <_pmem_end+0xffffffff77ffa001>
    80005ed8:	000c1a03          	lh	s4,0(s8)
    80005edc:	008a5813          	srli	a6,s4,0x8
    80005ee0:	0ffa7093          	zext.b	ra,s4
    80005ee4:	0ff87d93          	zext.b	s11,a6
    80005ee8:	0010db93          	srli	s7,ra,0x1
    80005eec:	0020db13          	srli	s6,ra,0x2
    80005ef0:	0030d693          	srli	a3,ra,0x3
    80005ef4:	0040d993          	srli	s3,ra,0x4
    80005ef8:	0050dc93          	srli	s9,ra,0x5
    80005efc:	0060d393          	srli	t2,ra,0x6
    80005f00:	0070d293          	srli	t0,ra,0x7
    80005f04:	001ddf93          	srli	t6,s11,0x1
    80005f08:	002ddf13          	srli	t5,s11,0x2
    80005f0c:	003dde93          	srli	t4,s11,0x3
    80005f10:	004dd793          	srli	a5,s11,0x4
    80005f14:	005dd313          	srli	t1,s11,0x5
    80005f18:	006dd893          	srli	a7,s11,0x6
    80005f1c:	007dd913          	srli	s2,s11,0x7
    80005f20:	0090c633          	xor	a2,ra,s1
    80005f24:	00167c13          	andi	s8,a2,1
    80005f28:	0014da13          	srli	s4,s1,0x1
    80005f2c:	000c0863          	beqz	s8,80005f3c <core_bench_list+0x1fc>
    80005f30:	00ea44b3          	xor	s1,s4,a4
    80005f34:	03049e13          	slli	t3,s1,0x30
    80005f38:	030e5a13          	srli	s4,t3,0x30
    80005f3c:	014bc833          	xor	a6,s7,s4
    80005f40:	00187613          	andi	a2,a6,1
    80005f44:	001a5e13          	srli	t3,s4,0x1
    80005f48:	00060863          	beqz	a2,80005f58 <core_bench_list+0x218>
    80005f4c:	00ee4c33          	xor	s8,t3,a4
    80005f50:	030c1493          	slli	s1,s8,0x30
    80005f54:	0304de13          	srli	t3,s1,0x30
    80005f58:	01cb4a33          	xor	s4,s6,t3
    80005f5c:	001a7813          	andi	a6,s4,1
    80005f60:	001e5493          	srli	s1,t3,0x1
    80005f64:	00080863          	beqz	a6,80005f74 <core_bench_list+0x234>
    80005f68:	00e4c633          	xor	a2,s1,a4
    80005f6c:	03061c13          	slli	s8,a2,0x30
    80005f70:	030c5493          	srli	s1,s8,0x30
    80005f74:	0096ce33          	xor	t3,a3,s1
    80005f78:	001e7a13          	andi	s4,t3,1
    80005f7c:	0014d493          	srli	s1,s1,0x1
    80005f80:	000a0863          	beqz	s4,80005f90 <core_bench_list+0x250>
    80005f84:	00e4c833          	xor	a6,s1,a4
    80005f88:	03081613          	slli	a2,a6,0x30
    80005f8c:	03065493          	srli	s1,a2,0x30
    80005f90:	0099cc33          	xor	s8,s3,s1
    80005f94:	001c7e13          	andi	t3,s8,1
    80005f98:	0014d613          	srli	a2,s1,0x1
    80005f9c:	000e0863          	beqz	t3,80005fac <core_bench_list+0x26c>
    80005fa0:	00e64a33          	xor	s4,a2,a4
    80005fa4:	030a1813          	slli	a6,s4,0x30
    80005fa8:	03085613          	srli	a2,a6,0x30
    80005fac:	00ccc4b3          	xor	s1,s9,a2
    80005fb0:	0014fc13          	andi	s8,s1,1
    80005fb4:	00165813          	srli	a6,a2,0x1
    80005fb8:	000c0863          	beqz	s8,80005fc8 <core_bench_list+0x288>
    80005fbc:	00e84e33          	xor	t3,a6,a4
    80005fc0:	030e1a13          	slli	s4,t3,0x30
    80005fc4:	030a5813          	srli	a6,s4,0x30
    80005fc8:	0103c633          	xor	a2,t2,a6
    80005fcc:	00167c13          	andi	s8,a2,1
    80005fd0:	00185a13          	srli	s4,a6,0x1
    80005fd4:	000c0863          	beqz	s8,80005fe4 <core_bench_list+0x2a4>
    80005fd8:	00ea44b3          	xor	s1,s4,a4
    80005fdc:	03049e13          	slli	t3,s1,0x30
    80005fe0:	030e5a13          	srli	s4,t3,0x30
    80005fe4:	001a7813          	andi	a6,s4,1
    80005fe8:	001a5493          	srli	s1,s4,0x1
    80005fec:	00580863          	beq	a6,t0,80005ffc <core_bench_list+0x2bc>
    80005ff0:	00e4c633          	xor	a2,s1,a4
    80005ff4:	03061c13          	slli	s8,a2,0x30
    80005ff8:	030c5493          	srli	s1,s8,0x30
    80005ffc:	009dce33          	xor	t3,s11,s1
    80006000:	001e7a13          	andi	s4,t3,1
    80006004:	0014d493          	srli	s1,s1,0x1
    80006008:	000a0863          	beqz	s4,80006018 <core_bench_list+0x2d8>
    8000600c:	00e4c833          	xor	a6,s1,a4
    80006010:	03081613          	slli	a2,a6,0x30
    80006014:	03065493          	srli	s1,a2,0x30
    80006018:	009fcc33          	xor	s8,t6,s1
    8000601c:	001c7e13          	andi	t3,s8,1
    80006020:	0014d613          	srli	a2,s1,0x1
    80006024:	000e0863          	beqz	t3,80006034 <core_bench_list+0x2f4>
    80006028:	00e64a33          	xor	s4,a2,a4
    8000602c:	030a1813          	slli	a6,s4,0x30
    80006030:	03085613          	srli	a2,a6,0x30
    80006034:	00cf44b3          	xor	s1,t5,a2
    80006038:	0014fc13          	andi	s8,s1,1
    8000603c:	00165813          	srli	a6,a2,0x1
    80006040:	000c0863          	beqz	s8,80006050 <core_bench_list+0x310>
    80006044:	00e84e33          	xor	t3,a6,a4
    80006048:	030e1a13          	slli	s4,t3,0x30
    8000604c:	030a5813          	srli	a6,s4,0x30
    80006050:	010ec633          	xor	a2,t4,a6
    80006054:	00167c13          	andi	s8,a2,1
    80006058:	00185a13          	srli	s4,a6,0x1
    8000605c:	000c0863          	beqz	s8,8000606c <core_bench_list+0x32c>
    80006060:	00ea44b3          	xor	s1,s4,a4
    80006064:	03049e13          	slli	t3,s1,0x30
    80006068:	030e5a13          	srli	s4,t3,0x30
    8000606c:	0147c833          	xor	a6,a5,s4
    80006070:	00187613          	andi	a2,a6,1
    80006074:	001a5e13          	srli	t3,s4,0x1
    80006078:	00060863          	beqz	a2,80006088 <core_bench_list+0x348>
    8000607c:	00ee4c33          	xor	s8,t3,a4
    80006080:	030c1493          	slli	s1,s8,0x30
    80006084:	0304de13          	srli	t3,s1,0x30
    80006088:	01c34a33          	xor	s4,t1,t3
    8000608c:	001a7813          	andi	a6,s4,1
    80006090:	001e5493          	srli	s1,t3,0x1
    80006094:	00080863          	beqz	a6,800060a4 <core_bench_list+0x364>
    80006098:	00e4c633          	xor	a2,s1,a4
    8000609c:	03061c13          	slli	s8,a2,0x30
    800060a0:	030c5493          	srli	s1,s8,0x30
    800060a4:	0098ce33          	xor	t3,a7,s1
    800060a8:	001e7a13          	andi	s4,t3,1
    800060ac:	0014d493          	srli	s1,s1,0x1
    800060b0:	000a0863          	beqz	s4,800060c0 <core_bench_list+0x380>
    800060b4:	00e4c833          	xor	a6,s1,a4
    800060b8:	03081613          	slli	a2,a6,0x30
    800060bc:	03065493          	srli	s1,a2,0x30
    800060c0:	0014fc13          	andi	s8,s1,1
    800060c4:	0014d493          	srli	s1,s1,0x1
    800060c8:	012c0863          	beq	s8,s2,800060d8 <core_bench_list+0x398>
    800060cc:	00e4ce33          	xor	t3,s1,a4
    800060d0:	030e1a13          	slli	s4,t3,0x30
    800060d4:	030a5493          	srli	s1,s4,0x30
    800060d8:	000d3d03          	ld	s10,0(s10)
    800060dc:	e40d12e3          	bnez	s10,80005f20 <core_bench_list+0x1e0>
    800060e0:	0085bd03          	ld	s10,8(a1)
    800060e4:	0005b703          	ld	a4,0(a1)
    800060e8:	00100c93          	li	s9,1
    800060ec:	01a53423          	sd	s10,8(a0)
    800060f0:	0155b423          	sd	s5,8(a1)
    800060f4:	00e53023          	sd	a4,0(a0)
    800060f8:	00a5b023          	sd	a0,0(a1)
    800060fc:	00000613          	li	a2,0
    80006100:	00000e93          	li	t4,0
    80006104:	00000c13          	li	s8,0
    80006108:	00100793          	li	a5,1
    8000610c:	007cf513          	andi	a0,s9,7
    80006110:	001c0c1b          	addiw	s8,s8,1
    80006114:	00040993          	mv	s3,s0
    80006118:	00000693          	li	a3,0
    8000611c:	08050663          	beqz	a0,800061a8 <core_bench_list+0x468>
    80006120:	00100593          	li	a1,1
    80006124:	06b50a63          	beq	a0,a1,80006198 <core_bench_list+0x458>
    80006128:	00200a93          	li	s5,2
    8000612c:	07550063          	beq	a0,s5,8000618c <core_bench_list+0x44c>
    80006130:	00300093          	li	ra,3
    80006134:	04150663          	beq	a0,ra,80006180 <core_bench_list+0x440>
    80006138:	00400d93          	li	s11,4
    8000613c:	03b50c63          	beq	a0,s11,80006174 <core_bench_list+0x434>
    80006140:	00500b93          	li	s7,5
    80006144:	03750263          	beq	a0,s7,80006168 <core_bench_list+0x428>
    80006148:	00600b13          	li	s6,6
    8000614c:	01650863          	beq	a0,s6,8000615c <core_bench_list+0x41c>
    80006150:	00043983          	ld	s3,0(s0)
    80006154:	00100693          	li	a3,1
    80006158:	06098463          	beqz	s3,800061c0 <core_bench_list+0x480>
    8000615c:	0009b983          	ld	s3,0(s3)
    80006160:	0016869b          	addiw	a3,a3,1
    80006164:	04098e63          	beqz	s3,800061c0 <core_bench_list+0x480>
    80006168:	0009b983          	ld	s3,0(s3)
    8000616c:	0016869b          	addiw	a3,a3,1
    80006170:	04098863          	beqz	s3,800061c0 <core_bench_list+0x480>
    80006174:	0009b983          	ld	s3,0(s3)
    80006178:	0016869b          	addiw	a3,a3,1
    8000617c:	04098263          	beqz	s3,800061c0 <core_bench_list+0x480>
    80006180:	0009b983          	ld	s3,0(s3)
    80006184:	0016869b          	addiw	a3,a3,1
    80006188:	02098c63          	beqz	s3,800061c0 <core_bench_list+0x480>
    8000618c:	0009b983          	ld	s3,0(s3)
    80006190:	0016869b          	addiw	a3,a3,1
    80006194:	02098663          	beqz	s3,800061c0 <core_bench_list+0x480>
    80006198:	0009b983          	ld	s3,0(s3)
    8000619c:	0016869b          	addiw	a3,a3,1
    800061a0:	02098063          	beqz	s3,800061c0 <core_bench_list+0x480>
    800061a4:	00dc8e63          	beq	s9,a3,800061c0 <core_bench_list+0x480>
    800061a8:	0009b983          	ld	s3,0(s3)
    800061ac:	0016869b          	addiw	a3,a3,1
    800061b0:	00098863          	beqz	s3,800061c0 <core_bench_list+0x480>
    800061b4:	0009b983          	ld	s3,0(s3)
    800061b8:	0016869b          	addiw	a3,a3,1
    800061bc:	fa0990e3          	bnez	s3,8000615c <core_bench_list+0x41c>
    800061c0:	000c8593          	mv	a1,s9
    800061c4:	06068a63          	beqz	a3,80006238 <core_bench_list+0x4f8>
    800061c8:	10058c63          	beqz	a1,800062e0 <core_bench_list+0x5a0>
    800061cc:	10098a63          	beqz	s3,800062e0 <core_bench_list+0x5a0>
    800061d0:	00843d03          	ld	s10,8(s0)
    800061d4:	0089b903          	ld	s2,8(s3)
    800061d8:	000d1703          	lh	a4,0(s10)
    800061dc:	00291083          	lh	ra,2(s2)
    800061e0:	002d1a83          	lh	s5,2(s10)
    800061e4:	01071d9b          	slliw	s11,a4,0x10
    800061e8:	010ddb9b          	srliw	s7,s11,0x10
    800061ec:	f0077f13          	andi	t5,a4,-256
    800061f0:	008bde1b          	srliw	t3,s7,0x8
    800061f4:	01cf6333          	or	t1,t5,t3
    800061f8:	006d1023          	sh	t1,0(s10)
    800061fc:	00091883          	lh	a7,0(s2)
    80006200:	0108981b          	slliw	a6,a7,0x10
    80006204:	0108551b          	srliw	a0,a6,0x10
    80006208:	f008f393          	andi	t2,a7,-256
    8000620c:	0085529b          	srliw	t0,a0,0x8
    80006210:	0053efb3          	or	t6,t2,t0
    80006214:	01f91023          	sh	t6,0(s2)
    80006218:	0d50d463          	bge	ra,s5,800062e0 <core_bench_list+0x5a0>
    8000621c:	00098a13          	mv	s4,s3
    80006220:	0009b983          	ld	s3,0(s3)
    80006224:	fff5859b          	addiw	a1,a1,-1
    80006228:	02060463          	beqz	a2,80006250 <core_bench_list+0x510>
    8000622c:	01463023          	sd	s4,0(a2)
    80006230:	000a0613          	mv	a2,s4
    80006234:	f8069ae3          	bnez	a3,800061c8 <core_bench_list+0x488>
    80006238:	0a058c63          	beqz	a1,800062f0 <core_bench_list+0x5b0>
    8000623c:	0c098063          	beqz	s3,800062fc <core_bench_list+0x5bc>
    80006240:	00098a13          	mv	s4,s3
    80006244:	fff5859b          	addiw	a1,a1,-1
    80006248:	0009b983          	ld	s3,0(s3)
    8000624c:	fe0610e3          	bnez	a2,8000622c <core_bench_list+0x4ec>
    80006250:	000a0e93          	mv	t4,s4
    80006254:	000a0613          	mv	a2,s4
    80006258:	fddff06f          	j	80006234 <core_bench_list+0x4f4>
    8000625c:	0087b383          	ld	t2,8(a5)
    80006260:	00078d13          	mv	s10,a5
    80006264:	0007b783          	ld	a5,0(a5)
    80006268:	0003c903          	lbu	s2,0(t2)
    8000626c:	00c90e63          	beq	s2,a2,80006288 <core_bench_list+0x548>
    80006270:	c40788e3          	beqz	a5,80005ec0 <core_bench_list+0x180>
    80006274:	0087b383          	ld	t2,8(a5)
    80006278:	00078d13          	mv	s10,a5
    8000627c:	0007b783          	ld	a5,0(a5)
    80006280:	0003c903          	lbu	s2,0(t2)
    80006284:	fec916e3          	bne	s2,a2,80006270 <core_bench_list+0x530>
    80006288:	00043583          	ld	a1,0(s0)
    8000628c:	c41ff06f          	j	80005ecc <core_bench_list+0x18c>
    80006290:	46040663          	beqz	s0,800066fc <core_bench_list+0x9bc>
    80006294:	000c869b          	sext.w	a3,s9
    80006298:	00040793          	mv	a5,s0
    8000629c:	00c0006f          	j	800062a8 <core_bench_list+0x568>
    800062a0:	0007b783          	ld	a5,0(a5)
    800062a4:	b20784e3          	beqz	a5,80005dcc <core_bench_list+0x8c>
    800062a8:	0087b703          	ld	a4,8(a5)
    800062ac:	00074083          	lbu	ra,0(a4)
    800062b0:	fed098e3          	bne	ra,a3,800062a0 <core_bench_list+0x560>
    800062b4:	b19ff06f          	j	80005dcc <core_bench_list+0x8c>
    800062b8:	00893783          	ld	a5,8(s2)
    800062bc:	0013031b          	addiw	t1,t1,1
    800062c0:	03031293          	slli	t0,t1,0x30
    800062c4:	00178383          	lb	t2,1(a5)
    800062c8:	0302d313          	srli	t1,t0,0x30
    800062cc:	0013f493          	andi	s1,t2,1
    800062d0:	01f4893b          	addw	s2,s1,t6
    800062d4:	03091993          	slli	s3,s2,0x30
    800062d8:	0309df93          	srli	t6,s3,0x30
    800062dc:	b61ff06f          	j	80005e3c <core_bench_list+0xfc>
    800062e0:	00040a13          	mv	s4,s0
    800062e4:	fff6869b          	addiw	a3,a3,-1
    800062e8:	00043403          	ld	s0,0(s0)
    800062ec:	f3dff06f          	j	80006228 <core_bench_list+0x4e8>
    800062f0:	00098663          	beqz	s3,800062fc <core_bench_list+0x5bc>
    800062f4:	00098413          	mv	s0,s3
    800062f8:	e15ff06f          	j	8000610c <core_bench_list+0x3cc>
    800062fc:	00063023          	sd	zero,0(a2)
    80006300:	02fc0663          	beq	s8,a5,8000632c <core_bench_list+0x5ec>
    80006304:	001c9c9b          	slliw	s9,s9,0x1
    80006308:	000e8e63          	beqz	t4,80006324 <core_bench_list+0x5e4>
    8000630c:	000e8993          	mv	s3,t4
    80006310:	00000c13          	li	s8,0
    80006314:	00000613          	li	a2,0
    80006318:	00000e93          	li	t4,0
    8000631c:	00098413          	mv	s0,s3
    80006320:	dedff06f          	j	8000610c <core_bench_list+0x3cc>
    80006324:	00003023          	sd	zero,0(zero) # 0 <_start-0x80000000>
    80006328:	00100073          	ebreak
    8000632c:	000eb603          	ld	a2,0(t4)
    80006330:	20060c63          	beqz	a2,80006548 <core_bench_list+0x808>
    80006334:	008eb403          	ld	s0,8(t4)
    80006338:	ffffa3b7          	lui	t2,0xffffa
    8000633c:	00138793          	addi	a5,t2,1 # ffffffffffffa001 <_pmem_end+0xffffffff77ffa001>
    80006340:	00041283          	lh	t0,0(s0)
    80006344:	0082df93          	srli	t6,t0,0x8
    80006348:	0ff2fc13          	zext.b	s8,t0
    8000634c:	0ffffd13          	zext.b	s10,t6
    80006350:	001c5713          	srli	a4,s8,0x1
    80006354:	002c5913          	srli	s2,s8,0x2
    80006358:	003c5a93          	srli	s5,s8,0x3
    8000635c:	004c5093          	srli	ra,s8,0x4
    80006360:	005c5d93          	srli	s11,s8,0x5
    80006364:	006c5b93          	srli	s7,s8,0x6
    80006368:	007c5f13          	srli	t5,s8,0x7
    8000636c:	001d5e93          	srli	t4,s10,0x1
    80006370:	002d5e13          	srli	t3,s10,0x2
    80006374:	003d5313          	srli	t1,s10,0x3
    80006378:	004d5893          	srli	a7,s10,0x4
    8000637c:	005d5813          	srli	a6,s10,0x5
    80006380:	006d5513          	srli	a0,s10,0x6
    80006384:	007d5593          	srli	a1,s10,0x7
    80006388:	009c4a33          	xor	s4,s8,s1
    8000638c:	001a7b13          	andi	s6,s4,1
    80006390:	0014d693          	srli	a3,s1,0x1
    80006394:	000b0863          	beqz	s6,800063a4 <core_bench_list+0x664>
    80006398:	00f6c4b3          	xor	s1,a3,a5
    8000639c:	03049993          	slli	s3,s1,0x30
    800063a0:	0309d693          	srli	a3,s3,0x30
    800063a4:	00d74cb3          	xor	s9,a4,a3
    800063a8:	001cf413          	andi	s0,s9,1
    800063ac:	0016df93          	srli	t6,a3,0x1
    800063b0:	00040863          	beqz	s0,800063c0 <core_bench_list+0x680>
    800063b4:	00ffc3b3          	xor	t2,t6,a5
    800063b8:	03039293          	slli	t0,t2,0x30
    800063bc:	0302df93          	srli	t6,t0,0x30
    800063c0:	01f94a33          	xor	s4,s2,t6
    800063c4:	001a7b13          	andi	s6,s4,1
    800063c8:	001fd693          	srli	a3,t6,0x1
    800063cc:	000b0863          	beqz	s6,800063dc <core_bench_list+0x69c>
    800063d0:	00f6c4b3          	xor	s1,a3,a5
    800063d4:	03049993          	slli	s3,s1,0x30
    800063d8:	0309d693          	srli	a3,s3,0x30
    800063dc:	00daccb3          	xor	s9,s5,a3
    800063e0:	001cf413          	andi	s0,s9,1
    800063e4:	0016df93          	srli	t6,a3,0x1
    800063e8:	00040863          	beqz	s0,800063f8 <core_bench_list+0x6b8>
    800063ec:	00ffc3b3          	xor	t2,t6,a5
    800063f0:	03039293          	slli	t0,t2,0x30
    800063f4:	0302df93          	srli	t6,t0,0x30
    800063f8:	01f0ca33          	xor	s4,ra,t6
    800063fc:	001a7b13          	andi	s6,s4,1
    80006400:	001fd693          	srli	a3,t6,0x1
    80006404:	000b0863          	beqz	s6,80006414 <core_bench_list+0x6d4>
    80006408:	00f6c4b3          	xor	s1,a3,a5
    8000640c:	03049993          	slli	s3,s1,0x30
    80006410:	0309d693          	srli	a3,s3,0x30
    80006414:	00ddccb3          	xor	s9,s11,a3
    80006418:	001cf413          	andi	s0,s9,1
    8000641c:	0016df93          	srli	t6,a3,0x1
    80006420:	00040863          	beqz	s0,80006430 <core_bench_list+0x6f0>
    80006424:	00ffc3b3          	xor	t2,t6,a5
    80006428:	03039293          	slli	t0,t2,0x30
    8000642c:	0302df93          	srli	t6,t0,0x30
    80006430:	01fbca33          	xor	s4,s7,t6
    80006434:	001a7b13          	andi	s6,s4,1
    80006438:	001fd693          	srli	a3,t6,0x1
    8000643c:	000b0863          	beqz	s6,8000644c <core_bench_list+0x70c>
    80006440:	00f6c4b3          	xor	s1,a3,a5
    80006444:	03049993          	slli	s3,s1,0x30
    80006448:	0309d693          	srli	a3,s3,0x30
    8000644c:	0016fc93          	andi	s9,a3,1
    80006450:	0016d293          	srli	t0,a3,0x1
    80006454:	01ec8863          	beq	s9,t5,80006464 <core_bench_list+0x724>
    80006458:	00f2c433          	xor	s0,t0,a5
    8000645c:	03041393          	slli	t2,s0,0x30
    80006460:	0303d293          	srli	t0,t2,0x30
    80006464:	005d4fb3          	xor	t6,s10,t0
    80006468:	001ffa13          	andi	s4,t6,1
    8000646c:	0012d993          	srli	s3,t0,0x1
    80006470:	000a0863          	beqz	s4,80006480 <core_bench_list+0x740>
    80006474:	00f9cb33          	xor	s6,s3,a5
    80006478:	030b1493          	slli	s1,s6,0x30
    8000647c:	0304d993          	srli	s3,s1,0x30
    80006480:	013ec6b3          	xor	a3,t4,s3
    80006484:	0016fc93          	andi	s9,a3,1
    80006488:	0019d293          	srli	t0,s3,0x1
    8000648c:	000c8863          	beqz	s9,8000649c <core_bench_list+0x75c>
    80006490:	00f2c433          	xor	s0,t0,a5
    80006494:	03041393          	slli	t2,s0,0x30
    80006498:	0303d293          	srli	t0,t2,0x30
    8000649c:	005e4fb3          	xor	t6,t3,t0
    800064a0:	001ffa13          	andi	s4,t6,1
    800064a4:	0012d993          	srli	s3,t0,0x1
    800064a8:	000a0863          	beqz	s4,800064b8 <core_bench_list+0x778>
    800064ac:	00f9cb33          	xor	s6,s3,a5
    800064b0:	030b1493          	slli	s1,s6,0x30
    800064b4:	0304d993          	srli	s3,s1,0x30
    800064b8:	013346b3          	xor	a3,t1,s3
    800064bc:	0016fc93          	andi	s9,a3,1
    800064c0:	0019d293          	srli	t0,s3,0x1
    800064c4:	000c8863          	beqz	s9,800064d4 <core_bench_list+0x794>
    800064c8:	00f2c433          	xor	s0,t0,a5
    800064cc:	03041393          	slli	t2,s0,0x30
    800064d0:	0303d293          	srli	t0,t2,0x30
    800064d4:	0058cfb3          	xor	t6,a7,t0
    800064d8:	001ffa13          	andi	s4,t6,1
    800064dc:	0012d993          	srli	s3,t0,0x1
    800064e0:	000a0863          	beqz	s4,800064f0 <core_bench_list+0x7b0>
    800064e4:	00f9cb33          	xor	s6,s3,a5
    800064e8:	030b1493          	slli	s1,s6,0x30
    800064ec:	0304d993          	srli	s3,s1,0x30
    800064f0:	013846b3          	xor	a3,a6,s3
    800064f4:	0016fc93          	andi	s9,a3,1
    800064f8:	0019d293          	srli	t0,s3,0x1
    800064fc:	000c8863          	beqz	s9,8000650c <core_bench_list+0x7cc>
    80006500:	00f2c433          	xor	s0,t0,a5
    80006504:	03041393          	slli	t2,s0,0x30
    80006508:	0303d293          	srli	t0,t2,0x30
    8000650c:	00554fb3          	xor	t6,a0,t0
    80006510:	001ffa13          	andi	s4,t6,1
    80006514:	0012d993          	srli	s3,t0,0x1
    80006518:	000a0863          	beqz	s4,80006528 <core_bench_list+0x7e8>
    8000651c:	00f9cb33          	xor	s6,s3,a5
    80006520:	030b1493          	slli	s1,s6,0x30
    80006524:	0304d993          	srli	s3,s1,0x30
    80006528:	0019f693          	andi	a3,s3,1
    8000652c:	0019d493          	srli	s1,s3,0x1
    80006530:	00b68863          	beq	a3,a1,80006540 <core_bench_list+0x800>
    80006534:	00f4ccb3          	xor	s9,s1,a5
    80006538:	030c9413          	slli	s0,s9,0x30
    8000653c:	03045493          	srli	s1,s0,0x30
    80006540:	00063603          	ld	a2,0(a2)
    80006544:	e40612e3          	bnez	a2,80006388 <core_bench_list+0x648>
    80006548:	06813083          	ld	ra,104(sp)
    8000654c:	06013403          	ld	s0,96(sp)
    80006550:	05013903          	ld	s2,80(sp)
    80006554:	04813983          	ld	s3,72(sp)
    80006558:	04013a03          	ld	s4,64(sp)
    8000655c:	03813a83          	ld	s5,56(sp)
    80006560:	03013b03          	ld	s6,48(sp)
    80006564:	02813b83          	ld	s7,40(sp)
    80006568:	02013c03          	ld	s8,32(sp)
    8000656c:	01813c83          	ld	s9,24(sp)
    80006570:	01013d03          	ld	s10,16(sp)
    80006574:	00813d83          	ld	s11,8(sp)
    80006578:	00048513          	mv	a0,s1
    8000657c:	05813483          	ld	s1,88(sp)
    80006580:	07010113          	addi	sp,sp,112
    80006584:	00008067          	ret
    80006588:	00100b13          	li	s6,1
    8000658c:	d8040ce3          	beqz	s0,80006324 <core_bench_list+0x5e4>
    80006590:	00000913          	li	s2,0
    80006594:	00000a93          	li	s5,0
    80006598:	00000b93          	li	s7,0
    8000659c:	007b7813          	andi	a6,s6,7
    800065a0:	001b8b9b          	addiw	s7,s7,1
    800065a4:	00040093          	mv	ra,s0
    800065a8:	00000993          	li	s3,0
    800065ac:	08080663          	beqz	a6,80006638 <core_bench_list+0x8f8>
    800065b0:	00100d13          	li	s10,1
    800065b4:	07a80a63          	beq	a6,s10,80006628 <core_bench_list+0x8e8>
    800065b8:	00200e93          	li	t4,2
    800065bc:	07d80063          	beq	a6,t4,8000661c <core_bench_list+0x8dc>
    800065c0:	00300893          	li	a7,3
    800065c4:	05180663          	beq	a6,a7,80006610 <core_bench_list+0x8d0>
    800065c8:	00400f13          	li	t5,4
    800065cc:	03e80c63          	beq	a6,t5,80006604 <core_bench_list+0x8c4>
    800065d0:	00500f93          	li	t6,5
    800065d4:	03f80263          	beq	a6,t6,800065f8 <core_bench_list+0x8b8>
    800065d8:	00600713          	li	a4,6
    800065dc:	00e80863          	beq	a6,a4,800065ec <core_bench_list+0x8ac>
    800065e0:	00043083          	ld	ra,0(s0)
    800065e4:	00100993          	li	s3,1
    800065e8:	06008463          	beqz	ra,80006650 <core_bench_list+0x910>
    800065ec:	0000b083          	ld	ra,0(ra)
    800065f0:	0019899b          	addiw	s3,s3,1
    800065f4:	04008e63          	beqz	ra,80006650 <core_bench_list+0x910>
    800065f8:	0000b083          	ld	ra,0(ra)
    800065fc:	0019899b          	addiw	s3,s3,1
    80006600:	04008863          	beqz	ra,80006650 <core_bench_list+0x910>
    80006604:	0000b083          	ld	ra,0(ra)
    80006608:	0019899b          	addiw	s3,s3,1
    8000660c:	04008263          	beqz	ra,80006650 <core_bench_list+0x910>
    80006610:	0000b083          	ld	ra,0(ra)
    80006614:	0019899b          	addiw	s3,s3,1
    80006618:	02008c63          	beqz	ra,80006650 <core_bench_list+0x910>
    8000661c:	0000b083          	ld	ra,0(ra)
    80006620:	0019899b          	addiw	s3,s3,1
    80006624:	02008663          	beqz	ra,80006650 <core_bench_list+0x910>
    80006628:	0000b083          	ld	ra,0(ra)
    8000662c:	0019899b          	addiw	s3,s3,1
    80006630:	02008063          	beqz	ra,80006650 <core_bench_list+0x910>
    80006634:	01698e63          	beq	s3,s6,80006650 <core_bench_list+0x910>
    80006638:	0000b083          	ld	ra,0(ra)
    8000663c:	0019899b          	addiw	s3,s3,1
    80006640:	00008863          	beqz	ra,80006650 <core_bench_list+0x910>
    80006644:	0000b083          	ld	ra,0(ra)
    80006648:	0019899b          	addiw	s3,s3,1
    8000664c:	fa0090e3          	bnez	ra,800065ec <core_bench_list+0x8ac>
    80006650:	00040d13          	mv	s10,s0
    80006654:	000b0a13          	mv	s4,s6
    80006658:	00008413          	mv	s0,ra
    8000665c:	02098e63          	beqz	s3,80006698 <core_bench_list+0x958>
    80006660:	040a0e63          	beqz	s4,800066bc <core_bench_list+0x97c>
    80006664:	04040c63          	beqz	s0,800066bc <core_bench_list+0x97c>
    80006668:	00843583          	ld	a1,8(s0)
    8000666c:	008d3503          	ld	a0,8(s10)
    80006670:	000d8613          	mv	a2,s11
    80006674:	ad1fe0ef          	jal	ra,80005144 <cmp_complex>
    80006678:	04a05263          	blez	a0,800066bc <core_bench_list+0x97c>
    8000667c:	00040693          	mv	a3,s0
    80006680:	00043403          	ld	s0,0(s0)
    80006684:	fffa0a1b          	addiw	s4,s4,-1
    80006688:	02090463          	beqz	s2,800066b0 <core_bench_list+0x970>
    8000668c:	00d93023          	sd	a3,0(s2)
    80006690:	00068913          	mv	s2,a3
    80006694:	fc0996e3          	bnez	s3,80006660 <core_bench_list+0x920>
    80006698:	020a0a63          	beqz	s4,800066cc <core_bench_list+0x98c>
    8000669c:	02040a63          	beqz	s0,800066d0 <core_bench_list+0x990>
    800066a0:	00040693          	mv	a3,s0
    800066a4:	fffa0a1b          	addiw	s4,s4,-1
    800066a8:	00043403          	ld	s0,0(s0)
    800066ac:	fe0910e3          	bnez	s2,8000668c <core_bench_list+0x94c>
    800066b0:	00068a93          	mv	s5,a3
    800066b4:	00068913          	mv	s2,a3
    800066b8:	fddff06f          	j	80006694 <core_bench_list+0x954>
    800066bc:	000d0693          	mv	a3,s10
    800066c0:	fff9899b          	addiw	s3,s3,-1
    800066c4:	000d3d03          	ld	s10,0(s10)
    800066c8:	fc1ff06f          	j	80006688 <core_bench_list+0x948>
    800066cc:	ec0418e3          	bnez	s0,8000659c <core_bench_list+0x85c>
    800066d0:	00093023          	sd	zero,0(s2)
    800066d4:	00100413          	li	s0,1
    800066d8:	008b8863          	beq	s7,s0,800066e8 <core_bench_list+0x9a8>
    800066dc:	001b1b1b          	slliw	s6,s6,0x1
    800066e0:	000a8413          	mv	s0,s5
    800066e4:	ea9ff06f          	j	8000658c <core_bench_list+0x84c>
    800066e8:	000a8413          	mv	s0,s5
    800066ec:	f88ff06f          	j	80005e74 <core_bench_list+0x134>
    800066f0:	00000493          	li	s1,0
    800066f4:	00000c93          	li	s9,0
    800066f8:	f78ff06f          	j	80005e70 <core_bench_list+0x130>
    800066fc:	00003783          	ld	a5,0(zero) # 0 <_start-0x80000000>
    80006700:	00100073          	ebreak

0000000080006704 <iterate>:
    80006704:	fd010113          	addi	sp,sp,-48
    80006708:	00913c23          	sd	s1,24(sp)
    8000670c:	02c52483          	lw	s1,44(a0)
    80006710:	02813023          	sd	s0,32(sp)
    80006714:	01213823          	sd	s2,16(sp)
    80006718:	01313423          	sd	s3,8(sp)
    8000671c:	02113423          	sd	ra,40(sp)
    80006720:	ffffa937          	lui	s2,0xffffa
    80006724:	06053023          	sd	zero,96(a0)
    80006728:	00050993          	mv	s3,a0
    8000672c:	00000413          	li	s0,0
    80006730:	00190913          	addi	s2,s2,1 # ffffffffffffa001 <_pmem_end+0xffffffff77ffa001>
    80006734:	42048463          	beqz	s1,80006b5c <iterate+0x458>
    80006738:	00100593          	li	a1,1
    8000673c:	00098513          	mv	a0,s3
    80006740:	e00ff0ef          	jal	ra,80005d40 <core_bench_list>
    80006744:	0609d783          	lhu	a5,96(s3)
    80006748:	0ff57713          	zext.b	a4,a0
    8000674c:	00175613          	srli	a2,a4,0x1
    80006750:	00f746b3          	xor	a3,a4,a5
    80006754:	0016f293          	andi	t0,a3,1
    80006758:	42029263          	bnez	t0,80006b7c <iterate+0x478>
    8000675c:	0017d593          	srli	a1,a5,0x1
    80006760:	00b64833          	xor	a6,a2,a1
    80006764:	00187893          	andi	a7,a6,1
    80006768:	00275e13          	srli	t3,a4,0x2
    8000676c:	0015df93          	srli	t6,a1,0x1
    80006770:	00088863          	beqz	a7,80006780 <iterate+0x7c>
    80006774:	012fceb3          	xor	t4,t6,s2
    80006778:	030e9f13          	slli	t5,t4,0x30
    8000677c:	030f5f93          	srli	t6,t5,0x30
    80006780:	01fe47b3          	xor	a5,t3,t6
    80006784:	0017f693          	andi	a3,a5,1
    80006788:	00375293          	srli	t0,a4,0x3
    8000678c:	001fd313          	srli	t1,t6,0x1
    80006790:	00068863          	beqz	a3,800067a0 <iterate+0x9c>
    80006794:	01234633          	xor	a2,t1,s2
    80006798:	03061093          	slli	ra,a2,0x30
    8000679c:	0300d313          	srli	t1,ra,0x30
    800067a0:	0062c3b3          	xor	t2,t0,t1
    800067a4:	0013f593          	andi	a1,t2,1
    800067a8:	00475813          	srli	a6,a4,0x4
    800067ac:	00135e93          	srli	t4,t1,0x1
    800067b0:	00058863          	beqz	a1,800067c0 <iterate+0xbc>
    800067b4:	012ec8b3          	xor	a7,t4,s2
    800067b8:	03089e13          	slli	t3,a7,0x30
    800067bc:	030e5e93          	srli	t4,t3,0x30
    800067c0:	01d84f33          	xor	t5,a6,t4
    800067c4:	001f7f93          	andi	t6,t5,1
    800067c8:	00575693          	srli	a3,a4,0x5
    800067cc:	001ed093          	srli	ra,t4,0x1
    800067d0:	000f8863          	beqz	t6,800067e0 <iterate+0xdc>
    800067d4:	0120c7b3          	xor	a5,ra,s2
    800067d8:	03079293          	slli	t0,a5,0x30
    800067dc:	0302d093          	srli	ra,t0,0x30
    800067e0:	0016c633          	xor	a2,a3,ra
    800067e4:	00167313          	andi	t1,a2,1
    800067e8:	00675393          	srli	t2,a4,0x6
    800067ec:	0010d893          	srli	a7,ra,0x1
    800067f0:	00030863          	beqz	t1,80006800 <iterate+0xfc>
    800067f4:	0128c5b3          	xor	a1,a7,s2
    800067f8:	03059813          	slli	a6,a1,0x30
    800067fc:	03085893          	srli	a7,a6,0x30
    80006800:	0113ce33          	xor	t3,t2,a7
    80006804:	001e7e93          	andi	t4,t3,1
    80006808:	00775713          	srli	a4,a4,0x7
    8000680c:	0018d793          	srli	a5,a7,0x1
    80006810:	000e8863          	beqz	t4,80006820 <iterate+0x11c>
    80006814:	0127cf33          	xor	t5,a5,s2
    80006818:	030f1f93          	slli	t6,t5,0x30
    8000681c:	030fd793          	srli	a5,t6,0x30
    80006820:	0017f693          	andi	a3,a5,1
    80006824:	0017d613          	srli	a2,a5,0x1
    80006828:	00e68863          	beq	a3,a4,80006838 <iterate+0x134>
    8000682c:	012642b3          	xor	t0,a2,s2
    80006830:	03029093          	slli	ra,t0,0x30
    80006834:	0300d613          	srli	a2,ra,0x30
    80006838:	0085551b          	srliw	a0,a0,0x8
    8000683c:	0ff57313          	zext.b	t1,a0
    80006840:	00c343b3          	xor	t2,t1,a2
    80006844:	0013f593          	andi	a1,t2,1
    80006848:	00135813          	srli	a6,t1,0x1
    8000684c:	00165e93          	srli	t4,a2,0x1
    80006850:	00058863          	beqz	a1,80006860 <iterate+0x15c>
    80006854:	012ec8b3          	xor	a7,t4,s2
    80006858:	03089e13          	slli	t3,a7,0x30
    8000685c:	030e5e93          	srli	t4,t3,0x30
    80006860:	01d84733          	xor	a4,a6,t4
    80006864:	00177f13          	andi	t5,a4,1
    80006868:	00235f93          	srli	t6,t1,0x2
    8000686c:	001ed293          	srli	t0,t4,0x1
    80006870:	000f0863          	beqz	t5,80006880 <iterate+0x17c>
    80006874:	0122c7b3          	xor	a5,t0,s2
    80006878:	03079693          	slli	a3,a5,0x30
    8000687c:	0306d293          	srli	t0,a3,0x30
    80006880:	005fc0b3          	xor	ra,t6,t0
    80006884:	0010f613          	andi	a2,ra,1
    80006888:	00335513          	srli	a0,t1,0x3
    8000688c:	0012d813          	srli	a6,t0,0x1
    80006890:	00060863          	beqz	a2,800068a0 <iterate+0x19c>
    80006894:	012843b3          	xor	t2,a6,s2
    80006898:	03039593          	slli	a1,t2,0x30
    8000689c:	0305d813          	srli	a6,a1,0x30
    800068a0:	010548b3          	xor	a7,a0,a6
    800068a4:	0018fe13          	andi	t3,a7,1
    800068a8:	00435e93          	srli	t4,t1,0x4
    800068ac:	00185f93          	srli	t6,a6,0x1
    800068b0:	000e0863          	beqz	t3,800068c0 <iterate+0x1bc>
    800068b4:	012fc733          	xor	a4,t6,s2
    800068b8:	03071f13          	slli	t5,a4,0x30
    800068bc:	030f5f93          	srli	t6,t5,0x30
    800068c0:	01fec7b3          	xor	a5,t4,t6
    800068c4:	0017f293          	andi	t0,a5,1
    800068c8:	00535693          	srli	a3,t1,0x5
    800068cc:	001fd513          	srli	a0,t6,0x1
    800068d0:	00028863          	beqz	t0,800068e0 <iterate+0x1dc>
    800068d4:	012540b3          	xor	ra,a0,s2
    800068d8:	03009613          	slli	a2,ra,0x30
    800068dc:	03065513          	srli	a0,a2,0x30
    800068e0:	00a6c3b3          	xor	t2,a3,a0
    800068e4:	0013f593          	andi	a1,t2,1
    800068e8:	00635813          	srli	a6,t1,0x6
    800068ec:	00155e93          	srli	t4,a0,0x1
    800068f0:	00058863          	beqz	a1,80006900 <iterate+0x1fc>
    800068f4:	012ec8b3          	xor	a7,t4,s2
    800068f8:	03089e13          	slli	t3,a7,0x30
    800068fc:	030e5e93          	srli	t4,t3,0x30
    80006900:	01d84733          	xor	a4,a6,t4
    80006904:	00177f13          	andi	t5,a4,1
    80006908:	00735313          	srli	t1,t1,0x7
    8000690c:	001ed293          	srli	t0,t4,0x1
    80006910:	000f0863          	beqz	t5,80006920 <iterate+0x21c>
    80006914:	0122cfb3          	xor	t6,t0,s2
    80006918:	030f9793          	slli	a5,t6,0x30
    8000691c:	0307d293          	srli	t0,a5,0x30
    80006920:	0012f693          	andi	a3,t0,1
    80006924:	0012d513          	srli	a0,t0,0x1
    80006928:	00668863          	beq	a3,t1,80006938 <iterate+0x234>
    8000692c:	012540b3          	xor	ra,a0,s2
    80006930:	03009613          	slli	a2,ra,0x30
    80006934:	03065513          	srli	a0,a2,0x30
    80006938:	06a99023          	sh	a0,96(s3)
    8000693c:	fff00593          	li	a1,-1
    80006940:	00098513          	mv	a0,s3
    80006944:	bfcff0ef          	jal	ra,80005d40 <core_bench_list>
    80006948:	0609d383          	lhu	t2,96(s3)
    8000694c:	0ff57813          	zext.b	a6,a0
    80006950:	00185e13          	srli	t3,a6,0x1
    80006954:	007845b3          	xor	a1,a6,t2
    80006958:	0015f893          	andi	a7,a1,1
    8000695c:	0013d313          	srli	t1,t2,0x1
    80006960:	00088a63          	beqz	a7,80006974 <iterate+0x270>
    80006964:	0013de9b          	srliw	t4,t2,0x1
    80006968:	01d94733          	xor	a4,s2,t4
    8000696c:	03071f13          	slli	t5,a4,0x30
    80006970:	030f5313          	srli	t1,t5,0x30
    80006974:	006e4fb3          	xor	t6,t3,t1
    80006978:	001ff293          	andi	t0,t6,1
    8000697c:	00285693          	srli	a3,a6,0x2
    80006980:	00135393          	srli	t2,t1,0x1
    80006984:	00028863          	beqz	t0,80006994 <iterate+0x290>
    80006988:	0123c7b3          	xor	a5,t2,s2
    8000698c:	03079093          	slli	ra,a5,0x30
    80006990:	0300d393          	srli	t2,ra,0x30
    80006994:	0076c633          	xor	a2,a3,t2
    80006998:	00167593          	andi	a1,a2,1
    8000699c:	00385893          	srli	a7,a6,0x3
    800069a0:	0013d713          	srli	a4,t2,0x1
    800069a4:	00058863          	beqz	a1,800069b4 <iterate+0x2b0>
    800069a8:	01274e33          	xor	t3,a4,s2
    800069ac:	030e1e93          	slli	t4,t3,0x30
    800069b0:	030ed713          	srli	a4,t4,0x30
    800069b4:	00e8cf33          	xor	t5,a7,a4
    800069b8:	001f7313          	andi	t1,t5,1
    800069bc:	00485f93          	srli	t6,a6,0x4
    800069c0:	00175793          	srli	a5,a4,0x1
    800069c4:	00030863          	beqz	t1,800069d4 <iterate+0x2d0>
    800069c8:	0127c2b3          	xor	t0,a5,s2
    800069cc:	03029693          	slli	a3,t0,0x30
    800069d0:	0306d793          	srli	a5,a3,0x30
    800069d4:	00ffc0b3          	xor	ra,t6,a5
    800069d8:	0010f393          	andi	t2,ra,1
    800069dc:	00585613          	srli	a2,a6,0x5
    800069e0:	0017de13          	srli	t3,a5,0x1
    800069e4:	00038863          	beqz	t2,800069f4 <iterate+0x2f0>
    800069e8:	012e45b3          	xor	a1,t3,s2
    800069ec:	03059893          	slli	a7,a1,0x30
    800069f0:	0308de13          	srli	t3,a7,0x30
    800069f4:	01c64eb3          	xor	t4,a2,t3
    800069f8:	001ef713          	andi	a4,t4,1
    800069fc:	00685f13          	srli	t5,a6,0x6
    80006a00:	001e5293          	srli	t0,t3,0x1
    80006a04:	00070863          	beqz	a4,80006a14 <iterate+0x310>
    80006a08:	0122c333          	xor	t1,t0,s2
    80006a0c:	03031f93          	slli	t6,t1,0x30
    80006a10:	030fd293          	srli	t0,t6,0x30
    80006a14:	005f46b3          	xor	a3,t5,t0
    80006a18:	0016f093          	andi	ra,a3,1
    80006a1c:	00785813          	srli	a6,a6,0x7
    80006a20:	0012d613          	srli	a2,t0,0x1
    80006a24:	00008863          	beqz	ra,80006a34 <iterate+0x330>
    80006a28:	012647b3          	xor	a5,a2,s2
    80006a2c:	03079393          	slli	t2,a5,0x30
    80006a30:	0303d613          	srli	a2,t2,0x30
    80006a34:	00167593          	andi	a1,a2,1
    80006a38:	00165e93          	srli	t4,a2,0x1
    80006a3c:	01058863          	beq	a1,a6,80006a4c <iterate+0x348>
    80006a40:	012ec8b3          	xor	a7,t4,s2
    80006a44:	03089e13          	slli	t3,a7,0x30
    80006a48:	030e5e93          	srli	t4,t3,0x30
    80006a4c:	0085551b          	srliw	a0,a0,0x8
    80006a50:	0ff57f13          	zext.b	t5,a0
    80006a54:	01df4733          	xor	a4,t5,t4
    80006a58:	00177313          	andi	t1,a4,1
    80006a5c:	001f5f93          	srli	t6,t5,0x1
    80006a60:	001ed093          	srli	ra,t4,0x1
    80006a64:	00030863          	beqz	t1,80006a74 <iterate+0x370>
    80006a68:	0120c2b3          	xor	t0,ra,s2
    80006a6c:	03029693          	slli	a3,t0,0x30
    80006a70:	0306d093          	srli	ra,a3,0x30
    80006a74:	001fc833          	xor	a6,t6,ra
    80006a78:	00187393          	andi	t2,a6,1
    80006a7c:	002f5613          	srli	a2,t5,0x2
    80006a80:	0010d893          	srli	a7,ra,0x1
    80006a84:	00038863          	beqz	t2,80006a94 <iterate+0x390>
    80006a88:	0128c7b3          	xor	a5,a7,s2
    80006a8c:	03079593          	slli	a1,a5,0x30
    80006a90:	0305d893          	srli	a7,a1,0x30
    80006a94:	01164e33          	xor	t3,a2,a7
    80006a98:	001e7e93          	andi	t4,t3,1
    80006a9c:	003f5513          	srli	a0,t5,0x3
    80006aa0:	0018df93          	srli	t6,a7,0x1
    80006aa4:	000e8863          	beqz	t4,80006ab4 <iterate+0x3b0>
    80006aa8:	012fc733          	xor	a4,t6,s2
    80006aac:	03071313          	slli	t1,a4,0x30
    80006ab0:	03035f93          	srli	t6,t1,0x30
    80006ab4:	01f542b3          	xor	t0,a0,t6
    80006ab8:	0012f693          	andi	a3,t0,1
    80006abc:	004f5093          	srli	ra,t5,0x4
    80006ac0:	001fd613          	srli	a2,t6,0x1
    80006ac4:	00068863          	beqz	a3,80006ad4 <iterate+0x3d0>
    80006ac8:	01264833          	xor	a6,a2,s2
    80006acc:	03081393          	slli	t2,a6,0x30
    80006ad0:	0303d613          	srli	a2,t2,0x30
    80006ad4:	00c0c7b3          	xor	a5,ra,a2
    80006ad8:	0017f593          	andi	a1,a5,1
    80006adc:	005f5893          	srli	a7,t5,0x5
    80006ae0:	00165513          	srli	a0,a2,0x1
    80006ae4:	00058863          	beqz	a1,80006af4 <iterate+0x3f0>
    80006ae8:	01254e33          	xor	t3,a0,s2
    80006aec:	030e1e93          	slli	t4,t3,0x30
    80006af0:	030ed513          	srli	a0,t4,0x30
    80006af4:	00a8c733          	xor	a4,a7,a0
    80006af8:	00177313          	andi	t1,a4,1
    80006afc:	006f5f93          	srli	t6,t5,0x6
    80006b00:	00155093          	srli	ra,a0,0x1
    80006b04:	00030863          	beqz	t1,80006b14 <iterate+0x410>
    80006b08:	0120c2b3          	xor	t0,ra,s2
    80006b0c:	03029693          	slli	a3,t0,0x30
    80006b10:	0306d093          	srli	ra,a3,0x30
    80006b14:	001fc833          	xor	a6,t6,ra
    80006b18:	00187393          	andi	t2,a6,1
    80006b1c:	007f5f13          	srli	t5,t5,0x7
    80006b20:	0010d593          	srli	a1,ra,0x1
    80006b24:	00038863          	beqz	t2,80006b34 <iterate+0x430>
    80006b28:	0125c633          	xor	a2,a1,s2
    80006b2c:	03061793          	slli	a5,a2,0x30
    80006b30:	0307d593          	srli	a1,a5,0x30
    80006b34:	0015f893          	andi	a7,a1,1
    80006b38:	0015d513          	srli	a0,a1,0x1
    80006b3c:	01e88863          	beq	a7,t5,80006b4c <iterate+0x448>
    80006b40:	01254e33          	xor	t3,a0,s2
    80006b44:	030e1e93          	slli	t4,t3,0x30
    80006b48:	030ed513          	srli	a0,t4,0x30
    80006b4c:	06a99023          	sh	a0,96(s3)
    80006b50:	04040063          	beqz	s0,80006b90 <iterate+0x48c>
    80006b54:	0014041b          	addiw	s0,s0,1
    80006b58:	be8490e3          	bne	s1,s0,80006738 <iterate+0x34>
    80006b5c:	02813083          	ld	ra,40(sp)
    80006b60:	02013403          	ld	s0,32(sp)
    80006b64:	01813483          	ld	s1,24(sp)
    80006b68:	01013903          	ld	s2,16(sp)
    80006b6c:	00813983          	ld	s3,8(sp)
    80006b70:	00000513          	li	a0,0
    80006b74:	03010113          	addi	sp,sp,48
    80006b78:	00008067          	ret
    80006b7c:	0017d09b          	srliw	ra,a5,0x1
    80006b80:	00194333          	xor	t1,s2,ra
    80006b84:	03031393          	slli	t2,t1,0x30
    80006b88:	0303d593          	srli	a1,t2,0x30
    80006b8c:	bd5ff06f          	j	80006760 <iterate+0x5c>
    80006b90:	06a99123          	sh	a0,98(s3)
    80006b94:	00100413          	li	s0,1
    80006b98:	fc8482e3          	beq	s1,s0,80006b5c <iterate+0x458>
    80006b9c:	00100413          	li	s0,1
    80006ba0:	b99ff06f          	j	80006738 <iterate+0x34>

0000000080006ba4 <get_seed_32>:
    80006ba4:	00500793          	li	a5,5
    80006ba8:	04a7ee63          	bltu	a5,a0,80006c04 <get_seed_32+0x60>
    80006bac:	00003717          	auipc	a4,0x3
    80006bb0:	cdc70713          	addi	a4,a4,-804 # 80009888 <printf_+0x58>
    80006bb4:	00251513          	slli	a0,a0,0x2
    80006bb8:	00e502b3          	add	t0,a0,a4
    80006bbc:	0002a303          	lw	t1,0(t0)
    80006bc0:	00e303b3          	add	t2,t1,a4
    80006bc4:	00038067          	jr	t2
    80006bc8:	00004517          	auipc	a0,0x4
    80006bcc:	92052503          	lw	a0,-1760(a0) # 8000a4e8 <seed5_volatile>
    80006bd0:	00008067          	ret
    80006bd4:	00004517          	auipc	a0,0x4
    80006bd8:	91c52503          	lw	a0,-1764(a0) # 8000a4f0 <seed1_volatile>
    80006bdc:	00008067          	ret
    80006be0:	00004517          	auipc	a0,0x4
    80006be4:	90c52503          	lw	a0,-1780(a0) # 8000a4ec <seed2_volatile>
    80006be8:	00008067          	ret
    80006bec:	00003517          	auipc	a0,0x3
    80006bf0:	11452503          	lw	a0,276(a0) # 80009d00 <seed3_volatile>
    80006bf4:	00008067          	ret
    80006bf8:	00003517          	auipc	a0,0x3
    80006bfc:	10452503          	lw	a0,260(a0) # 80009cfc <seed4_volatile>
    80006c00:	00008067          	ret
    80006c04:	00000513          	li	a0,0
    80006c08:	00008067          	ret

0000000080006c0c <crcu8>:
    80006c0c:	00b546b3          	xor	a3,a0,a1
    80006c10:	0016f293          	andi	t0,a3,1
    80006c14:	00155713          	srli	a4,a0,0x1
    80006c18:	0015d613          	srli	a2,a1,0x1
    80006c1c:	00028c63          	beqz	t0,80006c34 <crcu8+0x28>
    80006c20:	ffffa337          	lui	t1,0xffffa
    80006c24:	00130393          	addi	t2,t1,1 # ffffffffffffa001 <_pmem_end+0xffffffff77ffa001>
    80006c28:	007647b3          	xor	a5,a2,t2
    80006c2c:	03079593          	slli	a1,a5,0x30
    80006c30:	0305d613          	srli	a2,a1,0x30
    80006c34:	00c74833          	xor	a6,a4,a2
    80006c38:	00187893          	andi	a7,a6,1
    80006c3c:	00255e13          	srli	t3,a0,0x2
    80006c40:	00165293          	srli	t0,a2,0x1
    80006c44:	00088c63          	beqz	a7,80006c5c <crcu8+0x50>
    80006c48:	ffffaeb7          	lui	t4,0xffffa
    80006c4c:	001e8f13          	addi	t5,t4,1 # ffffffffffffa001 <_pmem_end+0xffffffff77ffa001>
    80006c50:	01e2cfb3          	xor	t6,t0,t5
    80006c54:	030f9693          	slli	a3,t6,0x30
    80006c58:	0306d293          	srli	t0,a3,0x30
    80006c5c:	005e4733          	xor	a4,t3,t0
    80006c60:	00177313          	andi	t1,a4,1
    80006c64:	00355393          	srli	t2,a0,0x3
    80006c68:	0012d893          	srli	a7,t0,0x1
    80006c6c:	00030c63          	beqz	t1,80006c84 <crcu8+0x78>
    80006c70:	ffffa5b7          	lui	a1,0xffffa
    80006c74:	00158613          	addi	a2,a1,1 # ffffffffffffa001 <_pmem_end+0xffffffff77ffa001>
    80006c78:	00c8c7b3          	xor	a5,a7,a2
    80006c7c:	03079813          	slli	a6,a5,0x30
    80006c80:	03085893          	srli	a7,a6,0x30
    80006c84:	0113ce33          	xor	t3,t2,a7
    80006c88:	001e7e93          	andi	t4,t3,1
    80006c8c:	00455f13          	srli	t5,a0,0x4
    80006c90:	0018d313          	srli	t1,a7,0x1
    80006c94:	000e8c63          	beqz	t4,80006cac <crcu8+0xa0>
    80006c98:	ffffafb7          	lui	t6,0xffffa
    80006c9c:	001f8693          	addi	a3,t6,1 # ffffffffffffa001 <_pmem_end+0xffffffff77ffa001>
    80006ca0:	00d342b3          	xor	t0,t1,a3
    80006ca4:	03029713          	slli	a4,t0,0x30
    80006ca8:	03075313          	srli	t1,a4,0x30
    80006cac:	006f43b3          	xor	t2,t5,t1
    80006cb0:	0013f593          	andi	a1,t2,1
    80006cb4:	00555613          	srli	a2,a0,0x5
    80006cb8:	00135e93          	srli	t4,t1,0x1
    80006cbc:	00058c63          	beqz	a1,80006cd4 <crcu8+0xc8>
    80006cc0:	ffffa837          	lui	a6,0xffffa
    80006cc4:	00180893          	addi	a7,a6,1 # ffffffffffffa001 <_pmem_end+0xffffffff77ffa001>
    80006cc8:	011ec7b3          	xor	a5,t4,a7
    80006ccc:	03079e13          	slli	t3,a5,0x30
    80006cd0:	030e5e93          	srli	t4,t3,0x30
    80006cd4:	01d64f33          	xor	t5,a2,t4
    80006cd8:	001f7f93          	andi	t6,t5,1
    80006cdc:	00655693          	srli	a3,a0,0x6
    80006ce0:	001ed593          	srli	a1,t4,0x1
    80006ce4:	000f8c63          	beqz	t6,80006cfc <crcu8+0xf0>
    80006ce8:	ffffa2b7          	lui	t0,0xffffa
    80006cec:	00128713          	addi	a4,t0,1 # ffffffffffffa001 <_pmem_end+0xffffffff77ffa001>
    80006cf0:	00e5c333          	xor	t1,a1,a4
    80006cf4:	03031393          	slli	t2,t1,0x30
    80006cf8:	0303d593          	srli	a1,t2,0x30
    80006cfc:	00b6c633          	xor	a2,a3,a1
    80006d00:	00167813          	andi	a6,a2,1
    80006d04:	00755893          	srli	a7,a0,0x7
    80006d08:	0015df13          	srli	t5,a1,0x1
    80006d0c:	00080c63          	beqz	a6,80006d24 <crcu8+0x118>
    80006d10:	ffffa537          	lui	a0,0xffffa
    80006d14:	00150e13          	addi	t3,a0,1 # ffffffffffffa001 <_pmem_end+0xffffffff77ffa001>
    80006d18:	01cf47b3          	xor	a5,t5,t3
    80006d1c:	03079e93          	slli	t4,a5,0x30
    80006d20:	030edf13          	srli	t5,t4,0x30
    80006d24:	001f7f93          	andi	t6,t5,1
    80006d28:	001f5513          	srli	a0,t5,0x1
    80006d2c:	011f8c63          	beq	t6,a7,80006d44 <crcu8+0x138>
    80006d30:	ffffa6b7          	lui	a3,0xffffa
    80006d34:	00168293          	addi	t0,a3,1 # ffffffffffffa001 <_pmem_end+0xffffffff77ffa001>
    80006d38:	00554733          	xor	a4,a0,t0
    80006d3c:	03071313          	slli	t1,a4,0x30
    80006d40:	03035513          	srli	a0,t1,0x30
    80006d44:	00008067          	ret

0000000080006d48 <crcu16>:
    80006d48:	0ff57793          	zext.b	a5,a0
    80006d4c:	00b7c6b3          	xor	a3,a5,a1
    80006d50:	0016f293          	andi	t0,a3,1
    80006d54:	00050713          	mv	a4,a0
    80006d58:	0017d613          	srli	a2,a5,0x1
    80006d5c:	0015d813          	srli	a6,a1,0x1
    80006d60:	00028c63          	beqz	t0,80006d78 <crcu16+0x30>
    80006d64:	ffffa337          	lui	t1,0xffffa
    80006d68:	00130393          	addi	t2,t1,1 # ffffffffffffa001 <_pmem_end+0xffffffff77ffa001>
    80006d6c:	00784533          	xor	a0,a6,t2
    80006d70:	03051593          	slli	a1,a0,0x30
    80006d74:	0305d813          	srli	a6,a1,0x30
    80006d78:	010648b3          	xor	a7,a2,a6
    80006d7c:	0018fe13          	andi	t3,a7,1
    80006d80:	0027de93          	srli	t4,a5,0x2
    80006d84:	00185313          	srli	t1,a6,0x1
    80006d88:	000e0c63          	beqz	t3,80006da0 <crcu16+0x58>
    80006d8c:	ffffaf37          	lui	t5,0xffffa
    80006d90:	001f0f93          	addi	t6,t5,1 # ffffffffffffa001 <_pmem_end+0xffffffff77ffa001>
    80006d94:	01f346b3          	xor	a3,t1,t6
    80006d98:	03069293          	slli	t0,a3,0x30
    80006d9c:	0302d313          	srli	t1,t0,0x30
    80006da0:	006ec633          	xor	a2,t4,t1
    80006da4:	00167393          	andi	t2,a2,1
    80006da8:	0037d593          	srli	a1,a5,0x3
    80006dac:	00135e93          	srli	t4,t1,0x1
    80006db0:	00038c63          	beqz	t2,80006dc8 <crcu16+0x80>
    80006db4:	ffffa837          	lui	a6,0xffffa
    80006db8:	00180893          	addi	a7,a6,1 # ffffffffffffa001 <_pmem_end+0xffffffff77ffa001>
    80006dbc:	011ec533          	xor	a0,t4,a7
    80006dc0:	03051e13          	slli	t3,a0,0x30
    80006dc4:	030e5e93          	srli	t4,t3,0x30
    80006dc8:	01d5cf33          	xor	t5,a1,t4
    80006dcc:	001f7f93          	andi	t6,t5,1
    80006dd0:	0047d693          	srli	a3,a5,0x4
    80006dd4:	001ed593          	srli	a1,t4,0x1
    80006dd8:	000f8c63          	beqz	t6,80006df0 <crcu16+0xa8>
    80006ddc:	ffffa2b7          	lui	t0,0xffffa
    80006de0:	00128313          	addi	t1,t0,1 # ffffffffffffa001 <_pmem_end+0xffffffff77ffa001>
    80006de4:	0065c633          	xor	a2,a1,t1
    80006de8:	03061393          	slli	t2,a2,0x30
    80006dec:	0303d593          	srli	a1,t2,0x30
    80006df0:	00b6c833          	xor	a6,a3,a1
    80006df4:	00187893          	andi	a7,a6,1
    80006df8:	0057de13          	srli	t3,a5,0x5
    80006dfc:	0015d293          	srli	t0,a1,0x1
    80006e00:	00088c63          	beqz	a7,80006e18 <crcu16+0xd0>
    80006e04:	ffffaeb7          	lui	t4,0xffffa
    80006e08:	001e8f13          	addi	t5,t4,1 # ffffffffffffa001 <_pmem_end+0xffffffff77ffa001>
    80006e0c:	01e2c533          	xor	a0,t0,t5
    80006e10:	03051f93          	slli	t6,a0,0x30
    80006e14:	030fd293          	srli	t0,t6,0x30
    80006e18:	005e46b3          	xor	a3,t3,t0
    80006e1c:	0016f313          	andi	t1,a3,1
    80006e20:	0067d393          	srli	t2,a5,0x6
    80006e24:	0012de13          	srli	t3,t0,0x1
    80006e28:	00030c63          	beqz	t1,80006e40 <crcu16+0xf8>
    80006e2c:	ffffa637          	lui	a2,0xffffa
    80006e30:	00160593          	addi	a1,a2,1 # ffffffffffffa001 <_pmem_end+0xffffffff77ffa001>
    80006e34:	00be4833          	xor	a6,t3,a1
    80006e38:	03081893          	slli	a7,a6,0x30
    80006e3c:	0308de13          	srli	t3,a7,0x30
    80006e40:	01c3ceb3          	xor	t4,t2,t3
    80006e44:	001eff13          	andi	t5,t4,1
    80006e48:	0077d793          	srli	a5,a5,0x7
    80006e4c:	001e5313          	srli	t1,t3,0x1
    80006e50:	000f0c63          	beqz	t5,80006e68 <crcu16+0x120>
    80006e54:	ffffafb7          	lui	t6,0xffffa
    80006e58:	001f8293          	addi	t0,t6,1 # ffffffffffffa001 <_pmem_end+0xffffffff77ffa001>
    80006e5c:	00534533          	xor	a0,t1,t0
    80006e60:	03051693          	slli	a3,a0,0x30
    80006e64:	0306d313          	srli	t1,a3,0x30
    80006e68:	00137393          	andi	t2,t1,1
    80006e6c:	00135e13          	srli	t3,t1,0x1
    80006e70:	00f38c63          	beq	t2,a5,80006e88 <crcu16+0x140>
    80006e74:	ffffa637          	lui	a2,0xffffa
    80006e78:	00160593          	addi	a1,a2,1 # ffffffffffffa001 <_pmem_end+0xffffffff77ffa001>
    80006e7c:	00be4833          	xor	a6,t3,a1
    80006e80:	03081893          	slli	a7,a6,0x30
    80006e84:	0308de13          	srli	t3,a7,0x30
    80006e88:	00875e93          	srli	t4,a4,0x8
    80006e8c:	01cecf33          	xor	t5,t4,t3
    80006e90:	001f7793          	andi	a5,t5,1
    80006e94:	00975713          	srli	a4,a4,0x9
    80006e98:	001e5313          	srli	t1,t3,0x1
    80006e9c:	00078c63          	beqz	a5,80006eb4 <crcu16+0x16c>
    80006ea0:	ffffafb7          	lui	t6,0xffffa
    80006ea4:	001f8293          	addi	t0,t6,1 # ffffffffffffa001 <_pmem_end+0xffffffff77ffa001>
    80006ea8:	00534533          	xor	a0,t1,t0
    80006eac:	03051693          	slli	a3,a0,0x30
    80006eb0:	0306d313          	srli	t1,a3,0x30
    80006eb4:	006743b3          	xor	t2,a4,t1
    80006eb8:	0013f613          	andi	a2,t2,1
    80006ebc:	002ed593          	srli	a1,t4,0x2
    80006ec0:	00135793          	srli	a5,t1,0x1
    80006ec4:	00060c63          	beqz	a2,80006edc <crcu16+0x194>
    80006ec8:	ffffa837          	lui	a6,0xffffa
    80006ecc:	00180893          	addi	a7,a6,1 # ffffffffffffa001 <_pmem_end+0xffffffff77ffa001>
    80006ed0:	0117ce33          	xor	t3,a5,a7
    80006ed4:	030e1f13          	slli	t5,t3,0x30
    80006ed8:	030f5793          	srli	a5,t5,0x30
    80006edc:	00f5c733          	xor	a4,a1,a5
    80006ee0:	00177f93          	andi	t6,a4,1
    80006ee4:	003ed293          	srli	t0,t4,0x3
    80006ee8:	0017d613          	srli	a2,a5,0x1
    80006eec:	000f8c63          	beqz	t6,80006f04 <crcu16+0x1bc>
    80006ef0:	ffffa6b7          	lui	a3,0xffffa
    80006ef4:	00168313          	addi	t1,a3,1 # ffffffffffffa001 <_pmem_end+0xffffffff77ffa001>
    80006ef8:	00664533          	xor	a0,a2,t1
    80006efc:	03051393          	slli	t2,a0,0x30
    80006f00:	0303d613          	srli	a2,t2,0x30
    80006f04:	00c2c5b3          	xor	a1,t0,a2
    80006f08:	0015f813          	andi	a6,a1,1
    80006f0c:	004ed893          	srli	a7,t4,0x4
    80006f10:	00165f93          	srli	t6,a2,0x1
    80006f14:	00080c63          	beqz	a6,80006f2c <crcu16+0x1e4>
    80006f18:	ffffae37          	lui	t3,0xffffa
    80006f1c:	001e0f13          	addi	t5,t3,1 # ffffffffffffa001 <_pmem_end+0xffffffff77ffa001>
    80006f20:	01efc7b3          	xor	a5,t6,t5
    80006f24:	03079713          	slli	a4,a5,0x30
    80006f28:	03075f93          	srli	t6,a4,0x30
    80006f2c:	01f8c2b3          	xor	t0,a7,t6
    80006f30:	0012f313          	andi	t1,t0,1
    80006f34:	005ed693          	srli	a3,t4,0x5
    80006f38:	001fd813          	srli	a6,t6,0x1
    80006f3c:	00030c63          	beqz	t1,80006f54 <crcu16+0x20c>
    80006f40:	ffffa3b7          	lui	t2,0xffffa
    80006f44:	00138613          	addi	a2,t2,1 # ffffffffffffa001 <_pmem_end+0xffffffff77ffa001>
    80006f48:	00c84533          	xor	a0,a6,a2
    80006f4c:	03051593          	slli	a1,a0,0x30
    80006f50:	0305d813          	srli	a6,a1,0x30
    80006f54:	0106c8b3          	xor	a7,a3,a6
    80006f58:	0018fe13          	andi	t3,a7,1
    80006f5c:	006edf13          	srli	t5,t4,0x6
    80006f60:	00185313          	srli	t1,a6,0x1
    80006f64:	000e0c63          	beqz	t3,80006f7c <crcu16+0x234>
    80006f68:	ffffa7b7          	lui	a5,0xffffa
    80006f6c:	00178713          	addi	a4,a5,1 # ffffffffffffa001 <_pmem_end+0xffffffff77ffa001>
    80006f70:	00e34fb3          	xor	t6,t1,a4
    80006f74:	030f9293          	slli	t0,t6,0x30
    80006f78:	0302d313          	srli	t1,t0,0x30
    80006f7c:	006f46b3          	xor	a3,t5,t1
    80006f80:	0016f393          	andi	t2,a3,1
    80006f84:	007ede93          	srli	t4,t4,0x7
    80006f88:	00135893          	srli	a7,t1,0x1
    80006f8c:	00038c63          	beqz	t2,80006fa4 <crcu16+0x25c>
    80006f90:	ffffa637          	lui	a2,0xffffa
    80006f94:	00160593          	addi	a1,a2,1 # ffffffffffffa001 <_pmem_end+0xffffffff77ffa001>
    80006f98:	00b8c533          	xor	a0,a7,a1
    80006f9c:	03051813          	slli	a6,a0,0x30
    80006fa0:	03085893          	srli	a7,a6,0x30
    80006fa4:	011ece33          	xor	t3,t4,a7
    80006fa8:	001e7f13          	andi	t5,t3,1
    80006fac:	0018d513          	srli	a0,a7,0x1
    80006fb0:	000f0c63          	beqz	t5,80006fc8 <crcu16+0x280>
    80006fb4:	ffffa7b7          	lui	a5,0xffffa
    80006fb8:	00178713          	addi	a4,a5,1 # ffffffffffffa001 <_pmem_end+0xffffffff77ffa001>
    80006fbc:	00e54fb3          	xor	t6,a0,a4
    80006fc0:	030f9293          	slli	t0,t6,0x30
    80006fc4:	0302d513          	srli	a0,t0,0x30
    80006fc8:	00008067          	ret

0000000080006fcc <crcu32>:
    80006fcc:	0ff57713          	zext.b	a4,a0
    80006fd0:	00b74833          	xor	a6,a4,a1
    80006fd4:	03051693          	slli	a3,a0,0x30
    80006fd8:	00187293          	andi	t0,a6,1
    80006fdc:	00050793          	mv	a5,a0
    80006fe0:	0306d313          	srli	t1,a3,0x30
    80006fe4:	00175613          	srli	a2,a4,0x1
    80006fe8:	0015de13          	srli	t3,a1,0x1
    80006fec:	00028c63          	beqz	t0,80007004 <crcu32+0x38>
    80006ff0:	ffffa5b7          	lui	a1,0xffffa
    80006ff4:	00158393          	addi	t2,a1,1 # ffffffffffffa001 <_pmem_end+0xffffffff77ffa001>
    80006ff8:	007e4533          	xor	a0,t3,t2
    80006ffc:	03051893          	slli	a7,a0,0x30
    80007000:	0308de13          	srli	t3,a7,0x30
    80007004:	01c64eb3          	xor	t4,a2,t3
    80007008:	001eff13          	andi	t5,t4,1
    8000700c:	00275f93          	srli	t6,a4,0x2
    80007010:	001e5393          	srli	t2,t3,0x1
    80007014:	000f0c63          	beqz	t5,8000702c <crcu32+0x60>
    80007018:	ffffa837          	lui	a6,0xffffa
    8000701c:	00180293          	addi	t0,a6,1 # ffffffffffffa001 <_pmem_end+0xffffffff77ffa001>
    80007020:	0053c6b3          	xor	a3,t2,t0
    80007024:	03069613          	slli	a2,a3,0x30
    80007028:	03065393          	srli	t2,a2,0x30
    8000702c:	007fc5b3          	xor	a1,t6,t2
    80007030:	0015f893          	andi	a7,a1,1
    80007034:	00375e13          	srli	t3,a4,0x3
    80007038:	0013d813          	srli	a6,t2,0x1
    8000703c:	00088c63          	beqz	a7,80007054 <crcu32+0x88>
    80007040:	ffffaeb7          	lui	t4,0xffffa
    80007044:	001e8f13          	addi	t5,t4,1 # ffffffffffffa001 <_pmem_end+0xffffffff77ffa001>
    80007048:	01e84533          	xor	a0,a6,t5
    8000704c:	03051f93          	slli	t6,a0,0x30
    80007050:	030fd813          	srli	a6,t6,0x30
    80007054:	010e42b3          	xor	t0,t3,a6
    80007058:	0012f693          	andi	a3,t0,1
    8000705c:	00475613          	srli	a2,a4,0x4
    80007060:	00185e93          	srli	t4,a6,0x1
    80007064:	00068c63          	beqz	a3,8000707c <crcu32+0xb0>
    80007068:	ffffa3b7          	lui	t2,0xffffa
    8000706c:	00138593          	addi	a1,t2,1 # ffffffffffffa001 <_pmem_end+0xffffffff77ffa001>
    80007070:	00bec8b3          	xor	a7,t4,a1
    80007074:	03089e13          	slli	t3,a7,0x30
    80007078:	030e5e93          	srli	t4,t3,0x30
    8000707c:	01d64f33          	xor	t5,a2,t4
    80007080:	001f7f93          	andi	t6,t5,1
    80007084:	00575813          	srli	a6,a4,0x5
    80007088:	001ed393          	srli	t2,t4,0x1
    8000708c:	000f8c63          	beqz	t6,800070a4 <crcu32+0xd8>
    80007090:	ffffa2b7          	lui	t0,0xffffa
    80007094:	00128693          	addi	a3,t0,1 # ffffffffffffa001 <_pmem_end+0xffffffff77ffa001>
    80007098:	00d3c533          	xor	a0,t2,a3
    8000709c:	03051613          	slli	a2,a0,0x30
    800070a0:	03065393          	srli	t2,a2,0x30
    800070a4:	007845b3          	xor	a1,a6,t2
    800070a8:	0015f893          	andi	a7,a1,1
    800070ac:	00675e13          	srli	t3,a4,0x6
    800070b0:	0013d293          	srli	t0,t2,0x1
    800070b4:	00088c63          	beqz	a7,800070cc <crcu32+0x100>
    800070b8:	ffffaeb7          	lui	t4,0xffffa
    800070bc:	001e8f13          	addi	t5,t4,1 # ffffffffffffa001 <_pmem_end+0xffffffff77ffa001>
    800070c0:	01e2cfb3          	xor	t6,t0,t5
    800070c4:	030f9813          	slli	a6,t6,0x30
    800070c8:	03085293          	srli	t0,a6,0x30
    800070cc:	005e46b3          	xor	a3,t3,t0
    800070d0:	0016f613          	andi	a2,a3,1
    800070d4:	00775713          	srli	a4,a4,0x7
    800070d8:	0012de13          	srli	t3,t0,0x1
    800070dc:	00060c63          	beqz	a2,800070f4 <crcu32+0x128>
    800070e0:	ffffa3b7          	lui	t2,0xffffa
    800070e4:	00138593          	addi	a1,t2,1 # ffffffffffffa001 <_pmem_end+0xffffffff77ffa001>
    800070e8:	00be4533          	xor	a0,t3,a1
    800070ec:	03051893          	slli	a7,a0,0x30
    800070f0:	0308de13          	srli	t3,a7,0x30
    800070f4:	001e7e93          	andi	t4,t3,1
    800070f8:	001e5393          	srli	t2,t3,0x1
    800070fc:	3cee9a63          	bne	t4,a4,800074d0 <crcu32+0x504>
    80007100:	00835713          	srli	a4,t1,0x8
    80007104:	007746b3          	xor	a3,a4,t2
    80007108:	0016f613          	andi	a2,a3,1
    8000710c:	00935313          	srli	t1,t1,0x9
    80007110:	0013de93          	srli	t4,t2,0x1
    80007114:	00060c63          	beqz	a2,8000712c <crcu32+0x160>
    80007118:	ffffa5b7          	lui	a1,0xffffa
    8000711c:	00158893          	addi	a7,a1,1 # ffffffffffffa001 <_pmem_end+0xffffffff77ffa001>
    80007120:	011ec533          	xor	a0,t4,a7
    80007124:	03051e13          	slli	t3,a0,0x30
    80007128:	030e5e93          	srli	t4,t3,0x30
    8000712c:	01d34f33          	xor	t5,t1,t4
    80007130:	001f7f93          	andi	t6,t5,1
    80007134:	00275813          	srli	a6,a4,0x2
    80007138:	001ed313          	srli	t1,t4,0x1
    8000713c:	000f8c63          	beqz	t6,80007154 <crcu32+0x188>
    80007140:	ffffa2b7          	lui	t0,0xffffa
    80007144:	00128393          	addi	t2,t0,1 # ffffffffffffa001 <_pmem_end+0xffffffff77ffa001>
    80007148:	007346b3          	xor	a3,t1,t2
    8000714c:	03069613          	slli	a2,a3,0x30
    80007150:	03065313          	srli	t1,a2,0x30
    80007154:	006845b3          	xor	a1,a6,t1
    80007158:	0015f893          	andi	a7,a1,1
    8000715c:	00375e13          	srli	t3,a4,0x3
    80007160:	00135813          	srli	a6,t1,0x1
    80007164:	00088c63          	beqz	a7,8000717c <crcu32+0x1b0>
    80007168:	ffffaeb7          	lui	t4,0xffffa
    8000716c:	001e8f13          	addi	t5,t4,1 # ffffffffffffa001 <_pmem_end+0xffffffff77ffa001>
    80007170:	01e84533          	xor	a0,a6,t5
    80007174:	03051f93          	slli	t6,a0,0x30
    80007178:	030fd813          	srli	a6,t6,0x30
    8000717c:	010e42b3          	xor	t0,t3,a6
    80007180:	0012f393          	andi	t2,t0,1
    80007184:	00475693          	srli	a3,a4,0x4
    80007188:	00185e13          	srli	t3,a6,0x1
    8000718c:	00038c63          	beqz	t2,800071a4 <crcu32+0x1d8>
    80007190:	ffffa637          	lui	a2,0xffffa
    80007194:	00160313          	addi	t1,a2,1 # ffffffffffffa001 <_pmem_end+0xffffffff77ffa001>
    80007198:	006e45b3          	xor	a1,t3,t1
    8000719c:	03059893          	slli	a7,a1,0x30
    800071a0:	0308de13          	srli	t3,a7,0x30
    800071a4:	01c6ceb3          	xor	t4,a3,t3
    800071a8:	001eff13          	andi	t5,t4,1
    800071ac:	00575f93          	srli	t6,a4,0x5
    800071b0:	001e5313          	srli	t1,t3,0x1
    800071b4:	000f0c63          	beqz	t5,800071cc <crcu32+0x200>
    800071b8:	ffffa837          	lui	a6,0xffffa
    800071bc:	00180293          	addi	t0,a6,1 # ffffffffffffa001 <_pmem_end+0xffffffff77ffa001>
    800071c0:	00534533          	xor	a0,t1,t0
    800071c4:	03051393          	slli	t2,a0,0x30
    800071c8:	0303d313          	srli	t1,t2,0x30
    800071cc:	006fc6b3          	xor	a3,t6,t1
    800071d0:	0016f613          	andi	a2,a3,1
    800071d4:	00675593          	srli	a1,a4,0x6
    800071d8:	00135f93          	srli	t6,t1,0x1
    800071dc:	00060c63          	beqz	a2,800071f4 <crcu32+0x228>
    800071e0:	ffffa8b7          	lui	a7,0xffffa
    800071e4:	00188e13          	addi	t3,a7,1 # ffffffffffffa001 <_pmem_end+0xffffffff77ffa001>
    800071e8:	01cfceb3          	xor	t4,t6,t3
    800071ec:	030e9f13          	slli	t5,t4,0x30
    800071f0:	030f5f93          	srli	t6,t5,0x30
    800071f4:	01f5c833          	xor	a6,a1,t6
    800071f8:	00187293          	andi	t0,a6,1
    800071fc:	00775713          	srli	a4,a4,0x7
    80007200:	001fd613          	srli	a2,t6,0x1
    80007204:	00028c63          	beqz	t0,8000721c <crcu32+0x250>
    80007208:	ffffa3b7          	lui	t2,0xffffa
    8000720c:	00138313          	addi	t1,t2,1 # ffffffffffffa001 <_pmem_end+0xffffffff77ffa001>
    80007210:	00664533          	xor	a0,a2,t1
    80007214:	03051693          	slli	a3,a0,0x30
    80007218:	0306d613          	srli	a2,a3,0x30
    8000721c:	00c745b3          	xor	a1,a4,a2
    80007220:	0015f893          	andi	a7,a1,1
    80007224:	00165813          	srli	a6,a2,0x1
    80007228:	28089863          	bnez	a7,800074b8 <crcu32+0x4ec>
    8000722c:	0107d29b          	srliw	t0,a5,0x10
    80007230:	0ff2f713          	zext.b	a4,t0
    80007234:	010743b3          	xor	t2,a4,a6
    80007238:	0013f313          	andi	t1,t2,1
    8000723c:	0107d79b          	srliw	a5,a5,0x10
    80007240:	00175613          	srli	a2,a4,0x1
    80007244:	00185e13          	srli	t3,a6,0x1
    80007248:	00030c63          	beqz	t1,80007260 <crcu32+0x294>
    8000724c:	ffffa6b7          	lui	a3,0xffffa
    80007250:	00168593          	addi	a1,a3,1 # ffffffffffffa001 <_pmem_end+0xffffffff77ffa001>
    80007254:	00be4533          	xor	a0,t3,a1
    80007258:	03051893          	slli	a7,a0,0x30
    8000725c:	0308de13          	srli	t3,a7,0x30
    80007260:	01c64eb3          	xor	t4,a2,t3
    80007264:	001eff13          	andi	t5,t4,1
    80007268:	00275f93          	srli	t6,a4,0x2
    8000726c:	001e5593          	srli	a1,t3,0x1
    80007270:	000f0c63          	beqz	t5,80007288 <crcu32+0x2bc>
    80007274:	ffffa837          	lui	a6,0xffffa
    80007278:	00180293          	addi	t0,a6,1 # ffffffffffffa001 <_pmem_end+0xffffffff77ffa001>
    8000727c:	0055c3b3          	xor	t2,a1,t0
    80007280:	03039313          	slli	t1,t2,0x30
    80007284:	03035593          	srli	a1,t1,0x30
    80007288:	00bfc633          	xor	a2,t6,a1
    8000728c:	00167693          	andi	a3,a2,1
    80007290:	00375893          	srli	a7,a4,0x3
    80007294:	0015df93          	srli	t6,a1,0x1
    80007298:	00068c63          	beqz	a3,800072b0 <crcu32+0x2e4>
    8000729c:	ffffae37          	lui	t3,0xffffa
    800072a0:	001e0e93          	addi	t4,t3,1 # ffffffffffffa001 <_pmem_end+0xffffffff77ffa001>
    800072a4:	01dfc533          	xor	a0,t6,t4
    800072a8:	03051f13          	slli	t5,a0,0x30
    800072ac:	030f5f93          	srli	t6,t5,0x30
    800072b0:	01f8c833          	xor	a6,a7,t6
    800072b4:	00187293          	andi	t0,a6,1
    800072b8:	00475393          	srli	t2,a4,0x4
    800072bc:	001fd893          	srli	a7,t6,0x1
    800072c0:	00028c63          	beqz	t0,800072d8 <crcu32+0x30c>
    800072c4:	ffffa337          	lui	t1,0xffffa
    800072c8:	00130593          	addi	a1,t1,1 # ffffffffffffa001 <_pmem_end+0xffffffff77ffa001>
    800072cc:	00b8c633          	xor	a2,a7,a1
    800072d0:	03061693          	slli	a3,a2,0x30
    800072d4:	0306d893          	srli	a7,a3,0x30
    800072d8:	0113ce33          	xor	t3,t2,a7
    800072dc:	001e7e93          	andi	t4,t3,1
    800072e0:	00575f13          	srli	t5,a4,0x5
    800072e4:	0018d393          	srli	t2,a7,0x1
    800072e8:	000e8c63          	beqz	t4,80007300 <crcu32+0x334>
    800072ec:	ffffafb7          	lui	t6,0xffffa
    800072f0:	001f8813          	addi	a6,t6,1 # ffffffffffffa001 <_pmem_end+0xffffffff77ffa001>
    800072f4:	0103c533          	xor	a0,t2,a6
    800072f8:	03051293          	slli	t0,a0,0x30
    800072fc:	0302d393          	srli	t2,t0,0x30
    80007300:	007f4333          	xor	t1,t5,t2
    80007304:	00137593          	andi	a1,t1,1
    80007308:	00675693          	srli	a3,a4,0x6
    8000730c:	0013df13          	srli	t5,t2,0x1
    80007310:	00058c63          	beqz	a1,80007328 <crcu32+0x35c>
    80007314:	ffffa637          	lui	a2,0xffffa
    80007318:	00160893          	addi	a7,a2,1 # ffffffffffffa001 <_pmem_end+0xffffffff77ffa001>
    8000731c:	011f4e33          	xor	t3,t5,a7
    80007320:	030e1e93          	slli	t4,t3,0x30
    80007324:	030edf13          	srli	t5,t4,0x30
    80007328:	01e6cfb3          	xor	t6,a3,t5
    8000732c:	001ff813          	andi	a6,t6,1
    80007330:	00775713          	srli	a4,a4,0x7
    80007334:	001f5593          	srli	a1,t5,0x1
    80007338:	00080c63          	beqz	a6,80007350 <crcu32+0x384>
    8000733c:	ffffa2b7          	lui	t0,0xffffa
    80007340:	00128393          	addi	t2,t0,1 # ffffffffffffa001 <_pmem_end+0xffffffff77ffa001>
    80007344:	0075c533          	xor	a0,a1,t2
    80007348:	03051313          	slli	t1,a0,0x30
    8000734c:	03035593          	srli	a1,t1,0x30
    80007350:	0015f693          	andi	a3,a1,1
    80007354:	0015df13          	srli	t5,a1,0x1
    80007358:	14e69463          	bne	a3,a4,800074a0 <crcu32+0x4d4>
    8000735c:	0087df93          	srli	t6,a5,0x8
    80007360:	01efc833          	xor	a6,t6,t5
    80007364:	00187713          	andi	a4,a6,1
    80007368:	0097d793          	srli	a5,a5,0x9
    8000736c:	001f5593          	srli	a1,t5,0x1
    80007370:	00070c63          	beqz	a4,80007388 <crcu32+0x3bc>
    80007374:	ffffa2b7          	lui	t0,0xffffa
    80007378:	00128393          	addi	t2,t0,1 # ffffffffffffa001 <_pmem_end+0xffffffff77ffa001>
    8000737c:	0075c533          	xor	a0,a1,t2
    80007380:	03051313          	slli	t1,a0,0x30
    80007384:	03035593          	srli	a1,t1,0x30
    80007388:	00b7c6b3          	xor	a3,a5,a1
    8000738c:	0016f613          	andi	a2,a3,1
    80007390:	002fd893          	srli	a7,t6,0x2
    80007394:	0015d713          	srli	a4,a1,0x1
    80007398:	00060c63          	beqz	a2,800073b0 <crcu32+0x3e4>
    8000739c:	ffffae37          	lui	t3,0xffffa
    800073a0:	001e0e93          	addi	t4,t3,1 # ffffffffffffa001 <_pmem_end+0xffffffff77ffa001>
    800073a4:	01d74f33          	xor	t5,a4,t4
    800073a8:	030f1813          	slli	a6,t5,0x30
    800073ac:	03085713          	srli	a4,a6,0x30
    800073b0:	00e8c7b3          	xor	a5,a7,a4
    800073b4:	0017f293          	andi	t0,a5,1
    800073b8:	003fd393          	srli	t2,t6,0x3
    800073bc:	00175613          	srli	a2,a4,0x1
    800073c0:	00028c63          	beqz	t0,800073d8 <crcu32+0x40c>
    800073c4:	ffffa337          	lui	t1,0xffffa
    800073c8:	00130593          	addi	a1,t1,1 # ffffffffffffa001 <_pmem_end+0xffffffff77ffa001>
    800073cc:	00b64533          	xor	a0,a2,a1
    800073d0:	03051693          	slli	a3,a0,0x30
    800073d4:	0306d613          	srli	a2,a3,0x30
    800073d8:	00c3c8b3          	xor	a7,t2,a2
    800073dc:	0018fe13          	andi	t3,a7,1
    800073e0:	004fde93          	srli	t4,t6,0x4
    800073e4:	00165293          	srli	t0,a2,0x1
    800073e8:	000e0c63          	beqz	t3,80007400 <crcu32+0x434>
    800073ec:	ffffaf37          	lui	t5,0xffffa
    800073f0:	001f0813          	addi	a6,t5,1 # ffffffffffffa001 <_pmem_end+0xffffffff77ffa001>
    800073f4:	0102c733          	xor	a4,t0,a6
    800073f8:	03071793          	slli	a5,a4,0x30
    800073fc:	0307d293          	srli	t0,a5,0x30
    80007400:	005ec3b3          	xor	t2,t4,t0
    80007404:	0013f313          	andi	t1,t2,1
    80007408:	005fd593          	srli	a1,t6,0x5
    8000740c:	0012de13          	srli	t3,t0,0x1
    80007410:	00030c63          	beqz	t1,80007428 <crcu32+0x45c>
    80007414:	ffffa6b7          	lui	a3,0xffffa
    80007418:	00168613          	addi	a2,a3,1 # ffffffffffffa001 <_pmem_end+0xffffffff77ffa001>
    8000741c:	00ce4533          	xor	a0,t3,a2
    80007420:	03051893          	slli	a7,a0,0x30
    80007424:	0308de13          	srli	t3,a7,0x30
    80007428:	01c5ceb3          	xor	t4,a1,t3
    8000742c:	001eff13          	andi	t5,t4,1
    80007430:	006fd813          	srli	a6,t6,0x6
    80007434:	001e5313          	srli	t1,t3,0x1
    80007438:	000f0c63          	beqz	t5,80007450 <crcu32+0x484>
    8000743c:	ffffa737          	lui	a4,0xffffa
    80007440:	00170793          	addi	a5,a4,1 # ffffffffffffa001 <_pmem_end+0xffffffff77ffa001>
    80007444:	00f342b3          	xor	t0,t1,a5
    80007448:	03029393          	slli	t2,t0,0x30
    8000744c:	0303d313          	srli	t1,t2,0x30
    80007450:	006845b3          	xor	a1,a6,t1
    80007454:	0015f693          	andi	a3,a1,1
    80007458:	007fdf93          	srli	t6,t6,0x7
    8000745c:	00135e93          	srli	t4,t1,0x1
    80007460:	00068c63          	beqz	a3,80007478 <crcu32+0x4ac>
    80007464:	ffffa637          	lui	a2,0xffffa
    80007468:	00160893          	addi	a7,a2,1 # ffffffffffffa001 <_pmem_end+0xffffffff77ffa001>
    8000746c:	011ec533          	xor	a0,t4,a7
    80007470:	03051e13          	slli	t3,a0,0x30
    80007474:	030e5e93          	srli	t4,t3,0x30
    80007478:	01dfcf33          	xor	t5,t6,t4
    8000747c:	001f7813          	andi	a6,t5,1
    80007480:	001ed513          	srli	a0,t4,0x1
    80007484:	00080c63          	beqz	a6,8000749c <crcu32+0x4d0>
    80007488:	ffffa737          	lui	a4,0xffffa
    8000748c:	00170793          	addi	a5,a4,1 # ffffffffffffa001 <_pmem_end+0xffffffff77ffa001>
    80007490:	00f542b3          	xor	t0,a0,a5
    80007494:	03029393          	slli	t2,t0,0x30
    80007498:	0303d513          	srli	a0,t2,0x30
    8000749c:	00008067          	ret
    800074a0:	ffffa637          	lui	a2,0xffffa
    800074a4:	00160893          	addi	a7,a2,1 # ffffffffffffa001 <_pmem_end+0xffffffff77ffa001>
    800074a8:	011f4e33          	xor	t3,t5,a7
    800074ac:	030e1e93          	slli	t4,t3,0x30
    800074b0:	030edf13          	srli	t5,t4,0x30
    800074b4:	ea9ff06f          	j	8000735c <crcu32+0x390>
    800074b8:	ffffae37          	lui	t3,0xffffa
    800074bc:	001e0e93          	addi	t4,t3,1 # ffffffffffffa001 <_pmem_end+0xffffffff77ffa001>
    800074c0:	01d84f33          	xor	t5,a6,t4
    800074c4:	030f1f93          	slli	t6,t5,0x30
    800074c8:	030fd813          	srli	a6,t6,0x30
    800074cc:	d61ff06f          	j	8000722c <crcu32+0x260>
    800074d0:	ffffaf37          	lui	t5,0xffffa
    800074d4:	001f0f93          	addi	t6,t5,1 # ffffffffffffa001 <_pmem_end+0xffffffff77ffa001>
    800074d8:	01f3c833          	xor	a6,t2,t6
    800074dc:	03081293          	slli	t0,a6,0x30
    800074e0:	0302d393          	srli	t2,t0,0x30
    800074e4:	c1dff06f          	j	80007100 <crcu32+0x134>

00000000800074e8 <crc16>:
    800074e8:	0ff57793          	zext.b	a5,a0
    800074ec:	00b7c6b3          	xor	a3,a5,a1
    800074f0:	03051713          	slli	a4,a0,0x30
    800074f4:	0016f293          	andi	t0,a3,1
    800074f8:	03075313          	srli	t1,a4,0x30
    800074fc:	0017d613          	srli	a2,a5,0x1
    80007500:	0015d893          	srli	a7,a1,0x1
    80007504:	00028c63          	beqz	t0,8000751c <crc16+0x34>
    80007508:	ffffa3b7          	lui	t2,0xffffa
    8000750c:	00138593          	addi	a1,t2,1 # ffffffffffffa001 <_pmem_end+0xffffffff77ffa001>
    80007510:	00b8c533          	xor	a0,a7,a1
    80007514:	03051813          	slli	a6,a0,0x30
    80007518:	03085893          	srli	a7,a6,0x30
    8000751c:	01164e33          	xor	t3,a2,a7
    80007520:	001e7e93          	andi	t4,t3,1
    80007524:	0027df13          	srli	t5,a5,0x2
    80007528:	0018d393          	srli	t2,a7,0x1
    8000752c:	000e8c63          	beqz	t4,80007544 <crc16+0x5c>
    80007530:	ffffafb7          	lui	t6,0xffffa
    80007534:	001f8693          	addi	a3,t6,1 # ffffffffffffa001 <_pmem_end+0xffffffff77ffa001>
    80007538:	00d3c2b3          	xor	t0,t2,a3
    8000753c:	03029713          	slli	a4,t0,0x30
    80007540:	03075393          	srli	t2,a4,0x30
    80007544:	007f4633          	xor	a2,t5,t2
    80007548:	00167593          	andi	a1,a2,1
    8000754c:	0037d813          	srli	a6,a5,0x3
    80007550:	0013df13          	srli	t5,t2,0x1
    80007554:	00058c63          	beqz	a1,8000756c <crc16+0x84>
    80007558:	ffffa8b7          	lui	a7,0xffffa
    8000755c:	00188e13          	addi	t3,a7,1 # ffffffffffffa001 <_pmem_end+0xffffffff77ffa001>
    80007560:	01cf4533          	xor	a0,t5,t3
    80007564:	03051e93          	slli	t4,a0,0x30
    80007568:	030edf13          	srli	t5,t4,0x30
    8000756c:	01e84fb3          	xor	t6,a6,t5
    80007570:	001ff293          	andi	t0,t6,1
    80007574:	0047d693          	srli	a3,a5,0x4
    80007578:	001f5813          	srli	a6,t5,0x1
    8000757c:	00028c63          	beqz	t0,80007594 <crc16+0xac>
    80007580:	ffffa737          	lui	a4,0xffffa
    80007584:	00170393          	addi	t2,a4,1 # ffffffffffffa001 <_pmem_end+0xffffffff77ffa001>
    80007588:	00784633          	xor	a2,a6,t2
    8000758c:	03061593          	slli	a1,a2,0x30
    80007590:	0305d813          	srli	a6,a1,0x30
    80007594:	0106c8b3          	xor	a7,a3,a6
    80007598:	0018fe13          	andi	t3,a7,1
    8000759c:	0057de93          	srli	t4,a5,0x5
    800075a0:	00185713          	srli	a4,a6,0x1
    800075a4:	000e0c63          	beqz	t3,800075bc <crc16+0xd4>
    800075a8:	ffffaf37          	lui	t5,0xffffa
    800075ac:	001f0f93          	addi	t6,t5,1 # ffffffffffffa001 <_pmem_end+0xffffffff77ffa001>
    800075b0:	01f74533          	xor	a0,a4,t6
    800075b4:	03051293          	slli	t0,a0,0x30
    800075b8:	0302d713          	srli	a4,t0,0x30
    800075bc:	00eec6b3          	xor	a3,t4,a4
    800075c0:	0016f393          	andi	t2,a3,1
    800075c4:	0067d593          	srli	a1,a5,0x6
    800075c8:	00175e93          	srli	t4,a4,0x1
    800075cc:	00038c63          	beqz	t2,800075e4 <crc16+0xfc>
    800075d0:	ffffa637          	lui	a2,0xffffa
    800075d4:	00160813          	addi	a6,a2,1 # ffffffffffffa001 <_pmem_end+0xffffffff77ffa001>
    800075d8:	010ec8b3          	xor	a7,t4,a6
    800075dc:	03089e13          	slli	t3,a7,0x30
    800075e0:	030e5e93          	srli	t4,t3,0x30
    800075e4:	01d5cf33          	xor	t5,a1,t4
    800075e8:	001f7f93          	andi	t6,t5,1
    800075ec:	0077d793          	srli	a5,a5,0x7
    800075f0:	001ed393          	srli	t2,t4,0x1
    800075f4:	000f8c63          	beqz	t6,8000760c <crc16+0x124>
    800075f8:	ffffa2b7          	lui	t0,0xffffa
    800075fc:	00128713          	addi	a4,t0,1 # ffffffffffffa001 <_pmem_end+0xffffffff77ffa001>
    80007600:	00e3c533          	xor	a0,t2,a4
    80007604:	03051693          	slli	a3,a0,0x30
    80007608:	0306d393          	srli	t2,a3,0x30
    8000760c:	0013f593          	andi	a1,t2,1
    80007610:	0013de93          	srli	t4,t2,0x1
    80007614:	14f59463          	bne	a1,a5,8000775c <crc16+0x274>
    80007618:	00835f13          	srli	t5,t1,0x8
    8000761c:	01df4fb3          	xor	t6,t5,t4
    80007620:	001ff793          	andi	a5,t6,1
    80007624:	00935313          	srli	t1,t1,0x9
    80007628:	001ed393          	srli	t2,t4,0x1
    8000762c:	00078c63          	beqz	a5,80007644 <crc16+0x15c>
    80007630:	ffffa2b7          	lui	t0,0xffffa
    80007634:	00128713          	addi	a4,t0,1 # ffffffffffffa001 <_pmem_end+0xffffffff77ffa001>
    80007638:	00e3c533          	xor	a0,t2,a4
    8000763c:	03051693          	slli	a3,a0,0x30
    80007640:	0306d393          	srli	t2,a3,0x30
    80007644:	007345b3          	xor	a1,t1,t2
    80007648:	0015f613          	andi	a2,a1,1
    8000764c:	002f5813          	srli	a6,t5,0x2
    80007650:	0013d793          	srli	a5,t2,0x1
    80007654:	00060c63          	beqz	a2,8000766c <crc16+0x184>
    80007658:	ffffa8b7          	lui	a7,0xffffa
    8000765c:	00188e13          	addi	t3,a7,1 # ffffffffffffa001 <_pmem_end+0xffffffff77ffa001>
    80007660:	01c7ceb3          	xor	t4,a5,t3
    80007664:	030e9f93          	slli	t6,t4,0x30
    80007668:	030fd793          	srli	a5,t6,0x30
    8000766c:	00f84333          	xor	t1,a6,a5
    80007670:	00137293          	andi	t0,t1,1
    80007674:	003f5693          	srli	a3,t5,0x3
    80007678:	0017d613          	srli	a2,a5,0x1
    8000767c:	00028c63          	beqz	t0,80007694 <crc16+0x1ac>
    80007680:	ffffa737          	lui	a4,0xffffa
    80007684:	00170393          	addi	t2,a4,1 # ffffffffffffa001 <_pmem_end+0xffffffff77ffa001>
    80007688:	00764533          	xor	a0,a2,t2
    8000768c:	03051593          	slli	a1,a0,0x30
    80007690:	0305d613          	srli	a2,a1,0x30
    80007694:	00c6c833          	xor	a6,a3,a2
    80007698:	00187893          	andi	a7,a6,1
    8000769c:	004f5e13          	srli	t3,t5,0x4
    800076a0:	00165293          	srli	t0,a2,0x1
    800076a4:	00088c63          	beqz	a7,800076bc <crc16+0x1d4>
    800076a8:	ffffaeb7          	lui	t4,0xffffa
    800076ac:	001e8f93          	addi	t6,t4,1 # ffffffffffffa001 <_pmem_end+0xffffffff77ffa001>
    800076b0:	01f2c7b3          	xor	a5,t0,t6
    800076b4:	03079313          	slli	t1,a5,0x30
    800076b8:	03035293          	srli	t0,t1,0x30
    800076bc:	005e46b3          	xor	a3,t3,t0
    800076c0:	0016f713          	andi	a4,a3,1
    800076c4:	005f5393          	srli	t2,t5,0x5
    800076c8:	0012d893          	srli	a7,t0,0x1
    800076cc:	00070c63          	beqz	a4,800076e4 <crc16+0x1fc>
    800076d0:	ffffa5b7          	lui	a1,0xffffa
    800076d4:	00158613          	addi	a2,a1,1 # ffffffffffffa001 <_pmem_end+0xffffffff77ffa001>
    800076d8:	00c8c533          	xor	a0,a7,a2
    800076dc:	03051813          	slli	a6,a0,0x30
    800076e0:	03085893          	srli	a7,a6,0x30
    800076e4:	0113ce33          	xor	t3,t2,a7
    800076e8:	001e7e93          	andi	t4,t3,1
    800076ec:	006f5f93          	srli	t6,t5,0x6
    800076f0:	0018d393          	srli	t2,a7,0x1
    800076f4:	000e8c63          	beqz	t4,8000770c <crc16+0x224>
    800076f8:	ffffa7b7          	lui	a5,0xffffa
    800076fc:	00178313          	addi	t1,a5,1 # ffffffffffffa001 <_pmem_end+0xffffffff77ffa001>
    80007700:	0063c2b3          	xor	t0,t2,t1
    80007704:	03029693          	slli	a3,t0,0x30
    80007708:	0306d393          	srli	t2,a3,0x30
    8000770c:	007fc733          	xor	a4,t6,t2
    80007710:	00177593          	andi	a1,a4,1
    80007714:	007f5f13          	srli	t5,t5,0x7
    80007718:	0013de13          	srli	t3,t2,0x1
    8000771c:	00058c63          	beqz	a1,80007734 <crc16+0x24c>
    80007720:	ffffa637          	lui	a2,0xffffa
    80007724:	00160813          	addi	a6,a2,1 # ffffffffffffa001 <_pmem_end+0xffffffff77ffa001>
    80007728:	010e4533          	xor	a0,t3,a6
    8000772c:	03051893          	slli	a7,a0,0x30
    80007730:	0308de13          	srli	t3,a7,0x30
    80007734:	01cf4eb3          	xor	t4,t5,t3
    80007738:	001eff93          	andi	t6,t4,1
    8000773c:	001e5513          	srli	a0,t3,0x1
    80007740:	000f8c63          	beqz	t6,80007758 <crc16+0x270>
    80007744:	ffffa7b7          	lui	a5,0xffffa
    80007748:	00178313          	addi	t1,a5,1 # ffffffffffffa001 <_pmem_end+0xffffffff77ffa001>
    8000774c:	006542b3          	xor	t0,a0,t1
    80007750:	03029693          	slli	a3,t0,0x30
    80007754:	0306d513          	srli	a0,a3,0x30
    80007758:	00008067          	ret
    8000775c:	ffffa637          	lui	a2,0xffffa
    80007760:	00160813          	addi	a6,a2,1 # ffffffffffffa001 <_pmem_end+0xffffffff77ffa001>
    80007764:	010ec8b3          	xor	a7,t4,a6
    80007768:	03089e13          	slli	t3,a7,0x30
    8000776c:	030e5e93          	srli	t4,t3,0x30
    80007770:	ea9ff06f          	j	80007618 <crc16+0x130>

0000000080007774 <check_data_types>:
    80007774:	00000513          	li	a0,0
    80007778:	00008067          	ret

000000008000777c <start_time>:
    8000777c:	b00027f3          	csrr	a5,mcycle
    80007780:	02079293          	slli	t0,a5,0x20
    80007784:	0202d313          	srli	t1,t0,0x20
    80007788:	00003717          	auipc	a4,0x3
    8000778c:	d4673c23          	sd	t1,-680(a4) # 8000a4e0 <start_time_val>
    80007790:	00008067          	ret

0000000080007794 <stop_time>:
    80007794:	b00027f3          	csrr	a5,mcycle
    80007798:	02079293          	slli	t0,a5,0x20
    8000779c:	0202d313          	srli	t1,t0,0x20
    800077a0:	00003717          	auipc	a4,0x3
    800077a4:	d2673c23          	sd	t1,-712(a4) # 8000a4d8 <stop_time_val>
    800077a8:	00008067          	ret

00000000800077ac <get_time>:
    800077ac:	00003517          	auipc	a0,0x3
    800077b0:	d2c53503          	ld	a0,-724(a0) # 8000a4d8 <stop_time_val>
    800077b4:	00003797          	auipc	a5,0x3
    800077b8:	d2c7b783          	ld	a5,-724(a5) # 8000a4e0 <start_time_val>
    800077bc:	40f50533          	sub	a0,a0,a5
    800077c0:	00008067          	ret

00000000800077c4 <time_in_secs>:
    800077c4:	3e800793          	li	a5,1000
    800077c8:	02f5553b          	divuw	a0,a0,a5
    800077cc:	00008067          	ret

00000000800077d0 <portable_init>:
    800077d0:	00100793          	li	a5,1
    800077d4:	00f50023          	sb	a5,0(a0)
    800077d8:	00008067          	ret

00000000800077dc <portable_fini>:
    800077dc:	00050023          	sb	zero,0(a0)
    800077e0:	00008067          	ret

Disassembly of section .text.startup:

00000000800077e4 <main>:
    800077e4:	f4010113          	addi	sp,sp,-192
    800077e8:	00003697          	auipc	a3,0x3
    800077ec:	d086a683          	lw	a3,-760(a3) # 8000a4f0 <seed1_volatile>
    800077f0:	09313c23          	sd	s3,152(sp)
    800077f4:	00003717          	auipc	a4,0x3
    800077f8:	cf872703          	lw	a4,-776(a4) # 8000a4ec <seed2_volatile>
    800077fc:	00100613          	li	a2,1
    80007800:	00002797          	auipc	a5,0x2
    80007804:	5007a783          	lw	a5,1280(a5) # 80009d00 <seed3_volatile>
    80007808:	00002997          	auipc	s3,0x2
    8000780c:	4f49a983          	lw	s3,1268(s3) # 80009cfc <seed4_volatile>
    80007810:	0a113c23          	sd	ra,184(sp)
    80007814:	0a813823          	sd	s0,176(sp)
    80007818:	0a913423          	sd	s1,168(sp)
    8000781c:	0b213023          	sd	s2,160(sp)
    80007820:	09413823          	sd	s4,144(sp)
    80007824:	09513423          	sd	s5,136(sp)
    80007828:	09613023          	sd	s6,128(sp)
    8000782c:	07713c23          	sd	s7,120(sp)
    80007830:	06c10523          	sb	a2,106(sp)
    80007834:	00d11023          	sh	a3,0(sp)
    80007838:	00e11123          	sh	a4,2(sp)
    8000783c:	00f11223          	sh	a5,4(sp)
    80007840:	03312623          	sw	s3,44(sp)
    80007844:	00003097          	auipc	ra,0x3
    80007848:	ca40a083          	lw	ra,-860(ra) # 8000a4e8 <seed5_volatile>
    8000784c:	00009463          	bnez	ra,80007854 <main+0x70>
    80007850:	00700093          	li	ra,7
    80007854:	00013383          	ld	t2,0(sp)
    80007858:	02112823          	sw	ra,48(sp)
    8000785c:	01039293          	slli	t0,t2,0x10
    80007860:	00029a63          	bnez	t0,80007874 <main+0x90>
    80007864:	06600313          	li	t1,102
    80007868:	00012023          	sw	zero,0(sp)
    8000786c:	00611223          	sh	t1,4(sp)
    80007870:	00013383          	ld	t2,0(sp)
    80007874:	01039413          	slli	s0,t2,0x10
    80007878:	01045493          	srli	s1,s0,0x10
    8000787c:	00100513          	li	a0,1
    80007880:	00a49c63          	bne	s1,a0,80007898 <main+0xb4>
    80007884:	341535b7          	lui	a1,0x34153
    80007888:	41558813          	addi	a6,a1,1045 # 34153415 <_start-0x4beacbeb>
    8000788c:	06600893          	li	a7,102
    80007890:	01012023          	sw	a6,0(sp)
    80007894:	01111223          	sh	a7,4(sp)
    80007898:	0020f913          	andi	s2,ra,2
    8000789c:	0010fa13          	andi	s4,ra,1
    800078a0:	01203ab3          	snez	s5,s2
    800078a4:	0040fb13          	andi	s6,ra,4
    800078a8:	015a0bb3          	add	s7,s4,s5
    800078ac:	01603e33          	snez	t3,s6
    800078b0:	01cb8eb3          	add	t4,s7,t3
    800078b4:	7d000f13          	li	t5,2000
    800078b8:	03df543b          	divuw	s0,t5,t4
    800078bc:	00002697          	auipc	a3,0x2
    800078c0:	44c68693          	addi	a3,a3,1100 # 80009d08 <static_memblk>
    800078c4:	00d13423          	sd	a3,8(sp)
    800078c8:	06011423          	sh	zero,104(sp)
    800078cc:	000a0793          	mv	a5,s4
    800078d0:	02812423          	sw	s0,40(sp)
    800078d4:	00040f93          	mv	t6,s0
    800078d8:	060a10e3          	bnez	s4,80008138 <__perf_end+0x808>
    800078dc:	040910e3          	bnez	s2,8000811c <__perf_end+0x7ec>
    800078e0:	020b10e3          	bnez	s6,80008100 <__perf_end+0x7d0>
    800078e4:	1c079263          	bnez	a5,80007aa8 <__perf_end+0x178>
    800078e8:	18091c63          	bnez	s2,80007a80 <__perf_end+0x150>
    800078ec:	000b0a63          	beqz	s6,80007900 <main+0x11c>
    800078f0:	02013603          	ld	a2,32(sp)
    800078f4:	00011583          	lh	a1,0(sp)
    800078f8:	00040513          	mv	a0,s0
    800078fc:	cedfb0ef          	jal	ra,800035e8 <core_init_state>
    80007900:	22098663          	beqz	s3,80007b2c <__perf_end+0x1fc>
    80007904:	00003a97          	auipc	s5,0x3
    80007908:	bdca8a93          	addi	s5,s5,-1060 # 8000a4e0 <start_time_val>
    8000790c:	00003a17          	auipc	s4,0x3
    80007910:	bcca0a13          	addi	s4,s4,-1076 # 8000a4d8 <stop_time_val>
    80007914:	00010493          	mv	s1,sp
    80007918:	b0002873          	csrr	a6,mcycle
    8000791c:	02081393          	slli	t2,a6,0x20
    80007920:	0203d893          	srli	a7,t2,0x20
    80007924:	011ab023          	sd	a7,0(s5)

0000000080007928 <__perf_start>:
    80007928:	00048513          	mv	a0,s1
    8000792c:	dd9fe0ef          	jal	ra,80006704 <iterate>

0000000080007930 <__perf_end>:
    80007930:	b0002af3          	csrr	s5,mcycle
    80007934:	00015503          	lhu	a0,0(sp)
    80007938:	020a9493          	slli	s1,s5,0x20
    8000793c:	0204d793          	srli	a5,s1,0x20
    80007940:	00000593          	li	a1,0
    80007944:	00fa3023          	sd	a5,0(s4)
    80007948:	c00ff0ef          	jal	ra,80006d48 <crcu16>
    8000794c:	00050593          	mv	a1,a0
    80007950:	00215503          	lhu	a0,2(sp)
    80007954:	bf4ff0ef          	jal	ra,80006d48 <crcu16>
    80007958:	00050593          	mv	a1,a0
    8000795c:	00415503          	lhu	a0,4(sp)
    80007960:	be8ff0ef          	jal	ra,80006d48 <crcu16>
    80007964:	00050593          	mv	a1,a0
    80007968:	02815503          	lhu	a0,40(sp)
    8000796c:	bdcff0ef          	jal	ra,80006d48 <crcu16>
    80007970:	000085b7          	lui	a1,0x8
    80007974:	00050a1b          	sext.w	s4,a0
    80007978:	b0558e93          	addi	t4,a1,-1275 # 7b05 <_start-0x7fff84fb>
    8000797c:	07da04e3          	beq	s4,t4,800081e4 <__perf_end+0x8b4>
    80007980:	174efe63          	bgeu	t4,s4,80007afc <__perf_end+0x1cc>
    80007984:	00009537          	lui	a0,0x9
    80007988:	a0250913          	addi	s2,a0,-1534 # 8a02 <_start-0x7fff75fe>
    8000798c:	7b2a0c63          	beq	s4,s2,80008144 <__perf_end+0x814>
    80007990:	0000fbb7          	lui	s7,0xf
    80007994:	9f5b8b13          	addi	s6,s7,-1547 # e9f5 <_start-0x7fff160b>
    80007998:	076a14e3          	bne	s4,s6,80008200 <__perf_end+0x8d0>
    8000799c:	00002337          	lui	t1,0x2
    800079a0:	0000e6b7          	lui	a3,0xe
    800079a4:	e3a50613          	addi	a2,a0,-454
    800079a8:	fd730093          	addi	ra,t1,-41 # 1fd7 <_start-0x7fffe029>
    800079ac:	71468813          	addi	a6,a3,1812 # e714 <_start-0x7fff18ec>
    800079b0:	00002f17          	auipc	t5,0x2
    800079b4:	348f0f13          	addi	t5,t5,840 # 80009cf8 <default_num_contexts>
    800079b8:	000f2403          	lw	s0,0(t5)
    800079bc:	00000913          	li	s2,0
    800079c0:	00000993          	li	s3,0
    800079c4:	10040663          	beqz	s0,80007ad0 <__perf_end+0x1a0>
    800079c8:	00100e93          	li	t4,1
    800079cc:	00080b9b          	sext.w	s7,a6
    800079d0:	00008b1b          	sext.w	s6,ra
    800079d4:	0006051b          	sext.w	a0,a2
    800079d8:	0780006f          	j	80007a50 <__perf_end+0x120>
    800079dc:	ff235803          	lhu	a6,-14(t1)
    800079e0:	09780a63          	beq	a6,s7,80007a74 <__perf_end+0x144>
    800079e4:	ffd31c23          	sh	t4,-8(t1)
    800079e8:	00300e13          	li	t3,3
    800079ec:	00200f93          	li	t6,2
    800079f0:	0020f393          	andi	t2,ra,2
    800079f4:	02038263          	beqz	t2,80007a18 <__perf_end+0xe8>
    800079f8:	413708b3          	sub	a7,a4,s3
    800079fc:	00489a93          	slli	s5,a7,0x4
    80007a00:	070a8493          	addi	s1,s5,112
    80007a04:	002487b3          	add	a5,s1,sp
    80007a08:	ff47da03          	lhu	s4,-12(a5)
    80007a0c:	016a0663          	beq	s4,s6,80007a18 <__perf_end+0xe8>
    80007a10:	fff79c23          	sh	t6,-8(a5)
    80007a14:	000e0f93          	mv	t6,t3
    80007a18:	0040f593          	andi	a1,ra,4
    80007a1c:	02058063          	beqz	a1,80007a3c <__perf_end+0x10c>
    80007a20:	413709b3          	sub	s3,a4,s3
    80007a24:	00499713          	slli	a4,s3,0x4
    80007a28:	07070293          	addi	t0,a4,112
    80007a2c:	00228633          	add	a2,t0,sp
    80007a30:	ff665303          	lhu	t1,-10(a2)
    80007a34:	00a30463          	beq	t1,a0,80007a3c <__perf_end+0x10c>
    80007a38:	fff61c23          	sh	t6,-8(a2)
    80007a3c:	0019091b          	addiw	s2,s2,1
    80007a40:	03091093          	slli	ra,s2,0x30
    80007a44:	0300d913          	srli	s2,ra,0x30
    80007a48:	0009099b          	sext.w	s3,s2
    80007a4c:	06897c63          	bgeu	s2,s0,80007ac4 <__perf_end+0x194>
    80007a50:	00399713          	slli	a4,s3,0x3
    80007a54:	41370fb3          	sub	t6,a4,s3
    80007a58:	004f9293          	slli	t0,t6,0x4
    80007a5c:	07028613          	addi	a2,t0,112
    80007a60:	00260333          	add	t1,a2,sp
    80007a64:	fc032083          	lw	ra,-64(t1)
    80007a68:	fe031c23          	sh	zero,-8(t1)
    80007a6c:	0010f693          	andi	a3,ra,1
    80007a70:	f60696e3          	bnez	a3,800079dc <__perf_end+0xac>
    80007a74:	00200e13          	li	t3,2
    80007a78:	00100f93          	li	t6,1
    80007a7c:	f75ff06f          	j	800079f0 <__perf_end+0xc0>
    80007a80:	00211803          	lh	a6,2(sp)
    80007a84:	00011883          	lh	a7,0(sp)
    80007a88:	01813583          	ld	a1,24(sp)
    80007a8c:	0108191b          	slliw	s2,a6,0x10
    80007a90:	01196a33          	or	s4,s2,a7
    80007a94:	04010693          	addi	a3,sp,64
    80007a98:	000a061b          	sext.w	a2,s4
    80007a9c:	00040513          	mv	a0,s0
    80007aa0:	eedfa0ef          	jal	ra,8000298c <core_init_matrix>
    80007aa4:	e49ff06f          	j	800078ec <main+0x108>
    80007aa8:	00011603          	lh	a2,0(sp)
    80007aac:	01013583          	ld	a1,16(sp)
    80007ab0:	00040513          	mv	a0,s0
    80007ab4:	dccf80ef          	jal	ra,80000080 <core_list_init>
    80007ab8:	02a13c23          	sd	a0,56(sp)
    80007abc:	e20908e3          	beqz	s2,800078ec <main+0x108>
    80007ac0:	fc1ff06f          	j	80007a80 <__perf_end+0x150>
    80007ac4:	03012403          	lw	s0,48(sp)
    80007ac8:	00147e93          	andi	t4,s0,1
    80007acc:	520e9a63          	bnez	t4,80008000 <__perf_end+0x6d0>
    80007ad0:	0b813083          	ld	ra,184(sp)
    80007ad4:	0b013403          	ld	s0,176(sp)
    80007ad8:	0a813483          	ld	s1,168(sp)
    80007adc:	0a013903          	ld	s2,160(sp)
    80007ae0:	09813983          	ld	s3,152(sp)
    80007ae4:	09013a03          	ld	s4,144(sp)
    80007ae8:	08813a83          	ld	s5,136(sp)
    80007aec:	08013b03          	ld	s6,128(sp)
    80007af0:	07813b83          	ld	s7,120(sp)
    80007af4:	0c010113          	addi	sp,sp,192
    80007af8:	00008067          	ret
    80007afc:	00002e37          	lui	t3,0x2
    80007b00:	8f2e0393          	addi	t2,t3,-1806 # 18f2 <_start-0x7fffe70e>
    80007b04:	647a0e63          	beq	s4,t2,80008160 <__perf_end+0x830>
    80007b08:	000054b7          	lui	s1,0x5
    80007b0c:	eaf48793          	addi	a5,s1,-337 # 4eaf <_start-0x7fffb151>
    80007b10:	6efa1863          	bne	s4,a5,80008200 <__perf_end+0x8d0>
    80007b14:	0000ea37          	lui	s4,0xe
    80007b18:	000075b7          	lui	a1,0x7
    80007b1c:	5a4a0613          	addi	a2,s4,1444 # e5a4 <_start-0x7fff1a5c>
    80007b20:	60848093          	addi	ra,s1,1544
    80007b24:	a7958813          	addi	a6,a1,-1415 # 6a79 <_start-0x7fff9587>
    80007b28:	e89ff06f          	j	800079b0 <__perf_end+0x80>
    80007b2c:	00100993          	li	s3,1
    80007b30:	ffffa5b7          	lui	a1,0xffffa
    80007b34:	03312623          	sw	s3,44(sp)
    80007b38:	00003a97          	auipc	s5,0x3
    80007b3c:	9a8a8a93          	addi	s5,s5,-1624 # 8000a4e0 <start_time_val>
    80007b40:	00003a17          	auipc	s4,0x3
    80007b44:	998a0a13          	addi	s4,s4,-1640 # 8000a4d8 <stop_time_val>
    80007b48:	00010493          	mv	s1,sp
    80007b4c:	00158b93          	addi	s7,a1,1 # ffffffffffffa001 <_pmem_end+0xffffffff77ffa001>
    80007b50:	3e700b13          	li	s6,999
    80007b54:	02c12e03          	lw	t3,44(sp)
    80007b58:	002e1e9b          	slliw	t4,t3,0x2
    80007b5c:	01ce8f3b          	addw	t5,t4,t3
    80007b60:	001f191b          	slliw	s2,t5,0x1
    80007b64:	03212623          	sw	s2,44(sp)
    80007b68:	b00029f3          	csrr	s3,mcycle
    80007b6c:	02099f93          	slli	t6,s3,0x20
    80007b70:	020fd693          	srli	a3,t6,0x20
    80007b74:	00dab023          	sd	a3,0(s5)
    80007b78:	06013023          	sd	zero,96(sp)
    80007b7c:	00000413          	li	s0,0
    80007b80:	42090c63          	beqz	s2,80007fb8 <__perf_end+0x688>
    80007b84:	00100593          	li	a1,1
    80007b88:	00048513          	mv	a0,s1
    80007b8c:	9b4fe0ef          	jal	ra,80005d40 <core_bench_list>
    80007b90:	06015283          	lhu	t0,96(sp)
    80007b94:	0ff57713          	zext.b	a4,a0
    80007b98:	00175613          	srli	a2,a4,0x1
    80007b9c:	005747b3          	xor	a5,a4,t0
    80007ba0:	0017f313          	andi	t1,a5,1
    80007ba4:	0012d893          	srli	a7,t0,0x1
    80007ba8:	00030a63          	beqz	t1,80007bbc <__perf_end+0x28c>
    80007bac:	0012d09b          	srliw	ra,t0,0x1
    80007bb0:	001bc3b3          	xor	t2,s7,ra
    80007bb4:	03039813          	slli	a6,t2,0x30
    80007bb8:	03085893          	srli	a7,a6,0x30
    80007bbc:	011645b3          	xor	a1,a2,a7
    80007bc0:	0015fe13          	andi	t3,a1,1
    80007bc4:	00275e93          	srli	t4,a4,0x2
    80007bc8:	0018d293          	srli	t0,a7,0x1
    80007bcc:	000e0863          	beqz	t3,80007bdc <__perf_end+0x2ac>
    80007bd0:	0172cf33          	xor	t5,t0,s7
    80007bd4:	030f1f93          	slli	t6,t5,0x30
    80007bd8:	030fd293          	srli	t0,t6,0x30
    80007bdc:	005ec6b3          	xor	a3,t4,t0
    80007be0:	0016f313          	andi	t1,a3,1
    80007be4:	00375613          	srli	a2,a4,0x3
    80007be8:	0012d393          	srli	t2,t0,0x1
    80007bec:	00030863          	beqz	t1,80007bfc <__perf_end+0x2cc>
    80007bf0:	0173c7b3          	xor	a5,t2,s7
    80007bf4:	03079093          	slli	ra,a5,0x30
    80007bf8:	0300d393          	srli	t2,ra,0x30
    80007bfc:	00764833          	xor	a6,a2,t2
    80007c00:	00187893          	andi	a7,a6,1
    80007c04:	00475593          	srli	a1,a4,0x4
    80007c08:	0013df13          	srli	t5,t2,0x1
    80007c0c:	00088863          	beqz	a7,80007c1c <__perf_end+0x2ec>
    80007c10:	017f4e33          	xor	t3,t5,s7
    80007c14:	030e1e93          	slli	t4,t3,0x30
    80007c18:	030edf13          	srli	t5,t4,0x30
    80007c1c:	01e5cfb3          	xor	t6,a1,t5
    80007c20:	001ff293          	andi	t0,t6,1
    80007c24:	00575693          	srli	a3,a4,0x5
    80007c28:	001f5793          	srli	a5,t5,0x1
    80007c2c:	00028863          	beqz	t0,80007c3c <__perf_end+0x30c>
    80007c30:	0177c333          	xor	t1,a5,s7
    80007c34:	03031613          	slli	a2,t1,0x30
    80007c38:	03065793          	srli	a5,a2,0x30
    80007c3c:	00f6c0b3          	xor	ra,a3,a5
    80007c40:	0010f393          	andi	t2,ra,1
    80007c44:	00675813          	srli	a6,a4,0x6
    80007c48:	0017de13          	srli	t3,a5,0x1
    80007c4c:	00038863          	beqz	t2,80007c5c <__perf_end+0x32c>
    80007c50:	017e48b3          	xor	a7,t3,s7
    80007c54:	03089593          	slli	a1,a7,0x30
    80007c58:	0305de13          	srli	t3,a1,0x30
    80007c5c:	01c84eb3          	xor	t4,a6,t3
    80007c60:	001eff13          	andi	t5,t4,1
    80007c64:	00775713          	srli	a4,a4,0x7
    80007c68:	001e5313          	srli	t1,t3,0x1
    80007c6c:	000f0863          	beqz	t5,80007c7c <__perf_end+0x34c>
    80007c70:	01734fb3          	xor	t6,t1,s7
    80007c74:	030f9293          	slli	t0,t6,0x30
    80007c78:	0302d313          	srli	t1,t0,0x30
    80007c7c:	00137693          	andi	a3,t1,1
    80007c80:	00135093          	srli	ra,t1,0x1
    80007c84:	00e68863          	beq	a3,a4,80007c94 <__perf_end+0x364>
    80007c88:	0170c633          	xor	a2,ra,s7
    80007c8c:	03061793          	slli	a5,a2,0x30
    80007c90:	0307d093          	srli	ra,a5,0x30
    80007c94:	0085551b          	srliw	a0,a0,0x8
    80007c98:	0ff57393          	zext.b	t2,a0
    80007c9c:	0013c833          	xor	a6,t2,ra
    80007ca0:	00187893          	andi	a7,a6,1
    80007ca4:	0013d593          	srli	a1,t2,0x1
    80007ca8:	0010df13          	srli	t5,ra,0x1
    80007cac:	00088863          	beqz	a7,80007cbc <__perf_end+0x38c>
    80007cb0:	017f4e33          	xor	t3,t5,s7
    80007cb4:	030e1e93          	slli	t4,t3,0x30
    80007cb8:	030edf13          	srli	t5,t4,0x30
    80007cbc:	01e5c733          	xor	a4,a1,t5
    80007cc0:	00177f93          	andi	t6,a4,1
    80007cc4:	0023d293          	srli	t0,t2,0x2
    80007cc8:	001f5613          	srli	a2,t5,0x1
    80007ccc:	000f8863          	beqz	t6,80007cdc <__perf_end+0x3ac>
    80007cd0:	01764333          	xor	t1,a2,s7
    80007cd4:	03031693          	slli	a3,t1,0x30
    80007cd8:	0306d613          	srli	a2,a3,0x30
    80007cdc:	00c2c7b3          	xor	a5,t0,a2
    80007ce0:	0017f093          	andi	ra,a5,1
    80007ce4:	0033d513          	srli	a0,t2,0x3
    80007ce8:	00165593          	srli	a1,a2,0x1
    80007cec:	00008863          	beqz	ra,80007cfc <__perf_end+0x3cc>
    80007cf0:	0175c833          	xor	a6,a1,s7
    80007cf4:	03081893          	slli	a7,a6,0x30
    80007cf8:	0308d593          	srli	a1,a7,0x30
    80007cfc:	00b54e33          	xor	t3,a0,a1
    80007d00:	001e7e93          	andi	t4,t3,1
    80007d04:	0043df13          	srli	t5,t2,0x4
    80007d08:	0015d293          	srli	t0,a1,0x1
    80007d0c:	000e8863          	beqz	t4,80007d1c <__perf_end+0x3ec>
    80007d10:	0172c733          	xor	a4,t0,s7
    80007d14:	03071f93          	slli	t6,a4,0x30
    80007d18:	030fd293          	srli	t0,t6,0x30
    80007d1c:	005f4333          	xor	t1,t5,t0
    80007d20:	00137613          	andi	a2,t1,1
    80007d24:	0053d693          	srli	a3,t2,0x5
    80007d28:	0012d513          	srli	a0,t0,0x1
    80007d2c:	00060863          	beqz	a2,80007d3c <__perf_end+0x40c>
    80007d30:	017547b3          	xor	a5,a0,s7
    80007d34:	03079093          	slli	ra,a5,0x30
    80007d38:	0300d513          	srli	a0,ra,0x30
    80007d3c:	00a6c833          	xor	a6,a3,a0
    80007d40:	00187893          	andi	a7,a6,1
    80007d44:	0063d593          	srli	a1,t2,0x6
    80007d48:	00155f13          	srli	t5,a0,0x1
    80007d4c:	00088863          	beqz	a7,80007d5c <__perf_end+0x42c>
    80007d50:	017f4e33          	xor	t3,t5,s7
    80007d54:	030e1e93          	slli	t4,t3,0x30
    80007d58:	030edf13          	srli	t5,t4,0x30
    80007d5c:	01e5c733          	xor	a4,a1,t5
    80007d60:	00177f93          	andi	t6,a4,1
    80007d64:	0073d393          	srli	t2,t2,0x7
    80007d68:	001f5613          	srli	a2,t5,0x1
    80007d6c:	000f8863          	beqz	t6,80007d7c <__perf_end+0x44c>
    80007d70:	017642b3          	xor	t0,a2,s7
    80007d74:	03029313          	slli	t1,t0,0x30
    80007d78:	03035613          	srli	a2,t1,0x30
    80007d7c:	00167693          	andi	a3,a2,1
    80007d80:	00165813          	srli	a6,a2,0x1
    80007d84:	00768863          	beq	a3,t2,80007d94 <__perf_end+0x464>
    80007d88:	017847b3          	xor	a5,a6,s7
    80007d8c:	03079093          	slli	ra,a5,0x30
    80007d90:	0300d813          	srli	a6,ra,0x30
    80007d94:	fff00593          	li	a1,-1
    80007d98:	00048513          	mv	a0,s1
    80007d9c:	07011023          	sh	a6,96(sp)
    80007da0:	fa1fd0ef          	jal	ra,80005d40 <core_bench_list>
    80007da4:	06015883          	lhu	a7,96(sp)
    80007da8:	0ff57e13          	zext.b	t3,a0
    80007dac:	001e5f13          	srli	t5,t3,0x1
    80007db0:	011e45b3          	xor	a1,t3,a7
    80007db4:	0015fe93          	andi	t4,a1,1
    80007db8:	0018d293          	srli	t0,a7,0x1
    80007dbc:	000e8a63          	beqz	t4,80007dd0 <__perf_end+0x4a0>
    80007dc0:	0018d71b          	srliw	a4,a7,0x1
    80007dc4:	00ebcfb3          	xor	t6,s7,a4
    80007dc8:	030f9393          	slli	t2,t6,0x30
    80007dcc:	0303d293          	srli	t0,t2,0x30
    80007dd0:	005f4333          	xor	t1,t5,t0
    80007dd4:	00137613          	andi	a2,t1,1
    80007dd8:	002e5693          	srli	a3,t3,0x2
    80007ddc:	0012d813          	srli	a6,t0,0x1
    80007de0:	00060863          	beqz	a2,80007df0 <__perf_end+0x4c0>
    80007de4:	017847b3          	xor	a5,a6,s7
    80007de8:	03079093          	slli	ra,a5,0x30
    80007dec:	0300d813          	srli	a6,ra,0x30
    80007df0:	0106c8b3          	xor	a7,a3,a6
    80007df4:	0018f593          	andi	a1,a7,1
    80007df8:	003e5e93          	srli	t4,t3,0x3
    80007dfc:	00185f93          	srli	t6,a6,0x1
    80007e00:	00058863          	beqz	a1,80007e10 <__perf_end+0x4e0>
    80007e04:	017fcf33          	xor	t5,t6,s7
    80007e08:	030f1713          	slli	a4,t5,0x30
    80007e0c:	03075f93          	srli	t6,a4,0x30
    80007e10:	01fec3b3          	xor	t2,t4,t6
    80007e14:	0013f293          	andi	t0,t2,1
    80007e18:	004e5313          	srli	t1,t3,0x4
    80007e1c:	001fd793          	srli	a5,t6,0x1
    80007e20:	00028863          	beqz	t0,80007e30 <__perf_end+0x500>
    80007e24:	0177c633          	xor	a2,a5,s7
    80007e28:	03061693          	slli	a3,a2,0x30
    80007e2c:	0306d793          	srli	a5,a3,0x30
    80007e30:	00f340b3          	xor	ra,t1,a5
    80007e34:	0010f813          	andi	a6,ra,1
    80007e38:	005e5893          	srli	a7,t3,0x5
    80007e3c:	0017df13          	srli	t5,a5,0x1
    80007e40:	00080863          	beqz	a6,80007e50 <__perf_end+0x520>
    80007e44:	017f45b3          	xor	a1,t5,s7
    80007e48:	03059e93          	slli	t4,a1,0x30
    80007e4c:	030edf13          	srli	t5,t4,0x30
    80007e50:	01e8c733          	xor	a4,a7,t5
    80007e54:	00177f93          	andi	t6,a4,1
    80007e58:	006e5393          	srli	t2,t3,0x6
    80007e5c:	001f5613          	srli	a2,t5,0x1
    80007e60:	000f8863          	beqz	t6,80007e70 <__perf_end+0x540>
    80007e64:	017642b3          	xor	t0,a2,s7
    80007e68:	03029313          	slli	t1,t0,0x30
    80007e6c:	03035613          	srli	a2,t1,0x30
    80007e70:	00c3c6b3          	xor	a3,t2,a2
    80007e74:	0016f093          	andi	ra,a3,1
    80007e78:	007e5e13          	srli	t3,t3,0x7
    80007e7c:	00165893          	srli	a7,a2,0x1
    80007e80:	00008863          	beqz	ra,80007e90 <__perf_end+0x560>
    80007e84:	0178c7b3          	xor	a5,a7,s7
    80007e88:	03079813          	slli	a6,a5,0x30
    80007e8c:	03085893          	srli	a7,a6,0x30
    80007e90:	0018f593          	andi	a1,a7,1
    80007e94:	0018df93          	srli	t6,a7,0x1
    80007e98:	01c58863          	beq	a1,t3,80007ea8 <__perf_end+0x578>
    80007e9c:	017fceb3          	xor	t4,t6,s7
    80007ea0:	030e9f13          	slli	t5,t4,0x30
    80007ea4:	030f5f93          	srli	t6,t5,0x30
    80007ea8:	0085551b          	srliw	a0,a0,0x8
    80007eac:	0ff57393          	zext.b	t2,a0
    80007eb0:	01f3c733          	xor	a4,t2,t6
    80007eb4:	00177293          	andi	t0,a4,1
    80007eb8:	0013d313          	srli	t1,t2,0x1
    80007ebc:	001fd093          	srli	ra,t6,0x1
    80007ec0:	00028863          	beqz	t0,80007ed0 <__perf_end+0x5a0>
    80007ec4:	0170c633          	xor	a2,ra,s7
    80007ec8:	03061693          	slli	a3,a2,0x30
    80007ecc:	0306d093          	srli	ra,a3,0x30
    80007ed0:	00134e33          	xor	t3,t1,ra
    80007ed4:	001e7813          	andi	a6,t3,1
    80007ed8:	0023d893          	srli	a7,t2,0x2
    80007edc:	0010de93          	srli	t4,ra,0x1
    80007ee0:	00080863          	beqz	a6,80007ef0 <__perf_end+0x5c0>
    80007ee4:	017ec7b3          	xor	a5,t4,s7
    80007ee8:	03079593          	slli	a1,a5,0x30
    80007eec:	0305de93          	srli	t4,a1,0x30
    80007ef0:	01d8cf33          	xor	t5,a7,t4
    80007ef4:	001f7f93          	andi	t6,t5,1
    80007ef8:	0033d513          	srli	a0,t2,0x3
    80007efc:	001ed313          	srli	t1,t4,0x1
    80007f00:	000f8863          	beqz	t6,80007f10 <__perf_end+0x5e0>
    80007f04:	01734733          	xor	a4,t1,s7
    80007f08:	03071293          	slli	t0,a4,0x30
    80007f0c:	0302d313          	srli	t1,t0,0x30
    80007f10:	00654633          	xor	a2,a0,t1
    80007f14:	00167693          	andi	a3,a2,1
    80007f18:	0043d093          	srli	ra,t2,0x4
    80007f1c:	00135893          	srli	a7,t1,0x1
    80007f20:	00068863          	beqz	a3,80007f30 <__perf_end+0x600>
    80007f24:	0178ce33          	xor	t3,a7,s7
    80007f28:	030e1813          	slli	a6,t3,0x30
    80007f2c:	03085893          	srli	a7,a6,0x30
    80007f30:	0110c7b3          	xor	a5,ra,a7
    80007f34:	0017f593          	andi	a1,a5,1
    80007f38:	0053de93          	srli	t4,t2,0x5
    80007f3c:	0018d513          	srli	a0,a7,0x1
    80007f40:	00058863          	beqz	a1,80007f50 <__perf_end+0x620>
    80007f44:	01754f33          	xor	t5,a0,s7
    80007f48:	030f1f93          	slli	t6,t5,0x30
    80007f4c:	030fd513          	srli	a0,t6,0x30
    80007f50:	00aec733          	xor	a4,t4,a0
    80007f54:	00177293          	andi	t0,a4,1
    80007f58:	0063d313          	srli	t1,t2,0x6
    80007f5c:	00155093          	srli	ra,a0,0x1
    80007f60:	00028863          	beqz	t0,80007f70 <__perf_end+0x640>
    80007f64:	0170c633          	xor	a2,ra,s7
    80007f68:	03061693          	slli	a3,a2,0x30
    80007f6c:	0306d093          	srli	ra,a3,0x30
    80007f70:	00134e33          	xor	t3,t1,ra
    80007f74:	001e7813          	andi	a6,t3,1
    80007f78:	0073d393          	srli	t2,t2,0x7
    80007f7c:	0010d593          	srli	a1,ra,0x1
    80007f80:	00080863          	beqz	a6,80007f90 <__perf_end+0x660>
    80007f84:	0175c8b3          	xor	a7,a1,s7
    80007f88:	03089793          	slli	a5,a7,0x30
    80007f8c:	0307d593          	srli	a1,a5,0x30
    80007f90:	0015fe93          	andi	t4,a1,1
    80007f94:	0015d513          	srli	a0,a1,0x1
    80007f98:	007e8863          	beq	t4,t2,80007fa8 <__perf_end+0x678>
    80007f9c:	01754f33          	xor	t5,a0,s7
    80007fa0:	030f1f93          	slli	t6,t5,0x30
    80007fa4:	030fd513          	srli	a0,t6,0x30
    80007fa8:	06a11023          	sh	a0,96(sp)
    80007fac:	04040463          	beqz	s0,80007ff4 <__perf_end+0x6c4>
    80007fb0:	0014041b          	addiw	s0,s0,1
    80007fb4:	bc8918e3          	bne	s2,s0,80007b84 <__perf_end+0x254>
    80007fb8:	b0002973          	csrr	s2,mcycle
    80007fbc:	02091713          	slli	a4,s2,0x20
    80007fc0:	02075293          	srli	t0,a4,0x20
    80007fc4:	005a3023          	sd	t0,0(s4)
    80007fc8:	413909bb          	subw	s3,s2,s3
    80007fcc:	b93b74e3          	bgeu	s6,s3,80007b54 <__perf_end+0x224>
    80007fd0:	3e800b93          	li	s7,1000
    80007fd4:	0379db3b          	divuw	s6,s3,s7
    80007fd8:	00a00613          	li	a2,10
    80007fdc:	02c12303          	lw	t1,44(sp)
    80007fe0:	036656bb          	divuw	a3,a2,s6
    80007fe4:	0016809b          	addiw	ra,a3,1
    80007fe8:	02608e3b          	mulw	t3,ra,t1
    80007fec:	03c12623          	sw	t3,44(sp)
    80007ff0:	929ff06f          	j	80007918 <main+0x134>
    80007ff4:	06a11123          	sh	a0,98(sp)
    80007ff8:	00100413          	li	s0,1
    80007ffc:	b89ff06f          	j	80007b84 <__perf_end+0x254>
    80008000:	000f2b83          	lw	s7,0(t5)
    80008004:	00247b13          	andi	s6,s0,2
    80008008:	00447e93          	andi	t4,s0,4
    8000800c:	ac0b02e3          	beqz	s6,80007ad0 <__perf_end+0x1a0>
    80008010:	000106b7          	lui	a3,0x10
    80008014:	febb851b          	addiw	a0,s7,-21
    80008018:	fea68813          	addi	a6,a3,-22 # ffea <_start-0x7fff0016>
    8000801c:	16a86663          	bltu	a6,a0,80008188 <__perf_end+0x858>
    80008020:	ffcbff93          	andi	t6,s7,-4
    80008024:	030f9e13          	slli	t3,t6,0x30
    80008028:	030e5913          	srli	s2,t3,0x30
    8000802c:	0019039b          	addiw	t2,s2,1
    80008030:	0029089b          	addiw	a7,s2,2
    80008034:	03039a93          	slli	s5,t2,0x30
    80008038:	03089793          	slli	a5,a7,0x30
    8000803c:	030ad493          	srli	s1,s5,0x30
    80008040:	0307d093          	srli	ra,a5,0x30
    80008044:	002bd51b          	srliw	a0,s7,0x2
    80008048:	0004829b          	sext.w	t0,s1
    8000804c:	0000831b          	sext.w	t1,ra
    80008050:	00002417          	auipc	s0,0x2
    80008054:	bf843403          	ld	s0,-1032(s0) # 80009c48 <pow10.0+0x58>
    80008058:	00002617          	auipc	a2,0x2
    8000805c:	bf863603          	ld	a2,-1032(a2) # 80009c50 <pow10.0+0x60>
    80008060:	00002b17          	auipc	s6,0x2
    80008064:	bf8b3b03          	ld	s6,-1032(s6) # 80009c58 <pow10.0+0x68>
    80008068:	00002f17          	auipc	t5,0x2
    8000806c:	bd8f3f03          	ld	t5,-1064(t5) # 80009c40 <pow10.0+0x50>
    80008070:	00000593          	li	a1,0
    80008074:	0140006f          	j	80008088 <__perf_end+0x758>
    80008078:	001a8a1b          	addiw	s4,s5,1
    8000807c:	030a1993          	slli	s3,s4,0x30
    80008080:	0309d593          	srli	a1,s3,0x30
    80008084:	0775f463          	bgeu	a1,s7,800080ec <__perf_end+0x7bc>
    80008088:	00058a93          	mv	s5,a1
    8000808c:	fe0e86e3          	beqz	t4,80008078 <__perf_end+0x748>
    80008090:	00000a13          	li	s4,0
    80008094:	000f0993          	mv	s3,t5
    80008098:	0089c5b3          	xor	a1,s3,s0
    8000809c:	0169f733          	and	a4,s3,s6
    800080a0:	00c5f6b3          	and	a3,a1,a2
    800080a4:	00870833          	add	a6,a4,s0
    800080a8:	001a0a1b          	addiw	s4,s4,1
    800080ac:	00098793          	mv	a5,s3
    800080b0:	0106c9b3          	xor	s3,a3,a6
    800080b4:	feaa62e3          	bltu	s4,a0,80008098 <__perf_end+0x768>
    800080b8:	0307de13          	srli	t3,a5,0x30
    800080bc:	01fb8863          	beq	s7,t6,800080cc <__perf_end+0x79c>
    800080c0:	1172fa63          	bgeu	t0,s7,800081d4 <__perf_end+0x8a4>
    800080c4:	11737c63          	bgeu	t1,s7,800081dc <__perf_end+0x8ac>
    800080c8:	00008e13          	mv	t3,ra
    800080cc:	002e039b          	addiw	t2,t3,2
    800080d0:	03039893          	slli	a7,t2,0x30
    800080d4:	0308da93          	srli	s5,a7,0x30
    800080d8:	fb7aece3          	bltu	s5,s7,80008090 <__perf_end+0x760>
    800080dc:	001a8a1b          	addiw	s4,s5,1
    800080e0:	030a1993          	slli	s3,s4,0x30
    800080e4:	0309d593          	srli	a1,s3,0x30
    800080e8:	fb75e0e3          	bltu	a1,s7,80008088 <__perf_end+0x758>
    800080ec:	002a871b          	addiw	a4,s5,2
    800080f0:	03071693          	slli	a3,a4,0x30
    800080f4:	0306d813          	srli	a6,a3,0x30
    800080f8:	f7786ce3          	bltu	a6,s7,80008070 <__perf_end+0x740>
    800080fc:	9d5ff06f          	j	80007ad0 <__perf_end+0x1a0>
    80008100:	03fb833b          	mulw	t1,s7,t6
    80008104:	02031393          	slli	t2,t1,0x20
    80008108:	0203d493          	srli	s1,t2,0x20
    8000810c:	00968533          	add	a0,a3,s1
    80008110:	02a13023          	sd	a0,32(sp)
    80008114:	fc078a63          	beqz	a5,800078e8 <main+0x104>
    80008118:	991ff06f          	j	80007aa8 <__perf_end+0x178>
    8000811c:	03fa073b          	mulw	a4,s4,t6
    80008120:	02071613          	slli	a2,a4,0x20
    80008124:	02065093          	srli	ra,a2,0x20
    80008128:	001682b3          	add	t0,a3,ra
    8000812c:	00513c23          	sd	t0,24(sp)
    80008130:	fa0b0a63          	beqz	s6,800078e4 <main+0x100>
    80008134:	fcdff06f          	j	80008100 <__perf_end+0x7d0>
    80008138:	00d13823          	sd	a3,16(sp)
    8000813c:	fa090263          	beqz	s2,800078e0 <main+0xfc>
    80008140:	fddff06f          	j	8000811c <__perf_end+0x7ec>
    80008144:	00006737          	lui	a4,0x6
    80008148:	0000c2b7          	lui	t0,0xc
    8000814c:	0000d9b7          	lui	s3,0xd
    80008150:	e4770613          	addi	a2,a4,-441 # 5e47 <_start-0x7fffa1b9>
    80008154:	e5228093          	addi	ra,t0,-430 # be52 <_start-0x7fff41ae>
    80008158:	4b098813          	addi	a6,s3,1200 # d4b0 <_start-0x7fff2b50>
    8000815c:	855ff06f          	j	800079b0 <__perf_end+0x80>
    80008160:	000098b7          	lui	a7,0x9
    80008164:	0000eab7          	lui	s5,0xe
    80008168:	d8488613          	addi	a2,a7,-636 # 8d84 <_start-0x7fff727c>
    8000816c:	74700093          	li	ra,1863
    80008170:	3c1a8813          	addi	a6,s5,961 # e3c1 <_start-0x7fff1c3f>
    80008174:	83dff06f          	j	800079b0 <__perf_end+0x80>
    80008178:	002b0f9b          	addiw	t6,s6,2
    8000817c:	030f9793          	slli	a5,t6,0x30
    80008180:	0307de13          	srli	t3,a5,0x30
    80008184:	957e76e3          	bgeu	t3,s7,80007ad0 <__perf_end+0x1a0>
    80008188:	00000f13          	li	t5,0
    8000818c:	0140006f          	j	800081a0 <__perf_end+0x870>
    80008190:	001b091b          	addiw	s2,s6,1
    80008194:	03091513          	slli	a0,s2,0x30
    80008198:	03055f13          	srli	t5,a0,0x30
    8000819c:	fd7f7ee3          	bgeu	t5,s7,80008178 <__perf_end+0x848>
    800081a0:	000f0b13          	mv	s6,t5
    800081a4:	fe0e86e3          	beqz	t4,80008190 <__perf_end+0x860>
    800081a8:	00000093          	li	ra,0
    800081ac:	0010829b          	addiw	t0,ra,1
    800081b0:	03029313          	slli	t1,t0,0x30
    800081b4:	00008613          	mv	a2,ra
    800081b8:	03035093          	srli	ra,t1,0x30
    800081bc:	ff70e8e3          	bltu	ra,s7,800081ac <__perf_end+0x87c>
    800081c0:	0026049b          	addiw	s1,a2,2
    800081c4:	03049413          	slli	s0,s1,0x30
    800081c8:	03045b13          	srli	s6,s0,0x30
    800081cc:	fd7b6ee3          	bltu	s6,s7,800081a8 <__perf_end+0x878>
    800081d0:	fc1ff06f          	j	80008190 <__perf_end+0x860>
    800081d4:	00090e13          	mv	t3,s2
    800081d8:	ef5ff06f          	j	800080cc <__perf_end+0x79c>
    800081dc:	00048e13          	mv	t3,s1
    800081e0:	eedff06f          	j	800080cc <__perf_end+0x79c>
    800081e4:	00004f37          	lui	t5,0x4
    800081e8:	00001fb7          	lui	t6,0x1
    800081ec:	00003437          	lui	s0,0x3
    800081f0:	9bff0613          	addi	a2,t5,-1601 # 39bf <_start-0x7fffc641>
    800081f4:	199f8093          	addi	ra,t6,409 # 1199 <_start-0x7fffee67>
    800081f8:	34040813          	addi	a6,s0,832 # 3340 <_start-0x7fffccc0>
    800081fc:	fb4ff06f          	j	800079b0 <__perf_end+0x80>
    80008200:	03012403          	lw	s0,48(sp)
    80008204:	00147f13          	andi	t5,s0,1
    80008208:	8c0f04e3          	beqz	t5,80007ad0 <__perf_end+0x1a0>
    8000820c:	00002b97          	auipc	s7,0x2
    80008210:	aecbab83          	lw	s7,-1300(s7) # 80009cf8 <default_num_contexts>
    80008214:	de0b98e3          	bnez	s7,80008004 <__perf_end+0x6d4>
    80008218:	8b9ff06f          	j	80007ad0 <__perf_end+0x1a0>

Disassembly of section .text._putc:

000000008000821c <_putc>:
    8000821c:	00008067          	ret

Disassembly of section .text._halt:

0000000080008220 <_halt>:
    80008220:	ff010113          	addi	sp,sp,-16
    80008224:	00113423          	sd	ra,8(sp)
    80008228:	00050593          	mv	a1,a0
    8000822c:	00050513          	mv	a0,a0
    80008230:	0005006b          	.word	0x0005006b
    80008234:	00001517          	auipc	a0,0x1
    80008238:	7e450513          	addi	a0,a0,2020 # 80009a18 <errpat+0x118>
    8000823c:	5f4010ef          	jal	ra,80009830 <printf_>
    80008240:	0000006f          	j	80008240 <_halt+0x20>

Disassembly of section .text._trm_init:

0000000080008244 <_trm_init>:
    80008244:	ff010113          	addi	sp,sp,-16
    80008248:	00001517          	auipc	a0,0x1
    8000824c:	7e550513          	addi	a0,a0,2021 # 80009a2d <__am_mainargs>
    80008250:	00113423          	sd	ra,8(sp)
    80008254:	d90ff0ef          	jal	ra,800077e4 <main>
    80008258:	fc9ff0ef          	jal	ra,80008220 <_halt>

Disassembly of section .text._out_null:

000000008000825c <_out_null>:
    8000825c:	00008067          	ret

Disassembly of section .text._out_rev:

0000000080008260 <_out_rev>:
    80008260:	fa010113          	addi	sp,sp,-96
    80008264:	04913423          	sd	s1,72(sp)
    80008268:	05213023          	sd	s2,64(sp)
    8000826c:	03313c23          	sd	s3,56(sp)
    80008270:	03413823          	sd	s4,48(sp)
    80008274:	03513423          	sd	s5,40(sp)
    80008278:	03613023          	sd	s6,32(sp)
    8000827c:	00060a93          	mv	s5,a2
    80008280:	01813823          	sd	s8,16(sp)
    80008284:	01913423          	sd	s9,8(sp)
    80008288:	01a13023          	sd	s10,0(sp)
    8000828c:	04113c23          	sd	ra,88(sp)
    80008290:	04813823          	sd	s0,80(sp)
    80008294:	01713c23          	sd	s7,24(sp)
    80008298:	0038f613          	andi	a2,a7,3
    8000829c:	00088c93          	mv	s9,a7
    800082a0:	00050913          	mv	s2,a0
    800082a4:	00058993          	mv	s3,a1
    800082a8:	00068a13          	mv	s4,a3
    800082ac:	00070b13          	mv	s6,a4
    800082b0:	00078d13          	mv	s10,a5
    800082b4:	00080c13          	mv	s8,a6
    800082b8:	000a8493          	mv	s1,s5
    800082bc:	02061c63          	bnez	a2,800082f4 <_out_rev+0x94>
    800082c0:	02081793          	slli	a5,a6,0x20
    800082c4:	0207d793          	srli	a5,a5,0x20
    800082c8:	41a784b3          	sub	s1,a5,s10
    800082cc:	015484b3          	add	s1,s1,s5
    800082d0:	000a8413          	mv	s0,s5
    800082d4:	0cfd7063          	bgeu	s10,a5,80008394 <_out_rev+0x134>
    800082d8:	00040613          	mv	a2,s0
    800082dc:	000a0693          	mv	a3,s4
    800082e0:	00140413          	addi	s0,s0,1
    800082e4:	00098593          	mv	a1,s3
    800082e8:	02000513          	li	a0,32
    800082ec:	000900e7          	jalr	s2
    800082f0:	fe9414e3          	bne	s0,s1,800082d8 <_out_rev+0x78>
    800082f4:	01ab0433          	add	s0,s6,s10
    800082f8:	00940bb3          	add	s7,s0,s1
    800082fc:	020d0263          	beqz	s10,80008320 <_out_rev+0xc0>
    80008300:	fff44503          	lbu	a0,-1(s0)
    80008304:	408b8633          	sub	a2,s7,s0
    80008308:	000a0693          	mv	a3,s4
    8000830c:	fff40413          	addi	s0,s0,-1
    80008310:	00098593          	mv	a1,s3
    80008314:	000900e7          	jalr	s2
    80008318:	fe8b14e3          	bne	s6,s0,80008300 <_out_rev+0xa0>
    8000831c:	01a484b3          	add	s1,s1,s10
    80008320:	002cfc93          	andi	s9,s9,2
    80008324:	020c8a63          	beqz	s9,80008358 <_out_rev+0xf8>
    80008328:	020c1c13          	slli	s8,s8,0x20
    8000832c:	41548ab3          	sub	s5,s1,s5
    80008330:	020c5c13          	srli	s8,s8,0x20
    80008334:	038af263          	bgeu	s5,s8,80008358 <_out_rev+0xf8>
    80008338:	00048613          	mv	a2,s1
    8000833c:	001a8a93          	addi	s5,s5,1
    80008340:	000a0693          	mv	a3,s4
    80008344:	00098593          	mv	a1,s3
    80008348:	02000513          	li	a0,32
    8000834c:	00148493          	addi	s1,s1,1
    80008350:	000900e7          	jalr	s2
    80008354:	ff8ae2e3          	bltu	s5,s8,80008338 <_out_rev+0xd8>
    80008358:	05813083          	ld	ra,88(sp)
    8000835c:	05013403          	ld	s0,80(sp)
    80008360:	04013903          	ld	s2,64(sp)
    80008364:	03813983          	ld	s3,56(sp)
    80008368:	03013a03          	ld	s4,48(sp)
    8000836c:	02813a83          	ld	s5,40(sp)
    80008370:	02013b03          	ld	s6,32(sp)
    80008374:	01813b83          	ld	s7,24(sp)
    80008378:	01013c03          	ld	s8,16(sp)
    8000837c:	00813c83          	ld	s9,8(sp)
    80008380:	00013d03          	ld	s10,0(sp)
    80008384:	00048513          	mv	a0,s1
    80008388:	04813483          	ld	s1,72(sp)
    8000838c:	06010113          	addi	sp,sp,96
    80008390:	00008067          	ret
    80008394:	000a8493          	mv	s1,s5
    80008398:	f5dff06f          	j	800082f4 <_out_rev+0x94>

Disassembly of section .text._ntoa_long:

000000008000839c <_ntoa_long>:
    8000839c:	fb010113          	addi	sp,sp,-80
    800083a0:	04113423          	sd	ra,72(sp)
    800083a4:	05812083          	lw	ra,88(sp)
    800083a8:	02913c23          	sd	s1,56(sp)
    800083ac:	03313423          	sd	s3,40(sp)
    800083b0:	04813023          	sd	s0,64(sp)
    800083b4:	03213823          	sd	s2,48(sp)
    800083b8:	00080e93          	mv	t4,a6
    800083bc:	00070e13          	mv	t3,a4
    800083c0:	05012803          	lw	a6,80(sp)
    800083c4:	00078493          	mv	s1,a5
    800083c8:	4000f993          	andi	s3,ra,1024
    800083cc:	0c071e63          	bnez	a4,800084a8 <_ntoa_long+0x10c>
    800083d0:	00008913          	mv	s2,ra
    800083d4:	fef0f093          	andi	ra,ra,-17
    800083d8:	0e099463          	bnez	s3,800084c0 <_ntoa_long+0x124>
    800083dc:	0200f793          	andi	a5,ra,32
    800083e0:	00000913          	li	s2,0
    800083e4:	06100293          	li	t0,97
    800083e8:	0c079863          	bnez	a5,800084b8 <_ntoa_long+0x11c>
    800083ec:	00000793          	li	a5,0
    800083f0:	00010713          	mv	a4,sp
    800083f4:	00900393          	li	t2,9
    800083f8:	ff62829b          	addiw	t0,t0,-10
    800083fc:	02000413          	li	s0,32
    80008400:	00c0006f          	j	8000840c <_ntoa_long+0x70>
    80008404:	02878c63          	beq	a5,s0,8000843c <_ntoa_long+0xa0>
    80008408:	00030e13          	mv	t3,t1
    8000840c:	03de7f33          	remu	t5,t3,t4
    80008410:	0fff7313          	zext.b	t1,t5
    80008414:	03030f9b          	addiw	t6,t1,48
    80008418:	0062833b          	addw	t1,t0,t1
    8000841c:	0ff37313          	zext.b	t1,t1
    80008420:	01e3e463          	bltu	t2,t5,80008428 <_ntoa_long+0x8c>
    80008424:	0ffff313          	zext.b	t1,t6
    80008428:	00178793          	addi	a5,a5,1
    8000842c:	00f70f33          	add	t5,a4,a5
    80008430:	fe6f0fa3          	sb	t1,-1(t5)
    80008434:	03de5333          	divu	t1,t3,t4
    80008438:	fdde76e3          	bgeu	t3,t4,80008404 <_ntoa_long+0x68>
    8000843c:	0020f313          	andi	t1,ra,2
    80008440:	08030863          	beqz	t1,800084d0 <_ntoa_long+0x134>
    80008444:	14090863          	beqz	s2,80008594 <_ntoa_long+0x1f8>
    80008448:	10099e63          	bnez	s3,80008564 <_ntoa_long+0x1c8>
    8000844c:	10079063          	bnez	a5,8000854c <_ntoa_long+0x1b0>
    80008450:	01000793          	li	a5,16
    80008454:	26fe8063          	beq	t4,a5,800086b4 <_ntoa_long+0x318>
    80008458:	00200793          	li	a5,2
    8000845c:	28fe8063          	beq	t4,a5,800086dc <_ntoa_long+0x340>
    80008460:	03000793          	li	a5,48
    80008464:	00f10023          	sb	a5,0(sp)
    80008468:	00100793          	li	a5,1
    8000846c:	16048463          	beqz	s1,800085d4 <_ntoa_long+0x238>
    80008470:	02078893          	addi	a7,a5,32
    80008474:	002888b3          	add	a7,a7,sp
    80008478:	02d00313          	li	t1,45
    8000847c:	fe688023          	sb	t1,-32(a7)
    80008480:	00178793          	addi	a5,a5,1
    80008484:	00008893          	mv	a7,ra
    80008488:	dd9ff0ef          	jal	ra,80008260 <_out_rev>
    8000848c:	04813083          	ld	ra,72(sp)
    80008490:	04013403          	ld	s0,64(sp)
    80008494:	03813483          	ld	s1,56(sp)
    80008498:	03013903          	ld	s2,48(sp)
    8000849c:	02813983          	ld	s3,40(sp)
    800084a0:	05010113          	addi	sp,sp,80
    800084a4:	00008067          	ret
    800084a8:	0200f793          	andi	a5,ra,32
    800084ac:	0100f913          	andi	s2,ra,16
    800084b0:	06100293          	li	t0,97
    800084b4:	f2078ce3          	beqz	a5,800083ec <_ntoa_long+0x50>
    800084b8:	04100293          	li	t0,65
    800084bc:	f31ff06f          	j	800083ec <_ntoa_long+0x50>
    800084c0:	00297913          	andi	s2,s2,2
    800084c4:	00000793          	li	a5,0
    800084c8:	00010713          	mv	a4,sp
    800084cc:	fa0910e3          	bnez	s2,8000846c <_ntoa_long+0xd0>
    800084d0:	02089e13          	slli	t3,a7,0x20
    800084d4:	020e5e13          	srli	t3,t3,0x20
    800084d8:	00008313          	mv	t1,ra
    800084dc:	0010f293          	andi	t0,ra,1
    800084e0:	0c081263          	bnez	a6,800085a4 <_ntoa_long+0x208>
    800084e4:	03c7f663          	bgeu	a5,t3,80008510 <_ntoa_long+0x174>
    800084e8:	02000313          	li	t1,32
    800084ec:	02678263          	beq	a5,t1,80008510 <_ntoa_long+0x174>
    800084f0:	03000f13          	li	t5,48
    800084f4:	02000f93          	li	t6,32
    800084f8:	0080006f          	j	80008500 <_ntoa_long+0x164>
    800084fc:	01f78a63          	beq	a5,t6,80008510 <_ntoa_long+0x174>
    80008500:	00178793          	addi	a5,a5,1
    80008504:	00f70333          	add	t1,a4,a5
    80008508:	ffe30fa3          	sb	t5,-1(t1)
    8000850c:	ffc7e8e3          	bltu	a5,t3,800084fc <_ntoa_long+0x160>
    80008510:	f2028ae3          	beqz	t0,80008444 <_ntoa_long+0xa8>
    80008514:	02081f13          	slli	t5,a6,0x20
    80008518:	020f5f13          	srli	t5,t5,0x20
    8000851c:	f3e7f4e3          	bgeu	a5,t5,80008444 <_ntoa_long+0xa8>
    80008520:	02000313          	li	t1,32
    80008524:	03000f93          	li	t6,48
    80008528:	02000293          	li	t0,32
    8000852c:	00679663          	bne	a5,t1,80008538 <_ntoa_long+0x19c>
    80008530:	0940006f          	j	800085c4 <_ntoa_long+0x228>
    80008534:	08578863          	beq	a5,t0,800085c4 <_ntoa_long+0x228>
    80008538:	00178793          	addi	a5,a5,1
    8000853c:	00f70333          	add	t1,a4,a5
    80008540:	fff30fa3          	sb	t6,-1(t1)
    80008544:	ffe798e3          	bne	a5,t5,80008534 <_ntoa_long+0x198>
    80008548:	efdff06f          	j	80008444 <_ntoa_long+0xa8>
    8000854c:	02089e13          	slli	t3,a7,0x20
    80008550:	020e5e13          	srli	t3,t3,0x20
    80008554:	0efe0a63          	beq	t3,a5,80008648 <_ntoa_long+0x2ac>
    80008558:	02081893          	slli	a7,a6,0x20
    8000855c:	0208d893          	srli	a7,a7,0x20
    80008560:	0ef88463          	beq	a7,a5,80008648 <_ntoa_long+0x2ac>
    80008564:	01000893          	li	a7,16
    80008568:	111e8463          	beq	t4,a7,80008670 <_ntoa_long+0x2d4>
    8000856c:	00200893          	li	a7,2
    80008570:	0b1e8e63          	beq	t4,a7,8000862c <_ntoa_long+0x290>
    80008574:	02000893          	li	a7,32
    80008578:	f11786e3          	beq	a5,a7,80008484 <_ntoa_long+0xe8>
    8000857c:	00078893          	mv	a7,a5
    80008580:	02088793          	addi	a5,a7,32
    80008584:	00278333          	add	t1,a5,sp
    80008588:	00188793          	addi	a5,a7,1
    8000858c:	03000893          	li	a7,48
    80008590:	ff130023          	sb	a7,-32(t1)
    80008594:	02000893          	li	a7,32
    80008598:	ed179ae3          	bne	a5,a7,8000846c <_ntoa_long+0xd0>
    8000859c:	02000793          	li	a5,32
    800085a0:	ee5ff06f          	j	80008484 <_ntoa_long+0xe8>
    800085a4:	04028c63          	beqz	t0,800085fc <_ntoa_long+0x260>
    800085a8:	08049c63          	bnez	s1,80008640 <_ntoa_long+0x2a4>
    800085ac:	00c37313          	andi	t1,t1,12
    800085b0:	08031863          	bnez	t1,80008640 <_ntoa_long+0x2a4>
    800085b4:	f7c7f0e3          	bgeu	a5,t3,80008514 <_ntoa_long+0x178>
    800085b8:	02000313          	li	t1,32
    800085bc:	f2679ae3          	bne	a5,t1,800084f0 <_ntoa_long+0x154>
    800085c0:	e907f2e3          	bgeu	a5,a6,80008444 <_ntoa_long+0xa8>
    800085c4:	fc090ce3          	beqz	s2,8000859c <_ntoa_long+0x200>
    800085c8:	02000793          	li	a5,32
    800085cc:	f80984e3          	beqz	s3,80008554 <_ntoa_long+0x1b8>
    800085d0:	f95ff06f          	j	80008564 <_ntoa_long+0x1c8>
    800085d4:	0040f893          	andi	a7,ra,4
    800085d8:	02089e63          	bnez	a7,80008614 <_ntoa_long+0x278>
    800085dc:	0080f893          	andi	a7,ra,8
    800085e0:	ea0882e3          	beqz	a7,80008484 <_ntoa_long+0xe8>
    800085e4:	02078893          	addi	a7,a5,32
    800085e8:	002888b3          	add	a7,a7,sp
    800085ec:	02000313          	li	t1,32
    800085f0:	fe688023          	sb	t1,-32(a7)
    800085f4:	00178793          	addi	a5,a5,1
    800085f8:	e8dff06f          	j	80008484 <_ntoa_long+0xe8>
    800085fc:	e5c7f4e3          	bgeu	a5,t3,80008444 <_ntoa_long+0xa8>
    80008600:	02000313          	li	t1,32
    80008604:	ee6796e3          	bne	a5,t1,800084f0 <_ntoa_long+0x154>
    80008608:	e40910e3          	bnez	s2,80008448 <_ntoa_long+0xac>
    8000860c:	02000793          	li	a5,32
    80008610:	e75ff06f          	j	80008484 <_ntoa_long+0xe8>
    80008614:	02078893          	addi	a7,a5,32
    80008618:	002888b3          	add	a7,a7,sp
    8000861c:	02b00313          	li	t1,43
    80008620:	fe688023          	sb	t1,-32(a7)
    80008624:	00178793          	addi	a5,a5,1
    80008628:	e5dff06f          	j	80008484 <_ntoa_long+0xe8>
    8000862c:	02000893          	li	a7,32
    80008630:	e5178ae3          	beq	a5,a7,80008484 <_ntoa_long+0xe8>
    80008634:	00f708b3          	add	a7,a4,a5
    80008638:	00178793          	addi	a5,a5,1
    8000863c:	0280006f          	j	80008664 <_ntoa_long+0x2c8>
    80008640:	fff8081b          	addiw	a6,a6,-1
    80008644:	f71ff06f          	j	800085b4 <_ntoa_long+0x218>
    80008648:	fff78893          	addi	a7,a5,-1
    8000864c:	e00882e3          	beqz	a7,80008450 <_ntoa_long+0xb4>
    80008650:	01000313          	li	t1,16
    80008654:	086e8c63          	beq	t4,t1,800086ec <_ntoa_long+0x350>
    80008658:	00200313          	li	t1,2
    8000865c:	f26e92e3          	bne	t4,t1,80008580 <_ntoa_long+0x1e4>
    80008660:	011708b3          	add	a7,a4,a7
    80008664:	06200313          	li	t1,98
    80008668:	00688023          	sb	t1,0(a7)
    8000866c:	f09ff06f          	j	80008574 <_ntoa_long+0x1d8>
    80008670:	0200f893          	andi	a7,ra,32
    80008674:	02089063          	bnez	a7,80008694 <_ntoa_long+0x2f8>
    80008678:	02000893          	li	a7,32
    8000867c:	e11784e3          	beq	a5,a7,80008484 <_ntoa_long+0xe8>
    80008680:	00f70333          	add	t1,a4,a5
    80008684:	00178793          	addi	a5,a5,1
    80008688:	07800893          	li	a7,120
    8000868c:	01130023          	sb	a7,0(t1)
    80008690:	ee5ff06f          	j	80008574 <_ntoa_long+0x1d8>
    80008694:	02000893          	li	a7,32
    80008698:	df1786e3          	beq	a5,a7,80008484 <_ntoa_long+0xe8>
    8000869c:	02078893          	addi	a7,a5,32
    800086a0:	002888b3          	add	a7,a7,sp
    800086a4:	05800313          	li	t1,88
    800086a8:	fe688023          	sb	t1,-32(a7)
    800086ac:	00178793          	addi	a5,a5,1
    800086b0:	ec5ff06f          	j	80008574 <_ntoa_long+0x1d8>
    800086b4:	0200f793          	andi	a5,ra,32
    800086b8:	00079a63          	bnez	a5,800086cc <_ntoa_long+0x330>
    800086bc:	07800793          	li	a5,120
    800086c0:	00f10023          	sb	a5,0(sp)
    800086c4:	00100893          	li	a7,1
    800086c8:	eb9ff06f          	j	80008580 <_ntoa_long+0x1e4>
    800086cc:	05800793          	li	a5,88
    800086d0:	00f10023          	sb	a5,0(sp)
    800086d4:	00100893          	li	a7,1
    800086d8:	ea9ff06f          	j	80008580 <_ntoa_long+0x1e4>
    800086dc:	06200793          	li	a5,98
    800086e0:	00f10023          	sb	a5,0(sp)
    800086e4:	00100893          	li	a7,1
    800086e8:	e99ff06f          	j	80008580 <_ntoa_long+0x1e4>
    800086ec:	0200f313          	andi	t1,ra,32
    800086f0:	ffe78793          	addi	a5,a5,-2
    800086f4:	fa0314e3          	bnez	t1,8000869c <_ntoa_long+0x300>
    800086f8:	00f70333          	add	t1,a4,a5
    800086fc:	00088793          	mv	a5,a7
    80008700:	f89ff06f          	j	80008688 <_ntoa_long+0x2ec>

Disassembly of section .text._out_char:

0000000080008704 <_out_char>:
    80008704:	00051463          	bnez	a0,8000870c <_out_char+0x8>
    80008708:	00008067          	ret
    8000870c:	b11ff06f          	j	8000821c <_putc>

Disassembly of section .text._ftoa:

0000000080008710 <_ftoa>:
    80008710:	a2a52353          	feq.d	t1,fa0,fa0
    80008714:	00078f93          	mv	t6,a5
    80008718:	00080893          	mv	a7,a6
    8000871c:	1e030863          	beqz	t1,8000890c <_ftoa+0x1fc>
    80008720:	00001797          	auipc	a5,0x1
    80008724:	5407b787          	fld	fa5,1344(a5) # 80009c60 <pow10.0+0x70>
    80008728:	a2f517d3          	flt.d	a5,fa0,fa5
    8000872c:	2c079263          	bnez	a5,800089f0 <_ftoa+0x2e0>
    80008730:	00001797          	auipc	a5,0x1
    80008734:	5387b787          	fld	fa5,1336(a5) # 80009c68 <pow10.0+0x78>
    80008738:	a2a797d3          	flt.d	a5,fa5,fa0
    8000873c:	fc010113          	addi	sp,sp,-64
    80008740:	02813823          	sd	s0,48(sp)
    80008744:	02913423          	sd	s1,40(sp)
    80008748:	02113c23          	sd	ra,56(sp)
    8000874c:	00050293          	mv	t0,a0
    80008750:	00058393          	mv	t2,a1
    80008754:	00060413          	mv	s0,a2
    80008758:	00068493          	mv	s1,a3
    8000875c:	16079a63          	bnez	a5,800088d0 <_ftoa+0x1c0>
    80008760:	00001797          	auipc	a5,0x1
    80008764:	5107b787          	fld	fa5,1296(a5) # 80009c70 <pow10.0+0x80>
    80008768:	a2a797d3          	flt.d	a5,fa5,fa0
    8000876c:	24079c63          	bnez	a5,800089c4 <_ftoa+0x2b4>
    80008770:	00001797          	auipc	a5,0x1
    80008774:	5087b787          	fld	fa5,1288(a5) # 80009c78 <pow10.0+0x88>
    80008778:	a2f517d3          	flt.d	a5,fa0,fa5
    8000877c:	24079463          	bnez	a5,800089c4 <_ftoa+0x2b4>
    80008780:	f20007d3          	fmv.d.x	fa5,zero
    80008784:	00000593          	li	a1,0
    80008788:	a2f517d3          	flt.d	a5,fa0,fa5
    8000878c:	22079663          	bnez	a5,800089b8 <_ftoa+0x2a8>
    80008790:	4008f793          	andi	a5,a7,1024
    80008794:	00079463          	bnez	a5,8000879c <_ftoa+0x8c>
    80008798:	00600713          	li	a4,6
    8000879c:	00000313          	li	t1,0
    800087a0:	00900793          	li	a5,9
    800087a4:	03000613          	li	a2,48
    800087a8:	02000693          	li	a3,32
    800087ac:	00e7fc63          	bgeu	a5,a4,800087c4 <_ftoa+0xb4>
    800087b0:	00130313          	addi	t1,t1,1
    800087b4:	00610e33          	add	t3,sp,t1
    800087b8:	fece0fa3          	sb	a2,-1(t3)
    800087bc:	fff7071b          	addiw	a4,a4,-1
    800087c0:	fed316e3          	bne	t1,a3,800087ac <_ftoa+0x9c>
    800087c4:	c20516d3          	fcvt.w.d	a3,fa0,rtz
    800087c8:	02071793          	slli	a5,a4,0x20
    800087cc:	01d7d613          	srli	a2,a5,0x1d
    800087d0:	d20687d3          	fcvt.d.w	fa5,a3
    800087d4:	00001797          	auipc	a5,0x1
    800087d8:	41c78793          	addi	a5,a5,1052 # 80009bf0 <pow10.0>
    800087dc:	00c787b3          	add	a5,a5,a2
    800087e0:	0af577d3          	fsub.d	fa5,fa0,fa5
    800087e4:	0007b687          	fld	fa3,0(a5)
    800087e8:	00001797          	auipc	a5,0x1
    800087ec:	4987b707          	fld	fa4,1176(a5) # 80009c80 <pow10.0+0x90>
    800087f0:	00068e1b          	sext.w	t3,a3
    800087f4:	12d7f7d3          	fmul.d	fa5,fa5,fa3
    800087f8:	c2379f53          	fcvt.lu.d	t5,fa5,rtz
    800087fc:	d23f7653          	fcvt.d.lu	fa2,t5
    80008800:	0ac7f7d3          	fsub.d	fa5,fa5,fa2
    80008804:	a2f717d3          	flt.d	a5,fa4,fa5
    80008808:	10078c63          	beqz	a5,80008920 <_ftoa+0x210>
    8000880c:	001f0f13          	addi	t5,t5,1
    80008810:	d23f77d3          	fcvt.d.lu	fa5,t5
    80008814:	a2f687d3          	fle.d	a5,fa3,fa5
    80008818:	00078663          	beqz	a5,80008824 <_ftoa+0x114>
    8000881c:	00168e1b          	addiw	t3,a3,1
    80008820:	00000f13          	li	t5,0
    80008824:	10071863          	bnez	a4,80008934 <_ftoa+0x224>
    80008828:	d20e07d3          	fcvt.d.w	fa5,t3
    8000882c:	0af57553          	fsub.d	fa0,fa0,fa5
    80008830:	a2e517d3          	flt.d	a5,fa0,fa4
    80008834:	00078663          	beqz	a5,80008840 <_ftoa+0x130>
    80008838:	a2a717d3          	flt.d	a5,fa4,fa0
    8000883c:	00078863          	beqz	a5,8000884c <_ftoa+0x13c>
    80008840:	001e7793          	andi	a5,t3,1
    80008844:	00078463          	beqz	a5,8000884c <_ftoa+0x13c>
    80008848:	001e0e1b          	addiw	t3,t3,1
    8000884c:	02000613          	li	a2,32
    80008850:	00a00793          	li	a5,10
    80008854:	12c30263          	beq	t1,a2,80008978 <_ftoa+0x268>
    80008858:	02fe673b          	remw	a4,t3,a5
    8000885c:	00130313          	addi	t1,t1,1
    80008860:	006106b3          	add	a3,sp,t1
    80008864:	02fe4e3b          	divw	t3,t3,a5
    80008868:	0307071b          	addiw	a4,a4,48
    8000886c:	fee68fa3          	sb	a4,-1(a3)
    80008870:	fe0e12e3          	bnez	t3,80008854 <_ftoa+0x144>
    80008874:	0038f793          	andi	a5,a7,3
    80008878:	00100713          	li	a4,1
    8000887c:	24e78463          	beq	a5,a4,80008ac4 <_ftoa+0x3b4>
    80008880:	02000713          	li	a4,32
    80008884:	10e30e63          	beq	t1,a4,800089a0 <_ftoa+0x290>
    80008888:	16058e63          	beqz	a1,80008a04 <_ftoa+0x2f4>
    8000888c:	02030793          	addi	a5,t1,32
    80008890:	00278733          	add	a4,a5,sp
    80008894:	02d00693          	li	a3,45
    80008898:	00130793          	addi	a5,t1,1
    8000889c:	fed70023          	sb	a3,-32(a4)
    800088a0:	00010713          	mv	a4,sp
    800088a4:	00048693          	mv	a3,s1
    800088a8:	00040613          	mv	a2,s0
    800088ac:	000f8813          	mv	a6,t6
    800088b0:	00038593          	mv	a1,t2
    800088b4:	00028513          	mv	a0,t0
    800088b8:	9a9ff0ef          	jal	ra,80008260 <_out_rev>
    800088bc:	03813083          	ld	ra,56(sp)
    800088c0:	03013403          	ld	s0,48(sp)
    800088c4:	02813483          	ld	s1,40(sp)
    800088c8:	04010113          	addi	sp,sp,64
    800088cc:	00008067          	ret
    800088d0:	00487793          	andi	a5,a6,4
    800088d4:	0c079a63          	bnez	a5,800089a8 <_ftoa+0x298>
    800088d8:	00001717          	auipc	a4,0x1
    800088dc:	16070713          	addi	a4,a4,352 # 80009a38 <__am_mainargs+0xb>
    800088e0:	00300793          	li	a5,3
    800088e4:	00040613          	mv	a2,s0
    800088e8:	03013403          	ld	s0,48(sp)
    800088ec:	03813083          	ld	ra,56(sp)
    800088f0:	00048693          	mv	a3,s1
    800088f4:	02813483          	ld	s1,40(sp)
    800088f8:	000f8813          	mv	a6,t6
    800088fc:	00038593          	mv	a1,t2
    80008900:	00028513          	mv	a0,t0
    80008904:	04010113          	addi	sp,sp,64
    80008908:	959ff06f          	j	80008260 <_out_rev>
    8000890c:	00078813          	mv	a6,a5
    80008910:	00001717          	auipc	a4,0x1
    80008914:	13070713          	addi	a4,a4,304 # 80009a40 <__am_mainargs+0x13>
    80008918:	00300793          	li	a5,3
    8000891c:	945ff06f          	j	80008260 <_out_rev>
    80008920:	a2e797d3          	flt.d	a5,fa5,fa4
    80008924:	f00790e3          	bnez	a5,80008824 <_ftoa+0x114>
    80008928:	160f1863          	bnez	t5,80008a98 <_ftoa+0x388>
    8000892c:	001f0f13          	addi	t5,t5,1
    80008930:	ee070ce3          	beqz	a4,80008828 <_ftoa+0x118>
    80008934:	fe07081b          	addiw	a6,a4,-32
    80008938:	0068083b          	addw	a6,a6,t1
    8000893c:	00a00693          	li	a3,10
    80008940:	00900093          	li	ra,9
    80008944:	0280006f          	j	8000896c <_ftoa+0x25c>
    80008948:	02df77b3          	remu	a5,t5,a3
    8000894c:	fff7051b          	addiw	a0,a4,-1
    80008950:	0307879b          	addiw	a5,a5,48
    80008954:	fef60fa3          	sb	a5,-1(a2)
    80008958:	02df57b3          	divu	a5,t5,a3
    8000895c:	0de0f863          	bgeu	ra,t5,80008a2c <_ftoa+0x31c>
    80008960:	00050713          	mv	a4,a0
    80008964:	000e8313          	mv	t1,t4
    80008968:	00078f13          	mv	t5,a5
    8000896c:	00130e93          	addi	t4,t1,1
    80008970:	01d10633          	add	a2,sp,t4
    80008974:	fd071ae3          	bne	a4,a6,80008948 <_ftoa+0x238>
    80008978:	0038f793          	andi	a5,a7,3
    8000897c:	00100713          	li	a4,1
    80008980:	02e79063          	bne	a5,a4,800089a0 <_ftoa+0x290>
    80008984:	02000793          	li	a5,32
    80008988:	f00f8ce3          	beqz	t6,800088a0 <_ftoa+0x190>
    8000898c:	10059e63          	bnez	a1,80008aa8 <_ftoa+0x398>
    80008990:	00c8f713          	andi	a4,a7,12
    80008994:	10070e63          	beqz	a4,80008ab0 <_ftoa+0x3a0>
    80008998:	ffff8f9b          	addiw	t6,t6,-1
    8000899c:	f1f7e2e3          	bltu	a5,t6,800088a0 <_ftoa+0x190>
    800089a0:	02000793          	li	a5,32
    800089a4:	efdff06f          	j	800088a0 <_ftoa+0x190>
    800089a8:	00001717          	auipc	a4,0x1
    800089ac:	08870713          	addi	a4,a4,136 # 80009a30 <__am_mainargs+0x3>
    800089b0:	00400793          	li	a5,4
    800089b4:	f31ff06f          	j	800088e4 <_ftoa+0x1d4>
    800089b8:	0aa7f553          	fsub.d	fa0,fa5,fa0
    800089bc:	00100593          	li	a1,1
    800089c0:	dd1ff06f          	j	80008790 <_ftoa+0x80>
    800089c4:	00040613          	mv	a2,s0
    800089c8:	03013403          	ld	s0,48(sp)
    800089cc:	03813083          	ld	ra,56(sp)
    800089d0:	00048693          	mv	a3,s1
    800089d4:	02813483          	ld	s1,40(sp)
    800089d8:	00088813          	mv	a6,a7
    800089dc:	000f8793          	mv	a5,t6
    800089e0:	00038593          	mv	a1,t2
    800089e4:	00028513          	mv	a0,t0
    800089e8:	04010113          	addi	sp,sp,64
    800089ec:	12c0006f          	j	80008b18 <_etoa>
    800089f0:	000f8813          	mv	a6,t6
    800089f4:	00400793          	li	a5,4
    800089f8:	00001717          	auipc	a4,0x1
    800089fc:	05070713          	addi	a4,a4,80 # 80009a48 <__am_mainargs+0x1b>
    80008a00:	861ff06f          	j	80008260 <_out_rev>
    80008a04:	0048f793          	andi	a5,a7,4
    80008a08:	06079c63          	bnez	a5,80008a80 <_ftoa+0x370>
    80008a0c:	0088f693          	andi	a3,a7,8
    80008a10:	00030793          	mv	a5,t1
    80008a14:	e80686e3          	beqz	a3,800088a0 <_ftoa+0x190>
    80008a18:	02030693          	addi	a3,t1,32
    80008a1c:	00268333          	add	t1,a3,sp
    80008a20:	00178793          	addi	a5,a5,1
    80008a24:	fee30023          	sb	a4,-32(t1)
    80008a28:	e79ff06f          	j	800088a0 <_ftoa+0x190>
    80008a2c:	02000793          	li	a5,32
    80008a30:	f4fe84e3          	beq	t4,a5,80008978 <_ftoa+0x268>
    80008a34:	ffe7071b          	addiw	a4,a4,-2
    80008a38:	08050263          	beqz	a0,80008abc <_ftoa+0x3ac>
    80008a3c:	02071713          	slli	a4,a4,0x20
    80008a40:	02075713          	srli	a4,a4,0x20
    80008a44:	00230313          	addi	t1,t1,2
    80008a48:	00e30333          	add	t1,t1,a4
    80008a4c:	03000693          	li	a3,48
    80008a50:	02000713          	li	a4,32
    80008a54:	001e8e93          	addi	t4,t4,1
    80008a58:	01d107b3          	add	a5,sp,t4
    80008a5c:	fed78fa3          	sb	a3,-1(a5)
    80008a60:	f0ee8ce3          	beq	t4,a4,80008978 <_ftoa+0x268>
    80008a64:	fe6e98e3          	bne	t4,t1,80008a54 <_ftoa+0x344>
    80008a68:	02030793          	addi	a5,t1,32
    80008a6c:	002787b3          	add	a5,a5,sp
    80008a70:	02e00713          	li	a4,46
    80008a74:	00130313          	addi	t1,t1,1
    80008a78:	fee78023          	sb	a4,-32(a5)
    80008a7c:	dd1ff06f          	j	8000884c <_ftoa+0x13c>
    80008a80:	02030793          	addi	a5,t1,32
    80008a84:	00278733          	add	a4,a5,sp
    80008a88:	02b00693          	li	a3,43
    80008a8c:	00130793          	addi	a5,t1,1
    80008a90:	fed70023          	sb	a3,-32(a4)
    80008a94:	e0dff06f          	j	800088a0 <_ftoa+0x190>
    80008a98:	001f7793          	andi	a5,t5,1
    80008a9c:	d80784e3          	beqz	a5,80008824 <_ftoa+0x114>
    80008aa0:	001f0f13          	addi	t5,t5,1
    80008aa4:	e8dff06f          	j	80008930 <_ftoa+0x220>
    80008aa8:	ffff8f9b          	addiw	t6,t6,-1
    80008aac:	df5ff06f          	j	800088a0 <_ftoa+0x190>
    80008ab0:	dff7e8e3          	bltu	a5,t6,800088a0 <_ftoa+0x190>
    80008ab4:	02000313          	li	t1,32
    80008ab8:	dc9ff06f          	j	80008880 <_ftoa+0x170>
    80008abc:	000e8313          	mv	t1,t4
    80008ac0:	fa9ff06f          	j	80008a68 <_ftoa+0x358>
    80008ac4:	da0f8ee3          	beqz	t6,80008880 <_ftoa+0x170>
    80008ac8:	00059663          	bnez	a1,80008ad4 <_ftoa+0x3c4>
    80008acc:	00c8f793          	andi	a5,a7,12
    80008ad0:	00078463          	beqz	a5,80008ad8 <_ftoa+0x3c8>
    80008ad4:	ffff8f9b          	addiw	t6,t6,-1
    80008ad8:	020f9513          	slli	a0,t6,0x20
    80008adc:	02055513          	srli	a0,a0,0x20
    80008ae0:	daa370e3          	bgeu	t1,a0,80008880 <_ftoa+0x170>
    80008ae4:	02000713          	li	a4,32
    80008ae8:	00030793          	mv	a5,t1
    80008aec:	03000613          	li	a2,48
    80008af0:	02000693          	li	a3,32
    80008af4:	00e31663          	bne	t1,a4,80008b00 <_ftoa+0x3f0>
    80008af8:	da9ff06f          	j	800088a0 <_ftoa+0x190>
    80008afc:	dad782e3          	beq	a5,a3,800088a0 <_ftoa+0x190>
    80008b00:	00178793          	addi	a5,a5,1
    80008b04:	00f10733          	add	a4,sp,a5
    80008b08:	fec70fa3          	sb	a2,-1(a4)
    80008b0c:	fea798e3          	bne	a5,a0,80008afc <_ftoa+0x3ec>
    80008b10:	00078313          	mv	t1,a5
    80008b14:	d6dff06f          	j	80008880 <_ftoa+0x170>

Disassembly of section .text._etoa:

0000000080008b18 <_etoa>:
    80008b18:	a2a528d3          	feq.d	a7,fa0,fa0
    80008b1c:	f9010113          	addi	sp,sp,-112
    80008b20:	06813023          	sd	s0,96(sp)
    80008b24:	04913c23          	sd	s1,88(sp)
    80008b28:	05213823          	sd	s2,80(sp)
    80008b2c:	05413023          	sd	s4,64(sp)
    80008b30:	03613823          	sd	s6,48(sp)
    80008b34:	03713423          	sd	s7,40(sp)
    80008b38:	06113423          	sd	ra,104(sp)
    80008b3c:	05313423          	sd	s3,72(sp)
    80008b40:	03513c23          	sd	s5,56(sp)
    80008b44:	03813023          	sd	s8,32(sp)
    80008b48:	01913c23          	sd	s9,24(sp)
    80008b4c:	00050b13          	mv	s6,a0
    80008b50:	00058493          	mv	s1,a1
    80008b54:	00060b93          	mv	s7,a2
    80008b58:	00068913          	mv	s2,a3
    80008b5c:	00078a13          	mv	s4,a5
    80008b60:	00080413          	mv	s0,a6
    80008b64:	2e088463          	beqz	a7,80008e4c <_etoa+0x334>
    80008b68:	00001797          	auipc	a5,0x1
    80008b6c:	1007b787          	fld	fa5,256(a5) # 80009c68 <pow10.0+0x78>
    80008b70:	a2a797d3          	flt.d	a5,fa5,fa0
    80008b74:	2c079c63          	bnez	a5,80008e4c <_etoa+0x334>
    80008b78:	00001797          	auipc	a5,0x1
    80008b7c:	0e87b787          	fld	fa5,232(a5) # 80009c60 <pow10.0+0x70>
    80008b80:	a2f517d3          	flt.d	a5,fa0,fa5
    80008b84:	2c079463          	bnez	a5,80008e4c <_etoa+0x334>
    80008b88:	f20007d3          	fmv.d.x	fa5,zero
    80008b8c:	e20506d3          	fmv.x.d	a3,fa0
    80008b90:	a2f517d3          	flt.d	a5,fa0,fa5
    80008b94:	00078663          	beqz	a5,80008ba0 <_etoa+0x88>
    80008b98:	22a517d3          	fneg.d	fa5,fa0
    80008b9c:	e20786d3          	fmv.x.d	a3,fa5
    80008ba0:	40047613          	andi	a2,s0,1024
    80008ba4:	00061463          	bnez	a2,80008bac <_etoa+0x94>
    80008ba8:	00600713          	li	a4,6
    80008bac:	0346d793          	srli	a5,a3,0x34
    80008bb0:	7ff7f793          	andi	a5,a5,2047
    80008bb4:	00001597          	auipc	a1,0x1
    80008bb8:	0d45b687          	fld	fa3,212(a1) # 80009c88 <pow10.0+0x98>
    80008bbc:	00001597          	auipc	a1,0x1
    80008bc0:	0d45b707          	fld	fa4,212(a1) # 80009c90 <pow10.0+0xa0>
    80008bc4:	c017879b          	addiw	a5,a5,-1023
    80008bc8:	d2078653          	fcvt.d.w	fa2,a5
    80008bcc:	3ff00593          	li	a1,1023
    80008bd0:	00c69793          	slli	a5,a3,0xc
    80008bd4:	03459593          	slli	a1,a1,0x34
    80008bd8:	00c7d793          	srli	a5,a5,0xc
    80008bdc:	00b7e7b3          	or	a5,a5,a1
    80008be0:	72d67643          	fmadd.d	fa2,fa2,fa3,fa4
    80008be4:	f2078753          	fmv.d.x	fa4,a5
    80008be8:	00001597          	auipc	a1,0x1
    80008bec:	0b05b787          	fld	fa5,176(a1) # 80009c98 <pow10.0+0xa8>
    80008bf0:	00001797          	auipc	a5,0x1
    80008bf4:	0b07b587          	fld	fa1,176(a5) # 80009ca0 <pow10.0+0xb0>
    80008bf8:	0af777d3          	fsub.d	fa5,fa4,fa5
    80008bfc:	00001797          	auipc	a5,0x1
    80008c00:	0ac7b687          	fld	fa3,172(a5) # 80009ca8 <pow10.0+0xb8>
    80008c04:	00001797          	auipc	a5,0x1
    80008c08:	07c7b207          	fld	ft4,124(a5) # 80009c80 <pow10.0+0x90>
    80008c0c:	00001797          	auipc	a5,0x1
    80008c10:	0a47b187          	fld	ft3,164(a5) # 80009cb0 <pow10.0+0xc0>
    80008c14:	00001797          	auipc	a5,0x1
    80008c18:	0a47b107          	fld	ft2,164(a5) # 80009cb8 <pow10.0+0xc8>
    80008c1c:	00001797          	auipc	a5,0x1
    80008c20:	0a47b707          	fld	fa4,164(a5) # 80009cc0 <pow10.0+0xd0>
    80008c24:	00001797          	auipc	a5,0x1
    80008c28:	0ac7b087          	fld	ft1,172(a5) # 80009cd0 <pow10.0+0xe0>
    80008c2c:	62b7f7c3          	fmadd.d	fa5,fa5,fa1,fa2
    80008c30:	00001797          	auipc	a5,0x1
    80008c34:	0b07b007          	fld	ft0,176(a5) # 80009ce0 <pow10.0+0xf0>
    80008c38:	00001797          	auipc	a5,0x1
    80008c3c:	0907b587          	fld	fa1,144(a5) # 80009cc8 <pow10.0+0xd8>
    80008c40:	00001797          	auipc	a5,0x1
    80008c44:	0987b607          	fld	fa2,152(a5) # 80009cd8 <pow10.0+0xe8>
    80008c48:	c20795d3          	fcvt.w.d	a1,fa5,rtz
    80008c4c:	d20587d3          	fcvt.d.w	fa5,a1
    80008c50:	00058c1b          	sext.w	s8,a1
    80008c54:	22d7f6c3          	fmadd.d	fa3,fa5,fa3,ft4
    80008c58:	c20697d3          	fcvt.w.d	a5,fa3,rtz
    80008c5c:	d20786d3          	fcvt.d.w	fa3,a5
    80008c60:	3ff7879b          	addiw	a5,a5,1023
    80008c64:	03479793          	slli	a5,a5,0x34
    80008c68:	1236f6d3          	fmul.d	fa3,fa3,ft3
    80008c6c:	6a27f7c7          	fmsub.d	fa5,fa5,ft2,fa3
    80008c70:	12f7f6d3          	fmul.d	fa3,fa5,fa5
    80008c74:	0af67653          	fsub.d	fa2,fa2,fa5
    80008c78:	02f7f7d3          	fadd.d	fa5,fa5,fa5
    80008c7c:	1ae6f753          	fdiv.d	fa4,fa3,fa4
    80008c80:	02b77753          	fadd.d	fa4,fa4,fa1
    80008c84:	1ae6f753          	fdiv.d	fa4,fa3,fa4
    80008c88:	02177753          	fadd.d	fa4,fa4,ft1
    80008c8c:	1ae6f6d3          	fdiv.d	fa3,fa3,fa4
    80008c90:	f2078753          	fmv.d.x	fa4,a5
    80008c94:	02c6f6d3          	fadd.d	fa3,fa3,fa2
    80008c98:	1ad7f7d3          	fdiv.d	fa5,fa5,fa3
    80008c9c:	0207f7d3          	fadd.d	fa5,fa5,ft0
    80008ca0:	12e7f7d3          	fmul.d	fa5,fa5,fa4
    80008ca4:	f2068753          	fmv.d.x	fa4,a3
    80008ca8:	a2f717d3          	flt.d	a5,fa4,fa5
    80008cac:	00078663          	beqz	a5,80008cb8 <_etoa+0x1a0>
    80008cb0:	1ab7f7d3          	fdiv.d	fa5,fa5,fa1
    80008cb4:	fff58c1b          	addiw	s8,a1,-1
    80008cb8:	063c0c9b          	addiw	s9,s8,99
    80008cbc:	00b45793          	srli	a5,s0,0xb
    80008cc0:	0c600593          	li	a1,198
    80008cc4:	0195bcb3          	sltu	s9,a1,s9
    80008cc8:	0017f793          	andi	a5,a5,1
    80008ccc:	004c8c93          	addi	s9,s9,4
    80008cd0:	04078463          	beqz	a5,80008d18 <_etoa+0x200>
    80008cd4:	f20686d3          	fmv.d.x	fa3,a3
    80008cd8:	00001797          	auipc	a5,0x1
    80008cdc:	0107b707          	fld	fa4,16(a5) # 80009ce8 <pow10.0+0xf8>
    80008ce0:	a2d707d3          	fle.d	a5,fa4,fa3
    80008ce4:	1c078263          	beqz	a5,80008ea8 <_etoa+0x390>
    80008ce8:	00001797          	auipc	a5,0x1
    80008cec:	0087b707          	fld	fa4,8(a5) # 80009cf0 <pow10.0+0x100>
    80008cf0:	a2e697d3          	flt.d	a5,fa3,fa4
    80008cf4:	1a078a63          	beqz	a5,80008ea8 <_etoa+0x390>
    80008cf8:	0007079b          	sext.w	a5,a4
    80008cfc:	00000713          	li	a4,0
    80008d00:	00fc5663          	bge	s8,a5,80008d0c <_etoa+0x1f4>
    80008d04:	418787bb          	subw	a5,a5,s8
    80008d08:	fff7871b          	addiw	a4,a5,-1
    80008d0c:	40046413          	ori	s0,s0,1024
    80008d10:	00000c93          	li	s9,0
    80008d14:	00000c13          	li	s8,0
    80008d18:	00000793          	li	a5,0
    80008d1c:	014cf463          	bgeu	s9,s4,80008d24 <_etoa+0x20c>
    80008d20:	419a07bb          	subw	a5,s4,s9
    80008d24:	00247a93          	andi	s5,s0,2
    80008d28:	000a8863          	beqz	s5,80008d38 <_etoa+0x220>
    80008d2c:	001cb613          	seqz	a2,s9
    80008d30:	40c00633          	neg	a2,a2
    80008d34:	00c7f7b3          	and	a5,a5,a2
    80008d38:	160c1063          	bnez	s8,80008e98 <_etoa+0x380>
    80008d3c:	f20007d3          	fmv.d.x	fa5,zero
    80008d40:	a2f51653          	flt.d	a2,fa0,fa5
    80008d44:	00060863          	beqz	a2,80008d54 <_etoa+0x23c>
    80008d48:	f20687d3          	fmv.d.x	fa5,a3
    80008d4c:	22f797d3          	fneg.d	fa5,fa5
    80008d50:	e20786d3          	fmv.x.d	a3,fa5
    80008d54:	f2068553          	fmv.d.x	fa0,a3
    80008d58:	fffff837          	lui	a6,0xfffff
    80008d5c:	7ff80813          	addi	a6,a6,2047 # fffffffffffff7ff <_pmem_end+0xffffffff77fff7ff>
    80008d60:	01047833          	and	a6,s0,a6
    80008d64:	00090693          	mv	a3,s2
    80008d68:	000b8613          	mv	a2,s7
    80008d6c:	00048593          	mv	a1,s1
    80008d70:	000b0513          	mv	a0,s6
    80008d74:	99dff0ef          	jal	ra,80008710 <_ftoa>
    80008d78:	00050993          	mv	s3,a0
    80008d7c:	080c8c63          	beqz	s9,80008e14 <_etoa+0x2fc>
    80008d80:	02047413          	andi	s0,s0,32
    80008d84:	04500513          	li	a0,69
    80008d88:	00041463          	bnez	s0,80008d90 <_etoa+0x278>
    80008d8c:	06500513          	li	a0,101
    80008d90:	00098613          	mv	a2,s3
    80008d94:	00090693          	mv	a3,s2
    80008d98:	00048593          	mv	a1,s1
    80008d9c:	000b00e7          	jalr	s6
    80008da0:	41fc571b          	sraiw	a4,s8,0x1f
    80008da4:	00ec46b3          	xor	a3,s8,a4
    80008da8:	00500793          	li	a5,5
    80008dac:	fffc8c9b          	addiw	s9,s9,-1
    80008db0:	00198613          	addi	a2,s3,1
    80008db4:	00f13423          	sd	a5,8(sp)
    80008db8:	40e6873b          	subw	a4,a3,a4
    80008dbc:	01913023          	sd	s9,0(sp)
    80008dc0:	00000893          	li	a7,0
    80008dc4:	00a00813          	li	a6,10
    80008dc8:	01fc579b          	srliw	a5,s8,0x1f
    80008dcc:	00090693          	mv	a3,s2
    80008dd0:	00048593          	mv	a1,s1
    80008dd4:	000b0513          	mv	a0,s6
    80008dd8:	dc4ff0ef          	jal	ra,8000839c <_ntoa_long>
    80008ddc:	00050993          	mv	s3,a0
    80008de0:	020a8a63          	beqz	s5,80008e14 <_etoa+0x2fc>
    80008de4:	020a1a13          	slli	s4,s4,0x20
    80008de8:	41750bb3          	sub	s7,a0,s7
    80008dec:	020a5a13          	srli	s4,s4,0x20
    80008df0:	034bf263          	bgeu	s7,s4,80008e14 <_etoa+0x2fc>
    80008df4:	00098613          	mv	a2,s3
    80008df8:	001b8b93          	addi	s7,s7,1
    80008dfc:	00090693          	mv	a3,s2
    80008e00:	00048593          	mv	a1,s1
    80008e04:	02000513          	li	a0,32
    80008e08:	00198993          	addi	s3,s3,1
    80008e0c:	000b00e7          	jalr	s6
    80008e10:	ff4be2e3          	bltu	s7,s4,80008df4 <_etoa+0x2dc>
    80008e14:	06813083          	ld	ra,104(sp)
    80008e18:	06013403          	ld	s0,96(sp)
    80008e1c:	05813483          	ld	s1,88(sp)
    80008e20:	05013903          	ld	s2,80(sp)
    80008e24:	04013a03          	ld	s4,64(sp)
    80008e28:	03813a83          	ld	s5,56(sp)
    80008e2c:	03013b03          	ld	s6,48(sp)
    80008e30:	02813b83          	ld	s7,40(sp)
    80008e34:	02013c03          	ld	s8,32(sp)
    80008e38:	01813c83          	ld	s9,24(sp)
    80008e3c:	00098513          	mv	a0,s3
    80008e40:	04813983          	ld	s3,72(sp)
    80008e44:	07010113          	addi	sp,sp,112
    80008e48:	00008067          	ret
    80008e4c:	00040813          	mv	a6,s0
    80008e50:	06013403          	ld	s0,96(sp)
    80008e54:	06813083          	ld	ra,104(sp)
    80008e58:	04813983          	ld	s3,72(sp)
    80008e5c:	03813a83          	ld	s5,56(sp)
    80008e60:	02013c03          	ld	s8,32(sp)
    80008e64:	01813c83          	ld	s9,24(sp)
    80008e68:	000a0793          	mv	a5,s4
    80008e6c:	00090693          	mv	a3,s2
    80008e70:	04013a03          	ld	s4,64(sp)
    80008e74:	05013903          	ld	s2,80(sp)
    80008e78:	000b8613          	mv	a2,s7
    80008e7c:	00048593          	mv	a1,s1
    80008e80:	02813b83          	ld	s7,40(sp)
    80008e84:	05813483          	ld	s1,88(sp)
    80008e88:	000b0513          	mv	a0,s6
    80008e8c:	03013b03          	ld	s6,48(sp)
    80008e90:	07010113          	addi	sp,sp,112
    80008e94:	87dff06f          	j	80008710 <_ftoa>
    80008e98:	f2068753          	fmv.d.x	fa4,a3
    80008e9c:	1af777d3          	fdiv.d	fa5,fa4,fa5
    80008ea0:	e20786d3          	fmv.x.d	a3,fa5
    80008ea4:	e99ff06f          	j	80008d3c <_etoa+0x224>
    80008ea8:	e60708e3          	beqz	a4,80008d18 <_etoa+0x200>
    80008eac:	e60606e3          	beqz	a2,80008d18 <_etoa+0x200>
    80008eb0:	fff7071b          	addiw	a4,a4,-1
    80008eb4:	e65ff06f          	j	80008d18 <_etoa+0x200>

Disassembly of section .text._vsnprintf:

0000000080008eb8 <_vsnprintf>:
    80008eb8:	f5010113          	addi	sp,sp,-176
    80008ebc:	0a813023          	sd	s0,160(sp)
    80008ec0:	08913c23          	sd	s1,152(sp)
    80008ec4:	09213823          	sd	s2,144(sp)
    80008ec8:	09313423          	sd	s3,136(sp)
    80008ecc:	09413023          	sd	s4,128(sp)
    80008ed0:	0a113423          	sd	ra,168(sp)
    80008ed4:	07513c23          	sd	s5,120(sp)
    80008ed8:	07613823          	sd	s6,112(sp)
    80008edc:	07713423          	sd	s7,104(sp)
    80008ee0:	07813023          	sd	s8,96(sp)
    80008ee4:	05913c23          	sd	s9,88(sp)
    80008ee8:	05a13823          	sd	s10,80(sp)
    80008eec:	05b13423          	sd	s11,72(sp)
    80008ef0:	00058993          	mv	s3,a1
    80008ef4:	00060913          	mv	s2,a2
    80008ef8:	00068413          	mv	s0,a3
    80008efc:	00070493          	mv	s1,a4
    80008f00:	fffffa17          	auipc	s4,0xfffff
    80008f04:	35ca0a13          	addi	s4,s4,860 # 8000825c <_out_null>
    80008f08:	00058463          	beqz	a1,80008f10 <_vsnprintf+0x58>
    80008f0c:	00050a13          	mv	s4,a0
    80008f10:	00044503          	lbu	a0,0(s0)
    80008f14:	00000c13          	li	s8,0
    80008f18:	72050c63          	beqz	a0,80009650 <_vsnprintf+0x798>
    80008f1c:	000107b7          	lui	a5,0x10
    80008f20:	fff78793          	addi	a5,a5,-1 # ffff <_start-0x7fff0001>
    80008f24:	00001b37          	lui	s6,0x1
    80008f28:	02f13023          	sd	a5,32(sp)
    80008f2c:	00009ab7          	lui	s5,0x9
    80008f30:	800b0793          	addi	a5,s6,-2048 # 800 <_start-0x7ffff800>
    80008f34:	00001b97          	auipc	s7,0x1
    80008f38:	b1cb8b93          	addi	s7,s7,-1252 # 80009a50 <__am_mainargs+0x23>
    80008f3c:	041a8a93          	addi	s5,s5,65 # 9041 <_start-0x7fff6fbf>
    80008f40:	00f13c23          	sd	a5,24(sp)
    80008f44:	0200006f          	j	80008f64 <_vsnprintf+0xac>
    80008f48:	000c0613          	mv	a2,s8
    80008f4c:	00090693          	mv	a3,s2
    80008f50:	00098593          	mv	a1,s3
    80008f54:	001c0c13          	addi	s8,s8,1
    80008f58:	000a00e7          	jalr	s4
    80008f5c:	00044503          	lbu	a0,0(s0)
    80008f60:	18050863          	beqz	a0,800090f0 <_vsnprintf+0x238>
    80008f64:	02500793          	li	a5,37
    80008f68:	00140413          	addi	s0,s0,1
    80008f6c:	fcf51ee3          	bne	a0,a5,80008f48 <_vsnprintf+0x90>
    80008f70:	00000813          	li	a6,0
    80008f74:	01000713          	li	a4,16
    80008f78:	00044503          	lbu	a0,0(s0)
    80008f7c:	00140693          	addi	a3,s0,1
    80008f80:	fe05079b          	addiw	a5,a0,-32
    80008f84:	0ff7f793          	zext.b	a5,a5
    80008f88:	00f76c63          	bltu	a4,a5,80008fa0 <_vsnprintf+0xe8>
    80008f8c:	00279793          	slli	a5,a5,0x2
    80008f90:	017787b3          	add	a5,a5,s7
    80008f94:	0007a783          	lw	a5,0(a5)
    80008f98:	017787b3          	add	a5,a5,s7
    80008f9c:	00078067          	jr	a5
    80008fa0:	fd05079b          	addiw	a5,a0,-48
    80008fa4:	0ff7f793          	zext.b	a5,a5
    80008fa8:	00900713          	li	a4,9
    80008fac:	1af77263          	bgeu	a4,a5,80009150 <_vsnprintf+0x298>
    80008fb0:	02a00713          	li	a4,42
    80008fb4:	00000b13          	li	s6,0
    80008fb8:	20e50463          	beq	a0,a4,800091c0 <_vsnprintf+0x308>
    80008fbc:	02e00713          	li	a4,46
    80008fc0:	00000c93          	li	s9,0
    80008fc4:	1ce50663          	beq	a0,a4,80009190 <_vsnprintf+0x2d8>
    80008fc8:	f985071b          	addiw	a4,a0,-104
    80008fcc:	0ff77713          	zext.b	a4,a4
    80008fd0:	01200613          	li	a2,18
    80008fd4:	06e66463          	bltu	a2,a4,8000903c <_vsnprintf+0x184>
    80008fd8:	00001617          	auipc	a2,0x1
    80008fdc:	abc60613          	addi	a2,a2,-1348 # 80009a94 <__am_mainargs+0x67>
    80008fe0:	00271713          	slli	a4,a4,0x2
    80008fe4:	00c70733          	add	a4,a4,a2
    80008fe8:	00072703          	lw	a4,0(a4)
    80008fec:	00c70733          	add	a4,a4,a2
    80008ff0:	00070067          	jr	a4
    80008ff4:	00186813          	ori	a6,a6,1
    80008ff8:	00068413          	mv	s0,a3
    80008ffc:	f7dff06f          	j	80008f78 <_vsnprintf+0xc0>
    80009000:	00286813          	ori	a6,a6,2
    80009004:	00068413          	mv	s0,a3
    80009008:	f71ff06f          	j	80008f78 <_vsnprintf+0xc0>
    8000900c:	00486813          	ori	a6,a6,4
    80009010:	00068413          	mv	s0,a3
    80009014:	f65ff06f          	j	80008f78 <_vsnprintf+0xc0>
    80009018:	01086813          	ori	a6,a6,16
    8000901c:	00068413          	mv	s0,a3
    80009020:	f59ff06f          	j	80008f78 <_vsnprintf+0xc0>
    80009024:	00886813          	ori	a6,a6,8
    80009028:	00068413          	mv	s0,a3
    8000902c:	f4dff06f          	j	80008f78 <_vsnprintf+0xc0>
    80009030:	00144503          	lbu	a0,1(s0)
    80009034:	10086813          	ori	a6,a6,256
    80009038:	00168693          	addi	a3,a3,1
    8000903c:	06700713          	li	a4,103
    80009040:	00068413          	mv	s0,a3
    80009044:	02a76c63          	bltu	a4,a0,8000907c <_vsnprintf+0x1c4>
    80009048:	02400713          	li	a4,36
    8000904c:	eea77ee3          	bgeu	a4,a0,80008f48 <_vsnprintf+0x90>
    80009050:	fdb5071b          	addiw	a4,a0,-37
    80009054:	0ff77713          	zext.b	a4,a4
    80009058:	04200693          	li	a3,66
    8000905c:	eee6e6e3          	bltu	a3,a4,80008f48 <_vsnprintf+0x90>
    80009060:	00001697          	auipc	a3,0x1
    80009064:	a8068693          	addi	a3,a3,-1408 # 80009ae0 <__am_mainargs+0xb3>
    80009068:	00271713          	slli	a4,a4,0x2
    8000906c:	00d70733          	add	a4,a4,a3
    80009070:	00072703          	lw	a4,0(a4)
    80009074:	00d70733          	add	a4,a4,a3
    80009078:	00070067          	jr	a4
    8000907c:	f975071b          	addiw	a4,a0,-105
    80009080:	0ff77713          	zext.b	a4,a4
    80009084:	00f00693          	li	a3,15
    80009088:	ece6e0e3          	bltu	a3,a4,80008f48 <_vsnprintf+0x90>
    8000908c:	00100693          	li	a3,1
    80009090:	00e696b3          	sll	a3,a3,a4
    80009094:	0156f6b3          	and	a3,a3,s5
    80009098:	56069863          	bnez	a3,80009608 <_vsnprintf+0x750>
    8000909c:	00a00693          	li	a3,10
    800090a0:	24d70063          	beq	a4,a3,800092e0 <_vsnprintf+0x428>
    800090a4:	00700793          	li	a5,7
    800090a8:	eaf710e3          	bne	a4,a5,80008f48 <_vsnprintf+0x90>
    800090ac:	0004b703          	ld	a4,0(s1)
    800090b0:	02186813          	ori	a6,a6,33
    800090b4:	01000793          	li	a5,16
    800090b8:	000c0613          	mv	a2,s8
    800090bc:	01013423          	sd	a6,8(sp)
    800090c0:	00f13023          	sd	a5,0(sp)
    800090c4:	000c8893          	mv	a7,s9
    800090c8:	01000813          	li	a6,16
    800090cc:	00000793          	li	a5,0
    800090d0:	00090693          	mv	a3,s2
    800090d4:	00098593          	mv	a1,s3
    800090d8:	000a0513          	mv	a0,s4
    800090dc:	ac0ff0ef          	jal	ra,8000839c <_ntoa_long>
    800090e0:	00050c13          	mv	s8,a0
    800090e4:	00044503          	lbu	a0,0(s0)
    800090e8:	00848493          	addi	s1,s1,8
    800090ec:	e6051ce3          	bnez	a0,80008f64 <_vsnprintf+0xac>
    800090f0:	000c041b          	sext.w	s0,s8
    800090f4:	012c6463          	bltu	s8,s2,800090fc <_vsnprintf+0x244>
    800090f8:	fff90c13          	addi	s8,s2,-1
    800090fc:	00090693          	mv	a3,s2
    80009100:	000c0613          	mv	a2,s8
    80009104:	00098593          	mv	a1,s3
    80009108:	00000513          	li	a0,0
    8000910c:	000a00e7          	jalr	s4
    80009110:	0a813083          	ld	ra,168(sp)
    80009114:	00040513          	mv	a0,s0
    80009118:	0a013403          	ld	s0,160(sp)
    8000911c:	09813483          	ld	s1,152(sp)
    80009120:	09013903          	ld	s2,144(sp)
    80009124:	08813983          	ld	s3,136(sp)
    80009128:	08013a03          	ld	s4,128(sp)
    8000912c:	07813a83          	ld	s5,120(sp)
    80009130:	07013b03          	ld	s6,112(sp)
    80009134:	06813b83          	ld	s7,104(sp)
    80009138:	06013c03          	ld	s8,96(sp)
    8000913c:	05813c83          	ld	s9,88(sp)
    80009140:	05013d03          	ld	s10,80(sp)
    80009144:	04813d83          	ld	s11,72(sp)
    80009148:	0b010113          	addi	sp,sp,176
    8000914c:	00008067          	ret
    80009150:	00000b13          	li	s6,0
    80009154:	00900613          	li	a2,9
    80009158:	002b171b          	slliw	a4,s6,0x2
    8000915c:	0167073b          	addw	a4,a4,s6
    80009160:	0017171b          	slliw	a4,a4,0x1
    80009164:	00a7073b          	addw	a4,a4,a0
    80009168:	0006c503          	lbu	a0,0(a3)
    8000916c:	fd070b1b          	addiw	s6,a4,-48
    80009170:	00068413          	mv	s0,a3
    80009174:	fd05071b          	addiw	a4,a0,-48
    80009178:	0ff77713          	zext.b	a4,a4
    8000917c:	00168693          	addi	a3,a3,1
    80009180:	fce67ce3          	bgeu	a2,a4,80009158 <_vsnprintf+0x2a0>
    80009184:	02e00713          	li	a4,46
    80009188:	00000c93          	li	s9,0
    8000918c:	e2e51ee3          	bne	a0,a4,80008fc8 <_vsnprintf+0x110>
    80009190:	00144503          	lbu	a0,1(s0)
    80009194:	00900593          	li	a1,9
    80009198:	00068613          	mv	a2,a3
    8000919c:	fd05071b          	addiw	a4,a0,-48
    800091a0:	0ff77713          	zext.b	a4,a4
    800091a4:	40086813          	ori	a6,a6,1024
    800091a8:	1ee5f663          	bgeu	a1,a4,80009394 <_vsnprintf+0x4dc>
    800091ac:	02a00713          	li	a4,42
    800091b0:	20e50e63          	beq	a0,a4,800093cc <_vsnprintf+0x514>
    800091b4:	00068413          	mv	s0,a3
    800091b8:	00168693          	addi	a3,a3,1
    800091bc:	e0dff06f          	j	80008fc8 <_vsnprintf+0x110>
    800091c0:	0004a703          	lw	a4,0(s1)
    800091c4:	00848493          	addi	s1,s1,8
    800091c8:	00070b1b          	sext.w	s6,a4
    800091cc:	00074a63          	bltz	a4,800091e0 <_vsnprintf+0x328>
    800091d0:	00144503          	lbu	a0,1(s0)
    800091d4:	00068413          	mv	s0,a3
    800091d8:	00168693          	addi	a3,a3,1
    800091dc:	de1ff06f          	j	80008fbc <_vsnprintf+0x104>
    800091e0:	00144503          	lbu	a0,1(s0)
    800091e4:	00286813          	ori	a6,a6,2
    800091e8:	00068413          	mv	s0,a3
    800091ec:	40e00b3b          	negw	s6,a4
    800091f0:	00168693          	addi	a3,a3,1
    800091f4:	dc9ff06f          	j	80008fbc <_vsnprintf+0x104>
    800091f8:	00144503          	lbu	a0,1(s0)
    800091fc:	06c00713          	li	a4,108
    80009200:	e2e51ae3          	bne	a0,a4,80009034 <_vsnprintf+0x17c>
    80009204:	00244503          	lbu	a0,2(s0)
    80009208:	30086813          	ori	a6,a6,768
    8000920c:	00340693          	addi	a3,s0,3
    80009210:	e2dff06f          	j	8000903c <_vsnprintf+0x184>
    80009214:	00144503          	lbu	a0,1(s0)
    80009218:	06800713          	li	a4,104
    8000921c:	42e50263          	beq	a0,a4,80009640 <_vsnprintf+0x788>
    80009220:	08086813          	ori	a6,a6,128
    80009224:	00168693          	addi	a3,a3,1
    80009228:	e15ff06f          	j	8000903c <_vsnprintf+0x184>
    8000922c:	04600713          	li	a4,70
    80009230:	2ce50463          	beq	a0,a4,800094f8 <_vsnprintf+0x640>
    80009234:	0004b507          	fld	fa0,0(s1)
    80009238:	000c0613          	mv	a2,s8
    8000923c:	000b0793          	mv	a5,s6
    80009240:	000c8713          	mv	a4,s9
    80009244:	00090693          	mv	a3,s2
    80009248:	00098593          	mv	a1,s3
    8000924c:	000a0513          	mv	a0,s4
    80009250:	cc0ff0ef          	jal	ra,80008710 <_ftoa>
    80009254:	00848493          	addi	s1,s1,8
    80009258:	00050c13          	mv	s8,a0
    8000925c:	d01ff06f          	j	80008f5c <_vsnprintf+0xa4>
    80009260:	00287813          	andi	a6,a6,2
    80009264:	00848d13          	addi	s10,s1,8
    80009268:	40080663          	beqz	a6,80009674 <_vsnprintf+0x7bc>
    8000926c:	0004c503          	lbu	a0,0(s1)
    80009270:	00090693          	mv	a3,s2
    80009274:	000c0613          	mv	a2,s8
    80009278:	00098593          	mv	a1,s3
    8000927c:	000a00e7          	jalr	s4
    80009280:	00100713          	li	a4,1
    80009284:	001c0493          	addi	s1,s8,1
    80009288:	51677463          	bgeu	a4,s6,80009790 <_vsnprintf+0x8d8>
    8000928c:	ffeb079b          	addiw	a5,s6,-2
    80009290:	02079793          	slli	a5,a5,0x20
    80009294:	002c0e13          	addi	t3,s8,2
    80009298:	0207d793          	srli	a5,a5,0x20
    8000929c:	00fe0c33          	add	s8,t3,a5
    800092a0:	00048613          	mv	a2,s1
    800092a4:	00090693          	mv	a3,s2
    800092a8:	00148493          	addi	s1,s1,1
    800092ac:	00098593          	mv	a1,s3
    800092b0:	02000513          	li	a0,32
    800092b4:	000a00e7          	jalr	s4
    800092b8:	ff8494e3          	bne	s1,s8,800092a0 <_vsnprintf+0x3e8>
    800092bc:	000d0493          	mv	s1,s10
    800092c0:	c9dff06f          	j	80008f5c <_vsnprintf+0xa4>
    800092c4:	000c0613          	mv	a2,s8
    800092c8:	00090693          	mv	a3,s2
    800092cc:	00098593          	mv	a1,s3
    800092d0:	02500513          	li	a0,37
    800092d4:	001c0c13          	addi	s8,s8,1
    800092d8:	000a00e7          	jalr	s4
    800092dc:	c81ff06f          	j	80008f5c <_vsnprintf+0xa4>
    800092e0:	0004bd03          	ld	s10,0(s1)
    800092e4:	00848793          	addi	a5,s1,8
    800092e8:	02f13c23          	sd	a5,56(sp)
    800092ec:	000d4603          	lbu	a2,0(s10)
    800092f0:	00060513          	mv	a0,a2
    800092f4:	0e0c9e63          	bnez	s9,800093f0 <_vsnprintf+0x538>
    800092f8:	ffe00693          	li	a3,-2
    800092fc:	50060e63          	beqz	a2,80009818 <_vsnprintf+0x960>
    80009300:	00168693          	addi	a3,a3,1
    80009304:	00dd06b3          	add	a3,s10,a3
    80009308:	000d0d93          	mv	s11,s10
    8000930c:	0080006f          	j	80009314 <_vsnprintf+0x45c>
    80009310:	00dd8863          	beq	s11,a3,80009320 <_vsnprintf+0x468>
    80009314:	001dc703          	lbu	a4,1(s11)
    80009318:	001d8d93          	addi	s11,s11,1
    8000931c:	fe071ae3          	bnez	a4,80009310 <_vsnprintf+0x458>
    80009320:	41ad8dbb          	subw	s11,s11,s10
    80009324:	40087793          	andi	a5,a6,1024
    80009328:	02f13423          	sd	a5,40(sp)
    8000932c:	00078a63          	beqz	a5,80009340 <_vsnprintf+0x488>
    80009330:	000c8713          	mv	a4,s9
    80009334:	019df463          	bgeu	s11,s9,8000933c <_vsnprintf+0x484>
    80009338:	000d8713          	mv	a4,s11
    8000933c:	00070d9b          	sext.w	s11,a4
    80009340:	00287793          	andi	a5,a6,2
    80009344:	02f13823          	sd	a5,48(sp)
    80009348:	38078663          	beqz	a5,800096d4 <_vsnprintf+0x81c>
    8000934c:	26060c63          	beqz	a2,800095c4 <_vsnprintf+0x70c>
    80009350:	02813783          	ld	a5,40(sp)
    80009354:	22078a63          	beqz	a5,80009588 <_vsnprintf+0x6d0>
    80009358:	020c9893          	slli	a7,s9,0x20
    8000935c:	0208d893          	srli	a7,a7,0x20
    80009360:	01888cb3          	add	s9,a7,s8
    80009364:	000c0613          	mv	a2,s8
    80009368:	24cc8463          	beq	s9,a2,800095b0 <_vsnprintf+0x6f8>
    8000936c:	00090693          	mv	a3,s2
    80009370:	00098593          	mv	a1,s3
    80009374:	00160493          	addi	s1,a2,1
    80009378:	000a00e7          	jalr	s4
    8000937c:	41848733          	sub	a4,s1,s8
    80009380:	00ed0733          	add	a4,s10,a4
    80009384:	00074503          	lbu	a0,0(a4)
    80009388:	2e050263          	beqz	a0,8000966c <_vsnprintf+0x7b4>
    8000938c:	00048613          	mv	a2,s1
    80009390:	fd9ff06f          	j	80009368 <_vsnprintf+0x4b0>
    80009394:	00900693          	li	a3,9
    80009398:	002c971b          	slliw	a4,s9,0x2
    8000939c:	0197073b          	addw	a4,a4,s9
    800093a0:	00160613          	addi	a2,a2,1
    800093a4:	0017171b          	slliw	a4,a4,0x1
    800093a8:	00a7073b          	addw	a4,a4,a0
    800093ac:	00064503          	lbu	a0,0(a2)
    800093b0:	fd070c9b          	addiw	s9,a4,-48
    800093b4:	fd05071b          	addiw	a4,a0,-48
    800093b8:	0ff77713          	zext.b	a4,a4
    800093bc:	fce6fee3          	bgeu	a3,a4,80009398 <_vsnprintf+0x4e0>
    800093c0:	00060413          	mv	s0,a2
    800093c4:	00160693          	addi	a3,a2,1
    800093c8:	c01ff06f          	j	80008fc8 <_vsnprintf+0x110>
    800093cc:	0004a703          	lw	a4,0(s1)
    800093d0:	00244503          	lbu	a0,2(s0)
    800093d4:	00240413          	addi	s0,s0,2
    800093d8:	fff74893          	not	a7,a4
    800093dc:	43f8d893          	srai	a7,a7,0x3f
    800093e0:	00e8fcb3          	and	s9,a7,a4
    800093e4:	00848493          	addi	s1,s1,8
    800093e8:	00140693          	addi	a3,s0,1
    800093ec:	bddff06f          	j	80008fc8 <_vsnprintf+0x110>
    800093f0:	020c9693          	slli	a3,s9,0x20
    800093f4:	0206d693          	srli	a3,a3,0x20
    800093f8:	42060063          	beqz	a2,80009818 <_vsnprintf+0x960>
    800093fc:	fff68693          	addi	a3,a3,-1
    80009400:	f01ff06f          	j	80009300 <_vsnprintf+0x448>
    80009404:	0df57713          	andi	a4,a0,223
    80009408:	04700693          	li	a3,71
    8000940c:	20d70c63          	beq	a4,a3,80009624 <_vsnprintf+0x76c>
    80009410:	04500713          	li	a4,69
    80009414:	22e50263          	beq	a0,a4,80009638 <_vsnprintf+0x780>
    80009418:	0004b507          	fld	fa0,0(s1)
    8000941c:	000c0613          	mv	a2,s8
    80009420:	000b0793          	mv	a5,s6
    80009424:	000c8713          	mv	a4,s9
    80009428:	00090693          	mv	a3,s2
    8000942c:	00098593          	mv	a1,s3
    80009430:	000a0513          	mv	a0,s4
    80009434:	ee4ff0ef          	jal	ra,80008b18 <_etoa>
    80009438:	00848493          	addi	s1,s1,8
    8000943c:	00050c13          	mv	s8,a0
    80009440:	b1dff06f          	j	80008f5c <_vsnprintf+0xa4>
    80009444:	06200713          	li	a4,98
    80009448:	0ae50c63          	beq	a0,a4,80009500 <_vsnprintf+0x648>
    8000944c:	06f00713          	li	a4,111
    80009450:	2ee50063          	beq	a0,a4,80009730 <_vsnprintf+0x878>
    80009454:	05800713          	li	a4,88
    80009458:	20e50263          	beq	a0,a4,8000965c <_vsnprintf+0x7a4>
    8000945c:	fef87813          	andi	a6,a6,-17
    80009460:	00a00593          	li	a1,10
    80009464:	40087713          	andi	a4,a6,1024
    80009468:	06900693          	li	a3,105
    8000946c:	00070613          	mv	a2,a4
    80009470:	08d51c63          	bne	a0,a3,80009508 <_vsnprintf+0x650>
    80009474:	0a061063          	bnez	a2,80009514 <_vsnprintf+0x65c>
    80009478:	00080693          	mv	a3,a6
    8000947c:	00848d13          	addi	s10,s1,8
    80009480:	2006f713          	andi	a4,a3,512
    80009484:	00068613          	mv	a2,a3
    80009488:	2a071863          	bnez	a4,80009738 <_vsnprintf+0x880>
    8000948c:	1006f713          	andi	a4,a3,256
    80009490:	32071663          	bnez	a4,800097bc <_vsnprintf+0x904>
    80009494:	04067713          	andi	a4,a2,64
    80009498:	0004a503          	lw	a0,0(s1)
    8000949c:	2e071063          	bnez	a4,8000977c <_vsnprintf+0x8c4>
    800094a0:	08067613          	andi	a2,a2,128
    800094a4:	36060263          	beqz	a2,80009808 <_vsnprintf+0x950>
    800094a8:	0105151b          	slliw	a0,a0,0x10
    800094ac:	4105551b          	sraiw	a0,a0,0x10
    800094b0:	40f5561b          	sraiw	a2,a0,0xf
    800094b4:	00c54733          	xor	a4,a0,a2
    800094b8:	40c7073b          	subw	a4,a4,a2
    800094bc:	03071713          	slli	a4,a4,0x30
    800094c0:	03075713          	srli	a4,a4,0x30
    800094c4:	000c0613          	mv	a2,s8
    800094c8:	00d13423          	sd	a3,8(sp)
    800094cc:	01613023          	sd	s6,0(sp)
    800094d0:	000c8893          	mv	a7,s9
    800094d4:	00058813          	mv	a6,a1
    800094d8:	01f5579b          	srliw	a5,a0,0x1f
    800094dc:	00090693          	mv	a3,s2
    800094e0:	00098593          	mv	a1,s3
    800094e4:	000a0513          	mv	a0,s4
    800094e8:	eb5fe0ef          	jal	ra,8000839c <_ntoa_long>
    800094ec:	00050c13          	mv	s8,a0
    800094f0:	000d0493          	mv	s1,s10
    800094f4:	a69ff06f          	j	80008f5c <_vsnprintf+0xa4>
    800094f8:	02086813          	ori	a6,a6,32
    800094fc:	d39ff06f          	j	80009234 <_vsnprintf+0x37c>
    80009500:	00200593          	li	a1,2
    80009504:	40087713          	andi	a4,a6,1024
    80009508:	06400693          	li	a3,100
    8000950c:	10d51663          	bne	a0,a3,80009618 <_vsnprintf+0x760>
    80009510:	f60704e3          	beqz	a4,80009478 <_vsnprintf+0x5c0>
    80009514:	00080693          	mv	a3,a6
    80009518:	ffe6f813          	andi	a6,a3,-2
    8000951c:	0008069b          	sext.w	a3,a6
    80009520:	06900713          	li	a4,105
    80009524:	00848d13          	addi	s10,s1,8
    80009528:	f4e50ce3          	beq	a0,a4,80009480 <_vsnprintf+0x5c8>
    8000952c:	06400713          	li	a4,100
    80009530:	f4e508e3          	beq	a0,a4,80009480 <_vsnprintf+0x5c8>
    80009534:	2006f713          	andi	a4,a3,512
    80009538:	00068613          	mv	a2,a3
    8000953c:	26071063          	bnez	a4,8000979c <_vsnprintf+0x8e4>
    80009540:	1006f713          	andi	a4,a3,256
    80009544:	2a071263          	bnez	a4,800097e8 <_vsnprintf+0x930>
    80009548:	04067713          	andi	a4,a2,64
    8000954c:	22071e63          	bnez	a4,80009788 <_vsnprintf+0x8d0>
    80009550:	08067613          	andi	a2,a2,128
    80009554:	0004a703          	lw	a4,0(s1)
    80009558:	00060663          	beqz	a2,80009564 <_vsnprintf+0x6ac>
    8000955c:	02013783          	ld	a5,32(sp)
    80009560:	00f77733          	and	a4,a4,a5
    80009564:	02071713          	slli	a4,a4,0x20
    80009568:	000c0613          	mv	a2,s8
    8000956c:	00d13423          	sd	a3,8(sp)
    80009570:	01613023          	sd	s6,0(sp)
    80009574:	000c8893          	mv	a7,s9
    80009578:	00058813          	mv	a6,a1
    8000957c:	00000793          	li	a5,0
    80009580:	02075713          	srli	a4,a4,0x20
    80009584:	f59ff06f          	j	800094dc <_vsnprintf+0x624>
    80009588:	000c0c93          	mv	s9,s8
    8000958c:	000c8613          	mv	a2,s9
    80009590:	00090693          	mv	a3,s2
    80009594:	00098593          	mv	a1,s3
    80009598:	000a00e7          	jalr	s4
    8000959c:	001c8c93          	addi	s9,s9,1
    800095a0:	418c8733          	sub	a4,s9,s8
    800095a4:	00ed0733          	add	a4,s10,a4
    800095a8:	00074503          	lbu	a0,0(a4)
    800095ac:	fe0510e3          	bnez	a0,8000958c <_vsnprintf+0x6d4>
    800095b0:	000c8c13          	mv	s8,s9
    800095b4:	03013783          	ld	a5,48(sp)
    800095b8:	00079663          	bnez	a5,800095c4 <_vsnprintf+0x70c>
    800095bc:	03813483          	ld	s1,56(sp)
    800095c0:	99dff06f          	j	80008f5c <_vsnprintf+0xa4>
    800095c4:	000c0493          	mv	s1,s8
    800095c8:	ff6dfae3          	bgeu	s11,s6,800095bc <_vsnprintf+0x704>
    800095cc:	fffb079b          	addiw	a5,s6,-1
    800095d0:	41b787bb          	subw	a5,a5,s11
    800095d4:	02079793          	slli	a5,a5,0x20
    800095d8:	0207d793          	srli	a5,a5,0x20
    800095dc:	001c0e13          	addi	t3,s8,1
    800095e0:	01c78c33          	add	s8,a5,t3
    800095e4:	00048613          	mv	a2,s1
    800095e8:	00090693          	mv	a3,s2
    800095ec:	00148493          	addi	s1,s1,1
    800095f0:	00098593          	mv	a1,s3
    800095f4:	02000513          	li	a0,32
    800095f8:	000a00e7          	jalr	s4
    800095fc:	ff8494e3          	bne	s1,s8,800095e4 <_vsnprintf+0x72c>
    80009600:	03813483          	ld	s1,56(sp)
    80009604:	959ff06f          	j	80008f5c <_vsnprintf+0xa4>
    80009608:	07800713          	li	a4,120
    8000960c:	e2e51ce3          	bne	a0,a4,80009444 <_vsnprintf+0x58c>
    80009610:	01000593          	li	a1,16
    80009614:	40087713          	andi	a4,a6,1024
    80009618:	ff387693          	andi	a3,a6,-13
    8000961c:	ee071ee3          	bnez	a4,80009518 <_vsnprintf+0x660>
    80009620:	f01ff06f          	j	80009520 <_vsnprintf+0x668>
    80009624:	01813783          	ld	a5,24(sp)
    80009628:	0fd57513          	andi	a0,a0,253
    8000962c:	04500713          	li	a4,69
    80009630:	00f86833          	or	a6,a6,a5
    80009634:	dee512e3          	bne	a0,a4,80009418 <_vsnprintf+0x560>
    80009638:	02086813          	ori	a6,a6,32
    8000963c:	dddff06f          	j	80009418 <_vsnprintf+0x560>
    80009640:	00244503          	lbu	a0,2(s0)
    80009644:	0c086813          	ori	a6,a6,192
    80009648:	00340693          	addi	a3,s0,3
    8000964c:	9f1ff06f          	j	8000903c <_vsnprintf+0x184>
    80009650:	00000413          	li	s0,0
    80009654:	ab2c64e3          	bltu	s8,s2,800090fc <_vsnprintf+0x244>
    80009658:	aa1ff06f          	j	800090f8 <_vsnprintf+0x240>
    8000965c:	02086813          	ori	a6,a6,32
    80009660:	01000593          	li	a1,16
    80009664:	40087713          	andi	a4,a6,1024
    80009668:	fb1ff06f          	j	80009618 <_vsnprintf+0x760>
    8000966c:	00048c13          	mv	s8,s1
    80009670:	f45ff06f          	j	800095b4 <_vsnprintf+0x6fc>
    80009674:	00100713          	li	a4,1
    80009678:	1b677463          	bgeu	a4,s6,80009820 <_vsnprintf+0x968>
    8000967c:	ffeb0c9b          	addiw	s9,s6,-2
    80009680:	020c9c93          	slli	s9,s9,0x20
    80009684:	001c0d93          	addi	s11,s8,1
    80009688:	020cdc93          	srli	s9,s9,0x20
    8000968c:	019d8cb3          	add	s9,s11,s9
    80009690:	0080006f          	j	80009698 <_vsnprintf+0x7e0>
    80009694:	001d8d93          	addi	s11,s11,1
    80009698:	000c0613          	mv	a2,s8
    8000969c:	00090693          	mv	a3,s2
    800096a0:	00098593          	mv	a1,s3
    800096a4:	02000513          	li	a0,32
    800096a8:	000d8c13          	mv	s8,s11
    800096ac:	000a00e7          	jalr	s4
    800096b0:	ff9d92e3          	bne	s11,s9,80009694 <_vsnprintf+0x7dc>
    800096b4:	0004c503          	lbu	a0,0(s1)
    800096b8:	00090693          	mv	a3,s2
    800096bc:	000c8613          	mv	a2,s9
    800096c0:	00098593          	mv	a1,s3
    800096c4:	001c8c13          	addi	s8,s9,1
    800096c8:	000a00e7          	jalr	s4
    800096cc:	000d0493          	mv	s1,s10
    800096d0:	88dff06f          	j	80008f5c <_vsnprintf+0xa4>
    800096d4:	001d871b          	addiw	a4,s11,1
    800096d8:	156df863          	bgeu	s11,s6,80009828 <_vsnprintf+0x970>
    800096dc:	fffb071b          	addiw	a4,s6,-1
    800096e0:	41b70dbb          	subw	s11,a4,s11
    800096e4:	020d9793          	slli	a5,s11,0x20
    800096e8:	0207d793          	srli	a5,a5,0x20
    800096ec:	001c0d93          	addi	s11,s8,1
    800096f0:	01b784b3          	add	s1,a5,s11
    800096f4:	0080006f          	j	800096fc <_vsnprintf+0x844>
    800096f8:	001d8d93          	addi	s11,s11,1
    800096fc:	000c0613          	mv	a2,s8
    80009700:	00090693          	mv	a3,s2
    80009704:	00098593          	mv	a1,s3
    80009708:	02000513          	li	a0,32
    8000970c:	000d8c13          	mv	s8,s11
    80009710:	000a00e7          	jalr	s4
    80009714:	fe9d92e3          	bne	s11,s1,800096f8 <_vsnprintf+0x840>
    80009718:	000d4603          	lbu	a2,0(s10)
    8000971c:	001b0d9b          	addiw	s11,s6,1
    80009720:	00060513          	mv	a0,a2
    80009724:	c20616e3          	bnez	a2,80009350 <_vsnprintf+0x498>
    80009728:	03813483          	ld	s1,56(sp)
    8000972c:	831ff06f          	j	80008f5c <_vsnprintf+0xa4>
    80009730:	00800593          	li	a1,8
    80009734:	d31ff06f          	j	80009464 <_vsnprintf+0x5ac>
    80009738:	0004b783          	ld	a5,0(s1)
    8000973c:	00d13423          	sd	a3,8(sp)
    80009740:	000c0613          	mv	a2,s8
    80009744:	43f7d713          	srai	a4,a5,0x3f
    80009748:	00f746b3          	xor	a3,a4,a5
    8000974c:	01613023          	sd	s6,0(sp)
    80009750:	000c8893          	mv	a7,s9
    80009754:	00058813          	mv	a6,a1
    80009758:	03f7d793          	srli	a5,a5,0x3f
    8000975c:	40e68733          	sub	a4,a3,a4
    80009760:	00090693          	mv	a3,s2
    80009764:	00098593          	mv	a1,s3
    80009768:	000a0513          	mv	a0,s4
    8000976c:	c31fe0ef          	jal	ra,8000839c <_ntoa_long>
    80009770:	00050c13          	mv	s8,a0
    80009774:	000d0493          	mv	s1,s10
    80009778:	fe4ff06f          	j	80008f5c <_vsnprintf+0xa4>
    8000977c:	0ff57513          	zext.b	a0,a0
    80009780:	00050713          	mv	a4,a0
    80009784:	d41ff06f          	j	800094c4 <_vsnprintf+0x60c>
    80009788:	0004c703          	lbu	a4,0(s1)
    8000978c:	dd9ff06f          	j	80009564 <_vsnprintf+0x6ac>
    80009790:	00048c13          	mv	s8,s1
    80009794:	000d0493          	mv	s1,s10
    80009798:	fc4ff06f          	j	80008f5c <_vsnprintf+0xa4>
    8000979c:	0004b703          	ld	a4,0(s1)
    800097a0:	000c0613          	mv	a2,s8
    800097a4:	00d13423          	sd	a3,8(sp)
    800097a8:	01613023          	sd	s6,0(sp)
    800097ac:	000c8893          	mv	a7,s9
    800097b0:	00058813          	mv	a6,a1
    800097b4:	00000793          	li	a5,0
    800097b8:	fa9ff06f          	j	80009760 <_vsnprintf+0x8a8>
    800097bc:	0004b783          	ld	a5,0(s1)
    800097c0:	00d13423          	sd	a3,8(sp)
    800097c4:	000c0613          	mv	a2,s8
    800097c8:	43f7d713          	srai	a4,a5,0x3f
    800097cc:	00f746b3          	xor	a3,a4,a5
    800097d0:	01613023          	sd	s6,0(sp)
    800097d4:	000c8893          	mv	a7,s9
    800097d8:	00058813          	mv	a6,a1
    800097dc:	03f7d793          	srli	a5,a5,0x3f
    800097e0:	40e68733          	sub	a4,a3,a4
    800097e4:	cf9ff06f          	j	800094dc <_vsnprintf+0x624>
    800097e8:	0004b703          	ld	a4,0(s1)
    800097ec:	000c0613          	mv	a2,s8
    800097f0:	00d13423          	sd	a3,8(sp)
    800097f4:	01613023          	sd	s6,0(sp)
    800097f8:	000c8893          	mv	a7,s9
    800097fc:	00058813          	mv	a6,a1
    80009800:	00000793          	li	a5,0
    80009804:	cd9ff06f          	j	800094dc <_vsnprintf+0x624>
    80009808:	41f5561b          	sraiw	a2,a0,0x1f
    8000980c:	00c54733          	xor	a4,a0,a2
    80009810:	40c7073b          	subw	a4,a4,a2
    80009814:	cb1ff06f          	j	800094c4 <_vsnprintf+0x60c>
    80009818:	00000d93          	li	s11,0
    8000981c:	b09ff06f          	j	80009324 <_vsnprintf+0x46c>
    80009820:	000c0c93          	mv	s9,s8
    80009824:	e91ff06f          	j	800096b4 <_vsnprintf+0x7fc>
    80009828:	00070d93          	mv	s11,a4
    8000982c:	ef5ff06f          	j	80009720 <_vsnprintf+0x868>

Disassembly of section .text.printf_:

0000000080009830 <printf_>:
    80009830:	fa010113          	addi	sp,sp,-96
    80009834:	02810313          	addi	t1,sp,40
    80009838:	02b13423          	sd	a1,40(sp)
    8000983c:	02c13823          	sd	a2,48(sp)
    80009840:	02d13c23          	sd	a3,56(sp)
    80009844:	04e13023          	sd	a4,64(sp)
    80009848:	00050693          	mv	a3,a0
    8000984c:	00010593          	mv	a1,sp
    80009850:	00030713          	mv	a4,t1
    80009854:	fff00613          	li	a2,-1
    80009858:	fffff517          	auipc	a0,0xfffff
    8000985c:	eac50513          	addi	a0,a0,-340 # 80008704 <_out_char>
    80009860:	00113c23          	sd	ra,24(sp)
    80009864:	04f13423          	sd	a5,72(sp)
    80009868:	05013823          	sd	a6,80(sp)
    8000986c:	05113c23          	sd	a7,88(sp)
    80009870:	00613423          	sd	t1,8(sp)
    80009874:	e44ff0ef          	jal	ra,80008eb8 <_vsnprintf>
    80009878:	01813083          	ld	ra,24(sp)
    8000987c:	06010113          	addi	sp,sp,96
    80009880:	00008067          	ret
