
/home/bread/xs-env/nexus-am/apps/eh1cmark/build/eh1cmark-riscv64-nutshell.elf:     file format elf64-littleriscv


Disassembly of section .text:

0000000080000000 <_start>:
    80000000:	00000413          	li	s0,0
    80000004:	00011117          	auipc	sp,0x11
    80000008:	ffc10113          	addi	sp,sp,-4 # 80011000 <_end>
    8000000c:	3cc060ef          	jal	ra,800063d8 <_trm_init>

0000000080000010 <cmp_idx>:
    80000010:	00060a63          	beqz	a2,80000024 <cmp_idx+0x14>
    80000014:	00251503          	lh	a0,2(a0)
    80000018:	00259783          	lh	a5,2(a1)
    8000001c:	40f5053b          	subw	a0,a0,a5
    80000020:	00008067          	ret
    80000024:	00051783          	lh	a5,0(a0)
    80000028:	0107971b          	slliw	a4,a5,0x10
    8000002c:	0107571b          	srliw	a4,a4,0x10
    80000030:	0087571b          	srliw	a4,a4,0x8
    80000034:	f007f793          	andi	a5,a5,-256
    80000038:	00e7e7b3          	or	a5,a5,a4
    8000003c:	00f51023          	sh	a5,0(a0)
    80000040:	00059783          	lh	a5,0(a1)
    80000044:	00251503          	lh	a0,2(a0)
    80000048:	0107971b          	slliw	a4,a5,0x10
    8000004c:	0107571b          	srliw	a4,a4,0x10
    80000050:	0087571b          	srliw	a4,a4,0x8
    80000054:	f007f793          	andi	a5,a5,-256
    80000058:	00e7e7b3          	or	a5,a5,a4
    8000005c:	00f59023          	sh	a5,0(a1)
    80000060:	00259783          	lh	a5,2(a1)
    80000064:	40f5053b          	subw	a0,a0,a5
    80000068:	00008067          	ret

000000008000006c <copy_info>:
    8000006c:	00059703          	lh	a4,0(a1)
    80000070:	00259783          	lh	a5,2(a1)
    80000074:	00e51023          	sh	a4,0(a0)
    80000078:	00f51123          	sh	a5,2(a0)
    8000007c:	00008067          	ret

0000000080000080 <core_list_init>:
    80000080:	01400793          	li	a5,20
    80000084:	02f552bb          	divuw	t0,a0,a5
    80000088:	ff010113          	addi	sp,sp,-16
    8000008c:	00813423          	sd	s0,8(sp)
    80000090:	ffff87b7          	lui	a5,0xffff8
    80000094:	0005b023          	sd	zero,0(a1)
    80000098:	08078893          	addi	a7,a5,128 # ffffffffffff8080 <_pmem_end+0xffffffff77ff8080>
    8000009c:	02058513          	addi	a0,a1,32
    800000a0:	00060f13          	mv	t5,a2
    800000a4:	01058713          	addi	a4,a1,16
    800000a8:	ffe2829b          	addiw	t0,t0,-2
    800000ac:	02029693          	slli	a3,t0,0x20
    800000b0:	0206d693          	srli	a3,a3,0x20
    800000b4:	00469813          	slli	a6,a3,0x4
    800000b8:	01058833          	add	a6,a1,a6
    800000bc:	0105b423          	sd	a6,8(a1)
    800000c0:	00269693          	slli	a3,a3,0x2
    800000c4:	00081123          	sh	zero,2(a6)
    800000c8:	01181023          	sh	a7,0(a6)
    800000cc:	00d80333          	add	t1,a6,a3
    800000d0:	0002839b          	sext.w	t2,t0
    800000d4:	00480693          	addi	a3,a6,4
    800000d8:	25057463          	bgeu	a0,a6,80000320 <core_list_init+0x2a0>
    800000dc:	00880893          	addi	a7,a6,8
    800000e0:	2468f063          	bgeu	a7,t1,80000320 <core_list_init+0x2a0>
    800000e4:	00e5b023          	sd	a4,0(a1)
    800000e8:	00d5bc23          	sd	a3,24(a1)
    800000ec:	0005b823          	sd	zero,16(a1)
    800000f0:	fff7c793          	not	a5,a5
    800000f4:	00070613          	mv	a2,a4
    800000f8:	fff00713          	li	a4,-1
    800000fc:	00e81223          	sh	a4,4(a6)
    80000100:	00f81323          	sh	a5,6(a6)
    80000104:	00088693          	mv	a3,a7
    80000108:	00050713          	mv	a4,a0
    8000010c:	06038a63          	beqz	t2,80000180 <core_list_init+0x100>
    80000110:	030f1413          	slli	s0,t5,0x30
    80000114:	ffff8fb7          	lui	t6,0xffff8
    80000118:	03045413          	srli	s0,s0,0x30
    8000011c:	00000513          	li	a0,0
    80000120:	ffffcf93          	not	t6,t6
    80000124:	01070e13          	addi	t3,a4,16
    80000128:	050e7c63          	bgeu	t3,a6,80000180 <core_list_init+0x100>
    8000012c:	00468e93          	addi	t4,a3,4
    80000130:	046ef463          	bgeu	t4,t1,80000178 <core_list_init+0xf8>
    80000134:	03051893          	slli	a7,a0,0x30
    80000138:	0308d893          	srli	a7,a7,0x30
    8000013c:	0088c7b3          	xor	a5,a7,s0
    80000140:	0037979b          	slliw	a5,a5,0x3
    80000144:	0787f793          	andi	a5,a5,120
    80000148:	0078f893          	andi	a7,a7,7
    8000014c:	00c73023          	sd	a2,0(a4)
    80000150:	0117e7b3          	or	a5,a5,a7
    80000154:	00e5b023          	sd	a4,0(a1)
    80000158:	0087961b          	slliw	a2,a5,0x8
    8000015c:	00d73423          	sd	a3,8(a4)
    80000160:	00c7e7b3          	or	a5,a5,a2
    80000164:	00f69023          	sh	a5,0(a3)
    80000168:	01f69123          	sh	t6,2(a3)
    8000016c:	00070613          	mv	a2,a4
    80000170:	000e8693          	mv	a3,t4
    80000174:	000e0713          	mv	a4,t3
    80000178:	0015051b          	addiw	a0,a0,1
    8000017c:	faa394e3          	bne	t2,a0,80000124 <core_list_init+0xa4>
    80000180:	00063683          	ld	a3,0(a2)
    80000184:	06068c63          	beqz	a3,800001fc <core_list_init+0x17c>
    80000188:	00500893          	li	a7,5
    8000018c:	00004337          	lui	t1,0x4
    80000190:	0312d8bb          	divuw	a7,t0,a7
    80000194:	20000793          	li	a5,512
    80000198:	00100713          	li	a4,1
    8000019c:	fff30313          	addi	t1,t1,-1 # 3fff <_start-0x7fffc001>
    800001a0:	0280006f          	j	800001c8 <core_list_init+0x148>
    800001a4:	0006b503          	ld	a0,0(a3)
    800001a8:	1007879b          	addiw	a5,a5,256
    800001ac:	00e81123          	sh	a4,2(a6)
    800001b0:	03079793          	slli	a5,a5,0x30
    800001b4:	0017071b          	addiw	a4,a4,1
    800001b8:	0307d793          	srli	a5,a5,0x30
    800001bc:	04050063          	beqz	a0,800001fc <core_list_init+0x17c>
    800001c0:	00068613          	mv	a2,a3
    800001c4:	00050693          	mv	a3,a0
    800001c8:	00863803          	ld	a6,8(a2)
    800001cc:	fd176ce3          	bltu	a4,a7,800001a4 <core_list_init+0x124>
    800001d0:	7007f513          	andi	a0,a5,1792
    800001d4:	01e74633          	xor	a2,a4,t5
    800001d8:	00a66633          	or	a2,a2,a0
    800001dc:	0006b503          	ld	a0,0(a3)
    800001e0:	00667633          	and	a2,a2,t1
    800001e4:	1007879b          	addiw	a5,a5,256
    800001e8:	03079793          	slli	a5,a5,0x30
    800001ec:	00c81123          	sh	a2,2(a6)
    800001f0:	0017071b          	addiw	a4,a4,1
    800001f4:	0307d793          	srli	a5,a5,0x30
    800001f8:	fc0514e3          	bnez	a0,800001c0 <core_list_init+0x140>
    800001fc:	00100e93          	li	t4,1
    80000200:	00000813          	li	a6,0
    80000204:	00000513          	li	a0,0
    80000208:	00000293          	li	t0,0
    8000020c:	00100393          	li	t2,1
    80000210:	0012829b          	addiw	t0,t0,1
    80000214:	00058793          	mv	a5,a1
    80000218:	00000713          	li	a4,0
    8000021c:	0007b783          	ld	a5,0(a5)
    80000220:	0017071b          	addiw	a4,a4,1
    80000224:	00078463          	beqz	a5,8000022c <core_list_init+0x1ac>
    80000228:	feee9ae3          	bne	t4,a4,8000021c <core_list_init+0x19c>
    8000022c:	000e8613          	mv	a2,t4
    80000230:	06070a63          	beqz	a4,800002a4 <core_list_init+0x224>
    80000234:	08060a63          	beqz	a2,800002c8 <core_list_init+0x248>
    80000238:	08078863          	beqz	a5,800002c8 <core_list_init+0x248>
    8000023c:	0085b303          	ld	t1,8(a1)
    80000240:	0087b883          	ld	a7,8(a5)
    80000244:	00031683          	lh	a3,0(t1)
    80000248:	00289f03          	lh	t5,2(a7)
    8000024c:	00231f83          	lh	t6,2(t1)
    80000250:	01069e1b          	slliw	t3,a3,0x10
    80000254:	010e5e1b          	srliw	t3,t3,0x10
    80000258:	f006f693          	andi	a3,a3,-256
    8000025c:	008e5e1b          	srliw	t3,t3,0x8
    80000260:	01c6e6b3          	or	a3,a3,t3
    80000264:	00d31023          	sh	a3,0(t1)
    80000268:	00089683          	lh	a3,0(a7)
    8000026c:	0106931b          	slliw	t1,a3,0x10
    80000270:	0103531b          	srliw	t1,t1,0x10
    80000274:	f006f693          	andi	a3,a3,-256
    80000278:	0083531b          	srliw	t1,t1,0x8
    8000027c:	0066e6b3          	or	a3,a3,t1
    80000280:	00d89023          	sh	a3,0(a7)
    80000284:	05ff5263          	bge	t5,t6,800002c8 <core_list_init+0x248>
    80000288:	00078693          	mv	a3,a5
    8000028c:	0007b783          	ld	a5,0(a5)
    80000290:	fff6061b          	addiw	a2,a2,-1
    80000294:	02080463          	beqz	a6,800002bc <core_list_init+0x23c>
    80000298:	00d83023          	sd	a3,0(a6)
    8000029c:	00068813          	mv	a6,a3
    800002a0:	f8071ae3          	bnez	a4,80000234 <core_list_init+0x1b4>
    800002a4:	02060a63          	beqz	a2,800002d8 <core_list_init+0x258>
    800002a8:	02078e63          	beqz	a5,800002e4 <core_list_init+0x264>
    800002ac:	00078693          	mv	a3,a5
    800002b0:	fff6061b          	addiw	a2,a2,-1
    800002b4:	0007b783          	ld	a5,0(a5)
    800002b8:	fe0810e3          	bnez	a6,80000298 <core_list_init+0x218>
    800002bc:	00068513          	mv	a0,a3
    800002c0:	00068813          	mv	a6,a3
    800002c4:	fddff06f          	j	800002a0 <core_list_init+0x220>
    800002c8:	00058693          	mv	a3,a1
    800002cc:	fff7071b          	addiw	a4,a4,-1
    800002d0:	0005b583          	ld	a1,0(a1)
    800002d4:	fc1ff06f          	j	80000294 <core_list_init+0x214>
    800002d8:	00078663          	beqz	a5,800002e4 <core_list_init+0x264>
    800002dc:	00078593          	mv	a1,a5
    800002e0:	f31ff06f          	j	80000210 <core_list_init+0x190>
    800002e4:	00083023          	sd	zero,0(a6)
    800002e8:	02728263          	beq	t0,t2,8000030c <core_list_init+0x28c>
    800002ec:	001e9e9b          	slliw	t4,t4,0x1
    800002f0:	02050463          	beqz	a0,80000318 <core_list_init+0x298>
    800002f4:	00050793          	mv	a5,a0
    800002f8:	00000293          	li	t0,0
    800002fc:	00000813          	li	a6,0
    80000300:	00000513          	li	a0,0
    80000304:	00078593          	mv	a1,a5
    80000308:	f09ff06f          	j	80000210 <core_list_init+0x190>
    8000030c:	00813403          	ld	s0,8(sp)
    80000310:	01010113          	addi	sp,sp,16
    80000314:	00008067          	ret
    80000318:	00003023          	sd	zero,0(zero) # 0 <_start-0x80000000>
    8000031c:	00100073          	ebreak
    80000320:	00000613          	li	a2,0
    80000324:	de9ff06f          	j	8000010c <core_list_init+0x8c>

0000000080000328 <core_list_insert_new>:
    80000328:	00063803          	ld	a6,0(a2)
    8000032c:	01080893          	addi	a7,a6,16
    80000330:	04e8f663          	bgeu	a7,a4,8000037c <core_list_insert_new+0x54>
    80000334:	0006b703          	ld	a4,0(a3)
    80000338:	00470313          	addi	t1,a4,4
    8000033c:	04f37063          	bgeu	t1,a5,8000037c <core_list_insert_new+0x54>
    80000340:	01163023          	sd	a7,0(a2)
    80000344:	00053783          	ld	a5,0(a0)
    80000348:	00059883          	lh	a7,0(a1)
    8000034c:	00259603          	lh	a2,2(a1)
    80000350:	00f83023          	sd	a5,0(a6)
    80000354:	01053023          	sd	a6,0(a0)
    80000358:	00e83423          	sd	a4,8(a6)
    8000035c:	0006b783          	ld	a5,0(a3)
    80000360:	00080513          	mv	a0,a6
    80000364:	00478793          	addi	a5,a5,4
    80000368:	00f6b023          	sd	a5,0(a3)
    8000036c:	00883783          	ld	a5,8(a6)
    80000370:	01179023          	sh	a7,0(a5)
    80000374:	00c79123          	sh	a2,2(a5)
    80000378:	00008067          	ret
    8000037c:	00000813          	li	a6,0
    80000380:	00080513          	mv	a0,a6
    80000384:	00008067          	ret

0000000080000388 <core_list_remove>:
    80000388:	00050793          	mv	a5,a0
    8000038c:	00053503          	ld	a0,0(a0)
    80000390:	0087b683          	ld	a3,8(a5)
    80000394:	00853603          	ld	a2,8(a0)
    80000398:	00053703          	ld	a4,0(a0)
    8000039c:	00c7b423          	sd	a2,8(a5)
    800003a0:	00d53423          	sd	a3,8(a0)
    800003a4:	00e7b023          	sd	a4,0(a5)
    800003a8:	00053023          	sd	zero,0(a0)
    800003ac:	00008067          	ret

00000000800003b0 <core_list_undo_remove>:
    800003b0:	0085b603          	ld	a2,8(a1)
    800003b4:	00853683          	ld	a3,8(a0)
    800003b8:	0005b703          	ld	a4,0(a1)
    800003bc:	00c53423          	sd	a2,8(a0)
    800003c0:	00d5b423          	sd	a3,8(a1)
    800003c4:	00e53023          	sd	a4,0(a0)
    800003c8:	00a5b023          	sd	a0,0(a1)
    800003cc:	00008067          	ret

00000000800003d0 <core_list_find>:
    800003d0:	00259703          	lh	a4,2(a1)
    800003d4:	02074263          	bltz	a4,800003f8 <core_list_find+0x28>
    800003d8:	00051863          	bnez	a0,800003e8 <core_list_find+0x18>
    800003dc:	0480006f          	j	80000424 <core_list_find+0x54>
    800003e0:	00053503          	ld	a0,0(a0)
    800003e4:	02050c63          	beqz	a0,8000041c <core_list_find+0x4c>
    800003e8:	00853783          	ld	a5,8(a0)
    800003ec:	00279783          	lh	a5,2(a5)
    800003f0:	fee798e3          	bne	a5,a4,800003e0 <core_list_find+0x10>
    800003f4:	00008067          	ret
    800003f8:	02050263          	beqz	a0,8000041c <core_list_find+0x4c>
    800003fc:	00059703          	lh	a4,0(a1)
    80000400:	00c0006f          	j	8000040c <core_list_find+0x3c>
    80000404:	00053503          	ld	a0,0(a0)
    80000408:	00050c63          	beqz	a0,80000420 <core_list_find+0x50>
    8000040c:	00853783          	ld	a5,8(a0)
    80000410:	0007c783          	lbu	a5,0(a5)
    80000414:	fee798e3          	bne	a5,a4,80000404 <core_list_find+0x34>
    80000418:	00008067          	ret
    8000041c:	00000513          	li	a0,0
    80000420:	00008067          	ret
    80000424:	00008067          	ret

0000000080000428 <core_list_reverse>:
    80000428:	02050063          	beqz	a0,80000448 <core_list_reverse+0x20>
    8000042c:	00000713          	li	a4,0
    80000430:	0080006f          	j	80000438 <core_list_reverse+0x10>
    80000434:	00078513          	mv	a0,a5
    80000438:	00053783          	ld	a5,0(a0)
    8000043c:	00e53023          	sd	a4,0(a0)
    80000440:	00050713          	mv	a4,a0
    80000444:	fe0798e3          	bnez	a5,80000434 <core_list_reverse+0xc>
    80000448:	00008067          	ret

000000008000044c <core_list_mergesort>:
    8000044c:	fa010113          	addi	sp,sp,-96
    80000450:	04913423          	sd	s1,72(sp)
    80000454:	03513423          	sd	s5,40(sp)
    80000458:	01713c23          	sd	s7,24(sp)
    8000045c:	01913423          	sd	s9,8(sp)
    80000460:	01a13023          	sd	s10,0(sp)
    80000464:	04113c23          	sd	ra,88(sp)
    80000468:	04813823          	sd	s0,80(sp)
    8000046c:	05213023          	sd	s2,64(sp)
    80000470:	03313c23          	sd	s3,56(sp)
    80000474:	03413823          	sd	s4,48(sp)
    80000478:	03613023          	sd	s6,32(sp)
    8000047c:	01813823          	sd	s8,16(sp)
    80000480:	00050493          	mv	s1,a0
    80000484:	00058b93          	mv	s7,a1
    80000488:	00060d13          	mv	s10,a2
    8000048c:	00100a93          	li	s5,1
    80000490:	00100c93          	li	s9,1
    80000494:	0c048063          	beqz	s1,80000554 <core_list_mergesort+0x108>
    80000498:	00000c13          	li	s8,0
    8000049c:	00000913          	li	s2,0
    800004a0:	00000b13          	li	s6,0
    800004a4:	001c0c1b          	addiw	s8,s8,1
    800004a8:	00048793          	mv	a5,s1
    800004ac:	00000413          	li	s0,0
    800004b0:	0007b783          	ld	a5,0(a5)
    800004b4:	0014041b          	addiw	s0,s0,1
    800004b8:	00078463          	beqz	a5,800004c0 <core_list_mergesort+0x74>
    800004bc:	fe8a9ae3          	bne	s5,s0,800004b0 <core_list_mergesort+0x64>
    800004c0:	00048a13          	mv	s4,s1
    800004c4:	000a8993          	mv	s3,s5
    800004c8:	00078493          	mv	s1,a5
    800004cc:	02040e63          	beqz	s0,80000508 <core_list_mergesort+0xbc>
    800004d0:	04098e63          	beqz	s3,8000052c <core_list_mergesort+0xe0>
    800004d4:	04048c63          	beqz	s1,8000052c <core_list_mergesort+0xe0>
    800004d8:	0084b583          	ld	a1,8(s1)
    800004dc:	008a3503          	ld	a0,8(s4)
    800004e0:	000d0613          	mv	a2,s10
    800004e4:	000b80e7          	jalr	s7
    800004e8:	04a05263          	blez	a0,8000052c <core_list_mergesort+0xe0>
    800004ec:	00048793          	mv	a5,s1
    800004f0:	0004b483          	ld	s1,0(s1)
    800004f4:	fff9899b          	addiw	s3,s3,-1
    800004f8:	02090463          	beqz	s2,80000520 <core_list_mergesort+0xd4>
    800004fc:	00f93023          	sd	a5,0(s2)
    80000500:	00078913          	mv	s2,a5
    80000504:	fc0416e3          	bnez	s0,800004d0 <core_list_mergesort+0x84>
    80000508:	02098a63          	beqz	s3,8000053c <core_list_mergesort+0xf0>
    8000050c:	02048a63          	beqz	s1,80000540 <core_list_mergesort+0xf4>
    80000510:	00048793          	mv	a5,s1
    80000514:	fff9899b          	addiw	s3,s3,-1
    80000518:	0004b483          	ld	s1,0(s1)
    8000051c:	fe0910e3          	bnez	s2,800004fc <core_list_mergesort+0xb0>
    80000520:	00078b13          	mv	s6,a5
    80000524:	00078913          	mv	s2,a5
    80000528:	fddff06f          	j	80000504 <core_list_mergesort+0xb8>
    8000052c:	000a0793          	mv	a5,s4
    80000530:	fff4041b          	addiw	s0,s0,-1
    80000534:	000a3a03          	ld	s4,0(s4)
    80000538:	fc1ff06f          	j	800004f8 <core_list_mergesort+0xac>
    8000053c:	f60494e3          	bnez	s1,800004a4 <core_list_mergesort+0x58>
    80000540:	00093023          	sd	zero,0(s2)
    80000544:	019c0c63          	beq	s8,s9,8000055c <core_list_mergesort+0x110>
    80000548:	001a9a9b          	slliw	s5,s5,0x1
    8000054c:	000b0493          	mv	s1,s6
    80000550:	f45ff06f          	j	80000494 <core_list_mergesort+0x48>
    80000554:	00003023          	sd	zero,0(zero) # 0 <_start-0x80000000>
    80000558:	00100073          	ebreak
    8000055c:	05813083          	ld	ra,88(sp)
    80000560:	05013403          	ld	s0,80(sp)
    80000564:	04813483          	ld	s1,72(sp)
    80000568:	04013903          	ld	s2,64(sp)
    8000056c:	03813983          	ld	s3,56(sp)
    80000570:	03013a03          	ld	s4,48(sp)
    80000574:	02813a83          	ld	s5,40(sp)
    80000578:	01813b83          	ld	s7,24(sp)
    8000057c:	01013c03          	ld	s8,16(sp)
    80000580:	00813c83          	ld	s9,8(sp)
    80000584:	00013d03          	ld	s10,0(sp)
    80000588:	000b0513          	mv	a0,s6
    8000058c:	02013b03          	ld	s6,32(sp)
    80000590:	06010113          	addi	sp,sp,96
    80000594:	00008067          	ret

0000000080000598 <matrix_test>:
    80000598:	fd010113          	addi	sp,sp,-48
    8000059c:	00050813          	mv	a6,a0
    800005a0:	fffffe37          	lui	t3,0xfffff
    800005a4:	03071313          	slli	t1,a4,0x30
    800005a8:	02813423          	sd	s0,40(sp)
    800005ac:	02913023          	sd	s1,32(sp)
    800005b0:	01213c23          	sd	s2,24(sp)
    800005b4:	01313823          	sd	s3,16(sp)
    800005b8:	01413423          	sd	s4,8(sp)
    800005bc:	00058893          	mv	a7,a1
    800005c0:	00068513          	mv	a0,a3
    800005c4:	00060593          	mv	a1,a2
    800005c8:	01c76e33          	or	t3,a4,t3
    800005cc:	03035313          	srli	t1,t1,0x30
    800005d0:	700802e3          	beqz	a6,800014d4 <matrix_test+0xf3c>
    800005d4:	00070e93          	mv	t4,a4
    800005d8:	00080613          	mv	a2,a6
    800005dc:	00000f93          	li	t6,0
    800005e0:	00000f13          	li	t5,0
    800005e4:	000f8713          	mv	a4,t6
    800005e8:	02071693          	slli	a3,a4,0x20
    800005ec:	01f6d793          	srli	a5,a3,0x1f
    800005f0:	00f587b3          	add	a5,a1,a5
    800005f4:	0007d683          	lhu	a3,0(a5)
    800005f8:	0017071b          	addiw	a4,a4,1
    800005fc:	006686bb          	addw	a3,a3,t1
    80000600:	00d79023          	sh	a3,0(a5)
    80000604:	fec712e3          	bne	a4,a2,800005e8 <matrix_test+0x50>
    80000608:	001f029b          	addiw	t0,t5,1
    8000060c:	01f80fbb          	addw	t6,a6,t6
    80000610:	00c8063b          	addw	a2,a6,a2
    80000614:	00580663          	beq	a6,t0,80000620 <matrix_test+0x88>
    80000618:	00028f13          	mv	t5,t0
    8000061c:	fc9ff06f          	j	800005e4 <matrix_test+0x4c>
    80000620:	000e8e9b          	sext.w	t4,t4
    80000624:	00080613          	mv	a2,a6
    80000628:	00000f93          	li	t6,0
    8000062c:	00000393          	li	t2,0
    80000630:	000f8713          	mv	a4,t6
    80000634:	02071793          	slli	a5,a4,0x20
    80000638:	0207d793          	srli	a5,a5,0x20
    8000063c:	00179693          	slli	a3,a5,0x1
    80000640:	00d586b3          	add	a3,a1,a3
    80000644:	00069683          	lh	a3,0(a3)
    80000648:	00279793          	slli	a5,a5,0x2
    8000064c:	00f887b3          	add	a5,a7,a5
    80000650:	03d686bb          	mulw	a3,a3,t4
    80000654:	0017071b          	addiw	a4,a4,1
    80000658:	00d7a023          	sw	a3,0(a5)
    8000065c:	fce61ce3          	bne	a2,a4,80000634 <matrix_test+0x9c>
    80000660:	0013879b          	addiw	a5,t2,1
    80000664:	01f28fbb          	addw	t6,t0,t6
    80000668:	00c2863b          	addw	a2,t0,a2
    8000066c:	007f0663          	beq	t5,t2,80000678 <matrix_test+0xe0>
    80000670:	00078393          	mv	t2,a5
    80000674:	fbdff06f          	j	80000630 <matrix_test+0x98>
    80000678:	000e049b          	sext.w	s1,t3
    8000067c:	00028393          	mv	t2,t0
    80000680:	00000913          	li	s2,0
    80000684:	00000713          	li	a4,0
    80000688:	00000613          	li	a2,0
    8000068c:	00000f93          	li	t6,0
    80000690:	00000993          	li	s3,0
    80000694:	00090693          	mv	a3,s2
    80000698:	01c0006f          	j	800006b4 <matrix_test+0x11c>
    8000069c:	03079413          	slli	s0,a5,0x30
    800006a0:	0107971b          	slliw	a4,a5,0x10
    800006a4:	0016869b          	addiw	a3,a3,1
    800006a8:	03045413          	srli	s0,s0,0x30
    800006ac:	4107571b          	sraiw	a4,a4,0x10
    800006b0:	04768863          	beq	a3,t2,80000700 <matrix_test+0x168>
    800006b4:	02069793          	slli	a5,a3,0x20
    800006b8:	01e7de93          	srli	t4,a5,0x1e
    800006bc:	01d88eb3          	add	t4,a7,t4
    800006c0:	00060793          	mv	a5,a2
    800006c4:	000ea603          	lw	a2,0(t4)
    800006c8:	03071713          	slli	a4,a4,0x30
    800006cc:	03075713          	srli	a4,a4,0x30
    800006d0:	00c7a7b3          	slt	a5,a5,a2
    800006d4:	01f60fbb          	addw	t6,a2,t6
    800006d8:	00a70e9b          	addiw	t4,a4,10
    800006dc:	00e787bb          	addw	a5,a5,a4
    800006e0:	fbf4dee3          	bge	s1,t6,8000069c <matrix_test+0x104>
    800006e4:	030e9413          	slli	s0,t4,0x30
    800006e8:	010e971b          	slliw	a4,t4,0x10
    800006ec:	0016869b          	addiw	a3,a3,1
    800006f0:	03045413          	srli	s0,s0,0x30
    800006f4:	4107571b          	sraiw	a4,a4,0x10
    800006f8:	00000f93          	li	t6,0
    800006fc:	fa769ce3          	bne	a3,t2,800006b4 <matrix_test+0x11c>
    80000700:	0019879b          	addiw	a5,s3,1
    80000704:	00d283bb          	addw	t2,t0,a3
    80000708:	0122893b          	addw	s2,t0,s2
    8000070c:	013f0663          	beq	t5,s3,80000718 <matrix_test+0x180>
    80000710:	00078993          	mv	s3,a5
    80000714:	f81ff06f          	j	80000694 <matrix_test+0xfc>
    80000718:	0ff77713          	zext.b	a4,a4
    8000071c:	00177793          	andi	a5,a4,1
    80000720:	0000a6b7          	lui	a3,0xa
    80000724:	40f007b3          	neg	a5,a5
    80000728:	00168693          	addi	a3,a3,1 # a001 <_start-0x7fff5fff>
    8000072c:	00f6f6b3          	and	a3,a3,a5
    80000730:	00175613          	srli	a2,a4,0x1
    80000734:	00d64633          	xor	a2,a2,a3
    80000738:	00167613          	andi	a2,a2,1
    8000073c:	00275793          	srli	a5,a4,0x2
    80000740:	00845413          	srli	s0,s0,0x8
    80000744:	0016d713          	srli	a4,a3,0x1
    80000748:	00060c63          	beqz	a2,80000760 <matrix_test+0x1c8>
    8000074c:	ffffa6b7          	lui	a3,0xffffa
    80000750:	00168693          	addi	a3,a3,1 # ffffffffffffa001 <_pmem_end+0xffffffff77ffa001>
    80000754:	00d74733          	xor	a4,a4,a3
    80000758:	03071713          	slli	a4,a4,0x30
    8000075c:	03075713          	srli	a4,a4,0x30
    80000760:	00e7c633          	xor	a2,a5,a4
    80000764:	00167613          	andi	a2,a2,1
    80000768:	0017d693          	srli	a3,a5,0x1
    8000076c:	00175f93          	srli	t6,a4,0x1
    80000770:	00060c63          	beqz	a2,80000788 <matrix_test+0x1f0>
    80000774:	ffffa737          	lui	a4,0xffffa
    80000778:	00170713          	addi	a4,a4,1 # ffffffffffffa001 <_pmem_end+0xffffffff77ffa001>
    8000077c:	00efcfb3          	xor	t6,t6,a4
    80000780:	030f9f93          	slli	t6,t6,0x30
    80000784:	030fdf93          	srli	t6,t6,0x30
    80000788:	01f6c6b3          	xor	a3,a3,t6
    8000078c:	0016f693          	andi	a3,a3,1
    80000790:	0027d713          	srli	a4,a5,0x2
    80000794:	001fdf93          	srli	t6,t6,0x1
    80000798:	00068c63          	beqz	a3,800007b0 <matrix_test+0x218>
    8000079c:	ffffa6b7          	lui	a3,0xffffa
    800007a0:	00168693          	addi	a3,a3,1 # ffffffffffffa001 <_pmem_end+0xffffffff77ffa001>
    800007a4:	00dfcfb3          	xor	t6,t6,a3
    800007a8:	030f9f93          	slli	t6,t6,0x30
    800007ac:	030fdf93          	srli	t6,t6,0x30
    800007b0:	01f74733          	xor	a4,a4,t6
    800007b4:	00177713          	andi	a4,a4,1
    800007b8:	0037d693          	srli	a3,a5,0x3
    800007bc:	001fdf93          	srli	t6,t6,0x1
    800007c0:	00070c63          	beqz	a4,800007d8 <matrix_test+0x240>
    800007c4:	ffffa737          	lui	a4,0xffffa
    800007c8:	00170713          	addi	a4,a4,1 # ffffffffffffa001 <_pmem_end+0xffffffff77ffa001>
    800007cc:	00efcfb3          	xor	t6,t6,a4
    800007d0:	030f9f93          	slli	t6,t6,0x30
    800007d4:	030fdf93          	srli	t6,t6,0x30
    800007d8:	01f6c6b3          	xor	a3,a3,t6
    800007dc:	0016f693          	andi	a3,a3,1
    800007e0:	0047d713          	srli	a4,a5,0x4
    800007e4:	001fdf93          	srli	t6,t6,0x1
    800007e8:	00068c63          	beqz	a3,80000800 <matrix_test+0x268>
    800007ec:	ffffa6b7          	lui	a3,0xffffa
    800007f0:	00168693          	addi	a3,a3,1 # ffffffffffffa001 <_pmem_end+0xffffffff77ffa001>
    800007f4:	00dfcfb3          	xor	t6,t6,a3
    800007f8:	030f9f93          	slli	t6,t6,0x30
    800007fc:	030fdf93          	srli	t6,t6,0x30
    80000800:	01f74733          	xor	a4,a4,t6
    80000804:	00177713          	andi	a4,a4,1
    80000808:	0057d793          	srli	a5,a5,0x5
    8000080c:	001fdf93          	srli	t6,t6,0x1
    80000810:	00070c63          	beqz	a4,80000828 <matrix_test+0x290>
    80000814:	ffffa737          	lui	a4,0xffffa
    80000818:	00170713          	addi	a4,a4,1 # ffffffffffffa001 <_pmem_end+0xffffffff77ffa001>
    8000081c:	00efcfb3          	xor	t6,t6,a4
    80000820:	030f9f93          	slli	t6,t6,0x30
    80000824:	030fdf93          	srli	t6,t6,0x30
    80000828:	001ff713          	andi	a4,t6,1
    8000082c:	001fdf93          	srli	t6,t6,0x1
    80000830:	00f70c63          	beq	a4,a5,80000848 <matrix_test+0x2b0>
    80000834:	ffffa7b7          	lui	a5,0xffffa
    80000838:	00178793          	addi	a5,a5,1 # ffffffffffffa001 <_pmem_end+0xffffffff77ffa001>
    8000083c:	00ffcfb3          	xor	t6,t6,a5
    80000840:	030f9f93          	slli	t6,t6,0x30
    80000844:	030fdf93          	srli	t6,t6,0x30
    80000848:	01f447b3          	xor	a5,s0,t6
    8000084c:	0017f793          	andi	a5,a5,1
    80000850:	00145713          	srli	a4,s0,0x1
    80000854:	001fdf93          	srli	t6,t6,0x1
    80000858:	00078c63          	beqz	a5,80000870 <matrix_test+0x2d8>
    8000085c:	ffffa7b7          	lui	a5,0xffffa
    80000860:	00178793          	addi	a5,a5,1 # ffffffffffffa001 <_pmem_end+0xffffffff77ffa001>
    80000864:	00ffcfb3          	xor	t6,t6,a5
    80000868:	030f9f93          	slli	t6,t6,0x30
    8000086c:	030fdf93          	srli	t6,t6,0x30
    80000870:	01f74733          	xor	a4,a4,t6
    80000874:	00177713          	andi	a4,a4,1
    80000878:	00245793          	srli	a5,s0,0x2
    8000087c:	001fdf93          	srli	t6,t6,0x1
    80000880:	00070c63          	beqz	a4,80000898 <matrix_test+0x300>
    80000884:	ffffa737          	lui	a4,0xffffa
    80000888:	00170713          	addi	a4,a4,1 # ffffffffffffa001 <_pmem_end+0xffffffff77ffa001>
    8000088c:	00efcfb3          	xor	t6,t6,a4
    80000890:	030f9f93          	slli	t6,t6,0x30
    80000894:	030fdf93          	srli	t6,t6,0x30
    80000898:	01f7c7b3          	xor	a5,a5,t6
    8000089c:	0017f793          	andi	a5,a5,1
    800008a0:	00345713          	srli	a4,s0,0x3
    800008a4:	001fdf93          	srli	t6,t6,0x1
    800008a8:	00078c63          	beqz	a5,800008c0 <matrix_test+0x328>
    800008ac:	ffffa7b7          	lui	a5,0xffffa
    800008b0:	00178793          	addi	a5,a5,1 # ffffffffffffa001 <_pmem_end+0xffffffff77ffa001>
    800008b4:	00ffcfb3          	xor	t6,t6,a5
    800008b8:	030f9f93          	slli	t6,t6,0x30
    800008bc:	030fdf93          	srli	t6,t6,0x30
    800008c0:	01f74733          	xor	a4,a4,t6
    800008c4:	00177713          	andi	a4,a4,1
    800008c8:	00445793          	srli	a5,s0,0x4
    800008cc:	001fdf93          	srli	t6,t6,0x1
    800008d0:	00070c63          	beqz	a4,800008e8 <matrix_test+0x350>
    800008d4:	ffffa737          	lui	a4,0xffffa
    800008d8:	00170713          	addi	a4,a4,1 # ffffffffffffa001 <_pmem_end+0xffffffff77ffa001>
    800008dc:	00efcfb3          	xor	t6,t6,a4
    800008e0:	030f9f93          	slli	t6,t6,0x30
    800008e4:	030fdf93          	srli	t6,t6,0x30
    800008e8:	01f7c7b3          	xor	a5,a5,t6
    800008ec:	0017f793          	andi	a5,a5,1
    800008f0:	00545713          	srli	a4,s0,0x5
    800008f4:	001fdf93          	srli	t6,t6,0x1
    800008f8:	00078c63          	beqz	a5,80000910 <matrix_test+0x378>
    800008fc:	ffffa7b7          	lui	a5,0xffffa
    80000900:	00178793          	addi	a5,a5,1 # ffffffffffffa001 <_pmem_end+0xffffffff77ffa001>
    80000904:	00ffcfb3          	xor	t6,t6,a5
    80000908:	030f9f93          	slli	t6,t6,0x30
    8000090c:	030fdf93          	srli	t6,t6,0x30
    80000910:	01f74733          	xor	a4,a4,t6
    80000914:	00177713          	andi	a4,a4,1
    80000918:	00645793          	srli	a5,s0,0x6
    8000091c:	001fdf93          	srli	t6,t6,0x1
    80000920:	00070c63          	beqz	a4,80000938 <matrix_test+0x3a0>
    80000924:	ffffa737          	lui	a4,0xffffa
    80000928:	00170713          	addi	a4,a4,1 # ffffffffffffa001 <_pmem_end+0xffffffff77ffa001>
    8000092c:	00efcfb3          	xor	t6,t6,a4
    80000930:	030f9f93          	slli	t6,t6,0x30
    80000934:	030fdf93          	srli	t6,t6,0x30
    80000938:	01f7c7b3          	xor	a5,a5,t6
    8000093c:	0017f793          	andi	a5,a5,1
    80000940:	00745413          	srli	s0,s0,0x7
    80000944:	001fdf93          	srli	t6,t6,0x1
    80000948:	00078c63          	beqz	a5,80000960 <matrix_test+0x3c8>
    8000094c:	ffffa7b7          	lui	a5,0xffffa
    80000950:	00178793          	addi	a5,a5,1 # ffffffffffffa001 <_pmem_end+0xffffffff77ffa001>
    80000954:	00ffcfb3          	xor	t6,t6,a5
    80000958:	030f9f93          	slli	t6,t6,0x30
    8000095c:	030fdf93          	srli	t6,t6,0x30
    80000960:	001ff793          	andi	a5,t6,1
    80000964:	001fdf93          	srli	t6,t6,0x1
    80000968:	00878c63          	beq	a5,s0,80000980 <matrix_test+0x3e8>
    8000096c:	ffffa7b7          	lui	a5,0xffffa
    80000970:	00178793          	addi	a5,a5,1 # ffffffffffffa001 <_pmem_end+0xffffffff77ffa001>
    80000974:	00ffc7b3          	xor	a5,t6,a5
    80000978:	03079f93          	slli	t6,a5,0x30
    8000097c:	030fdf93          	srli	t6,t6,0x30
    80000980:	360802e3          	beqz	a6,800014e4 <matrix_test+0xf4c>
    80000984:	fff8041b          	addiw	s0,a6,-1
    80000988:	02041793          	slli	a5,s0,0x20
    8000098c:	01e7d413          	srli	s0,a5,0x1e
    80000990:	00488793          	addi	a5,a7,4
    80000994:	00088293          	mv	t0,a7
    80000998:	00f40433          	add	s0,s0,a5
    8000099c:	00080f13          	mv	t5,a6
    800009a0:	00000393          	li	t2,0
    800009a4:	00050693          	mv	a3,a0
    800009a8:	00038793          	mv	a5,t2
    800009ac:	00000613          	li	a2,0
    800009b0:	02079e93          	slli	t4,a5,0x20
    800009b4:	01fed713          	srli	a4,t4,0x1f
    800009b8:	00e58733          	add	a4,a1,a4
    800009bc:	00069e83          	lh	t4,0(a3)
    800009c0:	00071703          	lh	a4,0(a4)
    800009c4:	0017879b          	addiw	a5,a5,1
    800009c8:	00268693          	addi	a3,a3,2
    800009cc:	03d7073b          	mulw	a4,a4,t4
    800009d0:	00c7063b          	addw	a2,a4,a2
    800009d4:	fde79ee3          	bne	a5,t5,800009b0 <matrix_test+0x418>
    800009d8:	00c2a023          	sw	a2,0(t0)
    800009dc:	00428293          	addi	t0,t0,4
    800009e0:	007803bb          	addw	t2,a6,t2
    800009e4:	00f80f3b          	addw	t5,a6,a5
    800009e8:	fa829ee3          	bne	t0,s0,800009a4 <matrix_test+0x40c>
    800009ec:	000e041b          	sext.w	s0,t3
    800009f0:	00080293          	mv	t0,a6
    800009f4:	00000913          	li	s2,0
    800009f8:	00000713          	li	a4,0
    800009fc:	00000613          	li	a2,0
    80000a00:	00000f13          	li	t5,0
    80000a04:	00000493          	li	s1,0
    80000a08:	00090693          	mv	a3,s2
    80000a0c:	01c0006f          	j	80000a28 <matrix_test+0x490>
    80000a10:	03079393          	slli	t2,a5,0x30
    80000a14:	0107971b          	slliw	a4,a5,0x10
    80000a18:	0016869b          	addiw	a3,a3,1
    80000a1c:	0303d393          	srli	t2,t2,0x30
    80000a20:	4107571b          	sraiw	a4,a4,0x10
    80000a24:	04d28863          	beq	t0,a3,80000a74 <matrix_test+0x4dc>
    80000a28:	02069793          	slli	a5,a3,0x20
    80000a2c:	01e7de93          	srli	t4,a5,0x1e
    80000a30:	01d88eb3          	add	t4,a7,t4
    80000a34:	00060793          	mv	a5,a2
    80000a38:	000ea603          	lw	a2,0(t4)
    80000a3c:	03071713          	slli	a4,a4,0x30
    80000a40:	03075713          	srli	a4,a4,0x30
    80000a44:	00c7a7b3          	slt	a5,a5,a2
    80000a48:	01e60f3b          	addw	t5,a2,t5
    80000a4c:	00a70e9b          	addiw	t4,a4,10
    80000a50:	00e787bb          	addw	a5,a5,a4
    80000a54:	fbe45ee3          	bge	s0,t5,80000a10 <matrix_test+0x478>
    80000a58:	030e9393          	slli	t2,t4,0x30
    80000a5c:	010e971b          	slliw	a4,t4,0x10
    80000a60:	0016869b          	addiw	a3,a3,1
    80000a64:	0303d393          	srli	t2,t2,0x30
    80000a68:	4107571b          	sraiw	a4,a4,0x10
    80000a6c:	00000f13          	li	t5,0
    80000a70:	fad29ce3          	bne	t0,a3,80000a28 <matrix_test+0x490>
    80000a74:	0014849b          	addiw	s1,s1,1
    80000a78:	005802bb          	addw	t0,a6,t0
    80000a7c:	0128093b          	addw	s2,a6,s2
    80000a80:	f89814e3          	bne	a6,s1,80000a08 <matrix_test+0x470>
    80000a84:	0ff77713          	zext.b	a4,a4
    80000a88:	0083d393          	srli	t2,t2,0x8
    80000a8c:	01f746b3          	xor	a3,a4,t6
    80000a90:	0016f693          	andi	a3,a3,1
    80000a94:	00175793          	srli	a5,a4,0x1
    80000a98:	001fd413          	srli	s0,t6,0x1
    80000a9c:	00068c63          	beqz	a3,80000ab4 <matrix_test+0x51c>
    80000aa0:	ffffa6b7          	lui	a3,0xffffa
    80000aa4:	00168693          	addi	a3,a3,1 # ffffffffffffa001 <_pmem_end+0xffffffff77ffa001>
    80000aa8:	00d44433          	xor	s0,s0,a3
    80000aac:	03041413          	slli	s0,s0,0x30
    80000ab0:	03045413          	srli	s0,s0,0x30
    80000ab4:	0087c7b3          	xor	a5,a5,s0
    80000ab8:	0017f793          	andi	a5,a5,1
    80000abc:	00275693          	srli	a3,a4,0x2
    80000ac0:	00145413          	srli	s0,s0,0x1
    80000ac4:	00078c63          	beqz	a5,80000adc <matrix_test+0x544>
    80000ac8:	ffffa7b7          	lui	a5,0xffffa
    80000acc:	00178793          	addi	a5,a5,1 # ffffffffffffa001 <_pmem_end+0xffffffff77ffa001>
    80000ad0:	00f44433          	xor	s0,s0,a5
    80000ad4:	03041413          	slli	s0,s0,0x30
    80000ad8:	03045413          	srli	s0,s0,0x30
    80000adc:	0086c6b3          	xor	a3,a3,s0
    80000ae0:	0016f693          	andi	a3,a3,1
    80000ae4:	00375793          	srli	a5,a4,0x3
    80000ae8:	00145413          	srli	s0,s0,0x1
    80000aec:	00068c63          	beqz	a3,80000b04 <matrix_test+0x56c>
    80000af0:	ffffa6b7          	lui	a3,0xffffa
    80000af4:	00168693          	addi	a3,a3,1 # ffffffffffffa001 <_pmem_end+0xffffffff77ffa001>
    80000af8:	00d44433          	xor	s0,s0,a3
    80000afc:	03041413          	slli	s0,s0,0x30
    80000b00:	03045413          	srli	s0,s0,0x30
    80000b04:	0087c7b3          	xor	a5,a5,s0
    80000b08:	0017f793          	andi	a5,a5,1
    80000b0c:	00475693          	srli	a3,a4,0x4
    80000b10:	00145413          	srli	s0,s0,0x1
    80000b14:	00078c63          	beqz	a5,80000b2c <matrix_test+0x594>
    80000b18:	ffffa7b7          	lui	a5,0xffffa
    80000b1c:	00178793          	addi	a5,a5,1 # ffffffffffffa001 <_pmem_end+0xffffffff77ffa001>
    80000b20:	00f44433          	xor	s0,s0,a5
    80000b24:	03041413          	slli	s0,s0,0x30
    80000b28:	03045413          	srli	s0,s0,0x30
    80000b2c:	0086c6b3          	xor	a3,a3,s0
    80000b30:	0016f693          	andi	a3,a3,1
    80000b34:	00575793          	srli	a5,a4,0x5
    80000b38:	00145413          	srli	s0,s0,0x1
    80000b3c:	00068c63          	beqz	a3,80000b54 <matrix_test+0x5bc>
    80000b40:	ffffa6b7          	lui	a3,0xffffa
    80000b44:	00168693          	addi	a3,a3,1 # ffffffffffffa001 <_pmem_end+0xffffffff77ffa001>
    80000b48:	00d44433          	xor	s0,s0,a3
    80000b4c:	03041413          	slli	s0,s0,0x30
    80000b50:	03045413          	srli	s0,s0,0x30
    80000b54:	0087c7b3          	xor	a5,a5,s0
    80000b58:	0017f793          	andi	a5,a5,1
    80000b5c:	00675693          	srli	a3,a4,0x6
    80000b60:	00145413          	srli	s0,s0,0x1
    80000b64:	00078c63          	beqz	a5,80000b7c <matrix_test+0x5e4>
    80000b68:	ffffa7b7          	lui	a5,0xffffa
    80000b6c:	00178793          	addi	a5,a5,1 # ffffffffffffa001 <_pmem_end+0xffffffff77ffa001>
    80000b70:	00f44433          	xor	s0,s0,a5
    80000b74:	03041413          	slli	s0,s0,0x30
    80000b78:	03045413          	srli	s0,s0,0x30
    80000b7c:	0086c6b3          	xor	a3,a3,s0
    80000b80:	0016f693          	andi	a3,a3,1
    80000b84:	00775793          	srli	a5,a4,0x7
    80000b88:	00145413          	srli	s0,s0,0x1
    80000b8c:	00068c63          	beqz	a3,80000ba4 <matrix_test+0x60c>
    80000b90:	ffffa737          	lui	a4,0xffffa
    80000b94:	00170713          	addi	a4,a4,1 # ffffffffffffa001 <_pmem_end+0xffffffff77ffa001>
    80000b98:	00e44433          	xor	s0,s0,a4
    80000b9c:	03041413          	slli	s0,s0,0x30
    80000ba0:	03045413          	srli	s0,s0,0x30
    80000ba4:	00147713          	andi	a4,s0,1
    80000ba8:	00145413          	srli	s0,s0,0x1
    80000bac:	00f70c63          	beq	a4,a5,80000bc4 <matrix_test+0x62c>
    80000bb0:	ffffa7b7          	lui	a5,0xffffa
    80000bb4:	00178793          	addi	a5,a5,1 # ffffffffffffa001 <_pmem_end+0xffffffff77ffa001>
    80000bb8:	00f44433          	xor	s0,s0,a5
    80000bbc:	03041413          	slli	s0,s0,0x30
    80000bc0:	03045413          	srli	s0,s0,0x30
    80000bc4:	0083c7b3          	xor	a5,t2,s0
    80000bc8:	0017f793          	andi	a5,a5,1
    80000bcc:	0013d713          	srli	a4,t2,0x1
    80000bd0:	00145413          	srli	s0,s0,0x1
    80000bd4:	00078c63          	beqz	a5,80000bec <matrix_test+0x654>
    80000bd8:	ffffa7b7          	lui	a5,0xffffa
    80000bdc:	00178793          	addi	a5,a5,1 # ffffffffffffa001 <_pmem_end+0xffffffff77ffa001>
    80000be0:	00f44433          	xor	s0,s0,a5
    80000be4:	03041413          	slli	s0,s0,0x30
    80000be8:	03045413          	srli	s0,s0,0x30
    80000bec:	00874733          	xor	a4,a4,s0
    80000bf0:	00177713          	andi	a4,a4,1
    80000bf4:	0023d793          	srli	a5,t2,0x2
    80000bf8:	00145413          	srli	s0,s0,0x1
    80000bfc:	00070c63          	beqz	a4,80000c14 <matrix_test+0x67c>
    80000c00:	ffffa737          	lui	a4,0xffffa
    80000c04:	00170713          	addi	a4,a4,1 # ffffffffffffa001 <_pmem_end+0xffffffff77ffa001>
    80000c08:	00e44433          	xor	s0,s0,a4
    80000c0c:	03041413          	slli	s0,s0,0x30
    80000c10:	03045413          	srli	s0,s0,0x30
    80000c14:	0087c7b3          	xor	a5,a5,s0
    80000c18:	0017f793          	andi	a5,a5,1
    80000c1c:	0033d713          	srli	a4,t2,0x3
    80000c20:	00145413          	srli	s0,s0,0x1
    80000c24:	00078c63          	beqz	a5,80000c3c <matrix_test+0x6a4>
    80000c28:	ffffa7b7          	lui	a5,0xffffa
    80000c2c:	00178793          	addi	a5,a5,1 # ffffffffffffa001 <_pmem_end+0xffffffff77ffa001>
    80000c30:	00f44433          	xor	s0,s0,a5
    80000c34:	03041413          	slli	s0,s0,0x30
    80000c38:	03045413          	srli	s0,s0,0x30
    80000c3c:	00874733          	xor	a4,a4,s0
    80000c40:	00177713          	andi	a4,a4,1
    80000c44:	0043d793          	srli	a5,t2,0x4
    80000c48:	00145413          	srli	s0,s0,0x1
    80000c4c:	00070c63          	beqz	a4,80000c64 <matrix_test+0x6cc>
    80000c50:	ffffa737          	lui	a4,0xffffa
    80000c54:	00170713          	addi	a4,a4,1 # ffffffffffffa001 <_pmem_end+0xffffffff77ffa001>
    80000c58:	00e44433          	xor	s0,s0,a4
    80000c5c:	03041413          	slli	s0,s0,0x30
    80000c60:	03045413          	srli	s0,s0,0x30
    80000c64:	0087c7b3          	xor	a5,a5,s0
    80000c68:	0017f793          	andi	a5,a5,1
    80000c6c:	0053d713          	srli	a4,t2,0x5
    80000c70:	00145413          	srli	s0,s0,0x1
    80000c74:	00078c63          	beqz	a5,80000c8c <matrix_test+0x6f4>
    80000c78:	ffffa7b7          	lui	a5,0xffffa
    80000c7c:	00178793          	addi	a5,a5,1 # ffffffffffffa001 <_pmem_end+0xffffffff77ffa001>
    80000c80:	00f44433          	xor	s0,s0,a5
    80000c84:	03041413          	slli	s0,s0,0x30
    80000c88:	03045413          	srli	s0,s0,0x30
    80000c8c:	00874733          	xor	a4,a4,s0
    80000c90:	00177713          	andi	a4,a4,1
    80000c94:	0063d793          	srli	a5,t2,0x6
    80000c98:	00145413          	srli	s0,s0,0x1
    80000c9c:	00070c63          	beqz	a4,80000cb4 <matrix_test+0x71c>
    80000ca0:	ffffa737          	lui	a4,0xffffa
    80000ca4:	00170713          	addi	a4,a4,1 # ffffffffffffa001 <_pmem_end+0xffffffff77ffa001>
    80000ca8:	00e44433          	xor	s0,s0,a4
    80000cac:	03041413          	slli	s0,s0,0x30
    80000cb0:	03045413          	srli	s0,s0,0x30
    80000cb4:	0087c7b3          	xor	a5,a5,s0
    80000cb8:	0017f793          	andi	a5,a5,1
    80000cbc:	0073d393          	srli	t2,t2,0x7
    80000cc0:	00145413          	srli	s0,s0,0x1
    80000cc4:	00078c63          	beqz	a5,80000cdc <matrix_test+0x744>
    80000cc8:	ffffa7b7          	lui	a5,0xffffa
    80000ccc:	00178793          	addi	a5,a5,1 # ffffffffffffa001 <_pmem_end+0xffffffff77ffa001>
    80000cd0:	00f44433          	xor	s0,s0,a5
    80000cd4:	03041413          	slli	s0,s0,0x30
    80000cd8:	03045413          	srli	s0,s0,0x30
    80000cdc:	00147793          	andi	a5,s0,1
    80000ce0:	00145413          	srli	s0,s0,0x1
    80000ce4:	00778c63          	beq	a5,t2,80000cfc <matrix_test+0x764>
    80000ce8:	ffffa7b7          	lui	a5,0xffffa
    80000cec:	00178793          	addi	a5,a5,1 # ffffffffffffa001 <_pmem_end+0xffffffff77ffa001>
    80000cf0:	00f447b3          	xor	a5,s0,a5
    80000cf4:	03079413          	slli	s0,a5,0x30
    80000cf8:	03045413          	srli	s0,s0,0x30
    80000cfc:	00080f13          	mv	t5,a6
    80000d00:	00000493          	li	s1,0
    80000d04:	00000913          	li	s2,0
    80000d08:	00000713          	li	a4,0
    80000d0c:	06080a63          	beqz	a6,80000d80 <matrix_test+0x7e8>
    80000d10:	00000393          	li	t2,0
    80000d14:	009382bb          	addw	t0,t2,s1
    80000d18:	02029793          	slli	a5,t0,0x20
    80000d1c:	01e7d293          	srli	t0,a5,0x1e
    80000d20:	005882b3          	add	t0,a7,t0
    80000d24:	00038613          	mv	a2,t2
    80000d28:	00048793          	mv	a5,s1
    80000d2c:	00000e93          	li	t4,0
    80000d30:	02079693          	slli	a3,a5,0x20
    80000d34:	02061f93          	slli	t6,a2,0x20
    80000d38:	01f6d713          	srli	a4,a3,0x1f
    80000d3c:	01ffd693          	srli	a3,t6,0x1f
    80000d40:	00e58733          	add	a4,a1,a4
    80000d44:	00d506b3          	add	a3,a0,a3
    80000d48:	00071703          	lh	a4,0(a4)
    80000d4c:	00069683          	lh	a3,0(a3)
    80000d50:	0017879b          	addiw	a5,a5,1
    80000d54:	00c8063b          	addw	a2,a6,a2
    80000d58:	02d7073b          	mulw	a4,a4,a3
    80000d5c:	01d70ebb          	addw	t4,a4,t4
    80000d60:	fcff18e3          	bne	t5,a5,80000d30 <matrix_test+0x798>
    80000d64:	01d2a023          	sw	t4,0(t0)
    80000d68:	00138f9b          	addiw	t6,t2,1
    80000d6c:	5ff80c63          	beq	a6,t6,80001364 <matrix_test+0xdcc>
    80000d70:	000f8393          	mv	t2,t6
    80000d74:	fa1ff06f          	j	80000d14 <matrix_test+0x77c>
    80000d78:	0ff77713          	zext.b	a4,a4
    80000d7c:	0084d493          	srli	s1,s1,0x8
    80000d80:	008746b3          	xor	a3,a4,s0
    80000d84:	0016f693          	andi	a3,a3,1
    80000d88:	00175793          	srli	a5,a4,0x1
    80000d8c:	00145393          	srli	t2,s0,0x1
    80000d90:	00068c63          	beqz	a3,80000da8 <matrix_test+0x810>
    80000d94:	ffffa6b7          	lui	a3,0xffffa
    80000d98:	00168693          	addi	a3,a3,1 # ffffffffffffa001 <_pmem_end+0xffffffff77ffa001>
    80000d9c:	00d3c3b3          	xor	t2,t2,a3
    80000da0:	03039393          	slli	t2,t2,0x30
    80000da4:	0303d393          	srli	t2,t2,0x30
    80000da8:	0077c7b3          	xor	a5,a5,t2
    80000dac:	0017f793          	andi	a5,a5,1
    80000db0:	00275693          	srli	a3,a4,0x2
    80000db4:	0013d393          	srli	t2,t2,0x1
    80000db8:	00078c63          	beqz	a5,80000dd0 <matrix_test+0x838>
    80000dbc:	ffffa7b7          	lui	a5,0xffffa
    80000dc0:	00178793          	addi	a5,a5,1 # ffffffffffffa001 <_pmem_end+0xffffffff77ffa001>
    80000dc4:	00f3c3b3          	xor	t2,t2,a5
    80000dc8:	03039393          	slli	t2,t2,0x30
    80000dcc:	0303d393          	srli	t2,t2,0x30
    80000dd0:	0076c6b3          	xor	a3,a3,t2
    80000dd4:	0016f693          	andi	a3,a3,1
    80000dd8:	00375793          	srli	a5,a4,0x3
    80000ddc:	0013d393          	srli	t2,t2,0x1
    80000de0:	00068c63          	beqz	a3,80000df8 <matrix_test+0x860>
    80000de4:	ffffa6b7          	lui	a3,0xffffa
    80000de8:	00168693          	addi	a3,a3,1 # ffffffffffffa001 <_pmem_end+0xffffffff77ffa001>
    80000dec:	00d3c3b3          	xor	t2,t2,a3
    80000df0:	03039393          	slli	t2,t2,0x30
    80000df4:	0303d393          	srli	t2,t2,0x30
    80000df8:	0077c7b3          	xor	a5,a5,t2
    80000dfc:	0017f793          	andi	a5,a5,1
    80000e00:	00475693          	srli	a3,a4,0x4
    80000e04:	0013d393          	srli	t2,t2,0x1
    80000e08:	00078c63          	beqz	a5,80000e20 <matrix_test+0x888>
    80000e0c:	ffffa7b7          	lui	a5,0xffffa
    80000e10:	00178793          	addi	a5,a5,1 # ffffffffffffa001 <_pmem_end+0xffffffff77ffa001>
    80000e14:	00f3c3b3          	xor	t2,t2,a5
    80000e18:	03039393          	slli	t2,t2,0x30
    80000e1c:	0303d393          	srli	t2,t2,0x30
    80000e20:	0076c6b3          	xor	a3,a3,t2
    80000e24:	0016f693          	andi	a3,a3,1
    80000e28:	00575793          	srli	a5,a4,0x5
    80000e2c:	0013d393          	srli	t2,t2,0x1
    80000e30:	00068c63          	beqz	a3,80000e48 <matrix_test+0x8b0>
    80000e34:	ffffa6b7          	lui	a3,0xffffa
    80000e38:	00168693          	addi	a3,a3,1 # ffffffffffffa001 <_pmem_end+0xffffffff77ffa001>
    80000e3c:	00d3c3b3          	xor	t2,t2,a3
    80000e40:	03039393          	slli	t2,t2,0x30
    80000e44:	0303d393          	srli	t2,t2,0x30
    80000e48:	0077c7b3          	xor	a5,a5,t2
    80000e4c:	0017f793          	andi	a5,a5,1
    80000e50:	00675693          	srli	a3,a4,0x6
    80000e54:	0013d393          	srli	t2,t2,0x1
    80000e58:	00078c63          	beqz	a5,80000e70 <matrix_test+0x8d8>
    80000e5c:	ffffa7b7          	lui	a5,0xffffa
    80000e60:	00178793          	addi	a5,a5,1 # ffffffffffffa001 <_pmem_end+0xffffffff77ffa001>
    80000e64:	00f3c3b3          	xor	t2,t2,a5
    80000e68:	03039393          	slli	t2,t2,0x30
    80000e6c:	0303d393          	srli	t2,t2,0x30
    80000e70:	0076c6b3          	xor	a3,a3,t2
    80000e74:	0016f693          	andi	a3,a3,1
    80000e78:	00775793          	srli	a5,a4,0x7
    80000e7c:	0013d393          	srli	t2,t2,0x1
    80000e80:	00068c63          	beqz	a3,80000e98 <matrix_test+0x900>
    80000e84:	ffffa737          	lui	a4,0xffffa
    80000e88:	00170713          	addi	a4,a4,1 # ffffffffffffa001 <_pmem_end+0xffffffff77ffa001>
    80000e8c:	00e3c3b3          	xor	t2,t2,a4
    80000e90:	03039393          	slli	t2,t2,0x30
    80000e94:	0303d393          	srli	t2,t2,0x30
    80000e98:	0013f713          	andi	a4,t2,1
    80000e9c:	0013d393          	srli	t2,t2,0x1
    80000ea0:	00f70c63          	beq	a4,a5,80000eb8 <matrix_test+0x920>
    80000ea4:	ffffa7b7          	lui	a5,0xffffa
    80000ea8:	00178793          	addi	a5,a5,1 # ffffffffffffa001 <_pmem_end+0xffffffff77ffa001>
    80000eac:	00f3c3b3          	xor	t2,t2,a5
    80000eb0:	03039393          	slli	t2,t2,0x30
    80000eb4:	0303d393          	srli	t2,t2,0x30
    80000eb8:	0074c7b3          	xor	a5,s1,t2
    80000ebc:	0017f793          	andi	a5,a5,1
    80000ec0:	0014d713          	srli	a4,s1,0x1
    80000ec4:	0013d393          	srli	t2,t2,0x1
    80000ec8:	00078c63          	beqz	a5,80000ee0 <matrix_test+0x948>
    80000ecc:	ffffa7b7          	lui	a5,0xffffa
    80000ed0:	00178793          	addi	a5,a5,1 # ffffffffffffa001 <_pmem_end+0xffffffff77ffa001>
    80000ed4:	00f3c3b3          	xor	t2,t2,a5
    80000ed8:	03039393          	slli	t2,t2,0x30
    80000edc:	0303d393          	srli	t2,t2,0x30
    80000ee0:	00774733          	xor	a4,a4,t2
    80000ee4:	00177713          	andi	a4,a4,1
    80000ee8:	0024d793          	srli	a5,s1,0x2
    80000eec:	0013d393          	srli	t2,t2,0x1
    80000ef0:	00070c63          	beqz	a4,80000f08 <matrix_test+0x970>
    80000ef4:	ffffa737          	lui	a4,0xffffa
    80000ef8:	00170713          	addi	a4,a4,1 # ffffffffffffa001 <_pmem_end+0xffffffff77ffa001>
    80000efc:	00e3c3b3          	xor	t2,t2,a4
    80000f00:	03039393          	slli	t2,t2,0x30
    80000f04:	0303d393          	srli	t2,t2,0x30
    80000f08:	0077c7b3          	xor	a5,a5,t2
    80000f0c:	0017f793          	andi	a5,a5,1
    80000f10:	0034d713          	srli	a4,s1,0x3
    80000f14:	0013d393          	srli	t2,t2,0x1
    80000f18:	00078c63          	beqz	a5,80000f30 <matrix_test+0x998>
    80000f1c:	ffffa7b7          	lui	a5,0xffffa
    80000f20:	00178793          	addi	a5,a5,1 # ffffffffffffa001 <_pmem_end+0xffffffff77ffa001>
    80000f24:	00f3c3b3          	xor	t2,t2,a5
    80000f28:	03039393          	slli	t2,t2,0x30
    80000f2c:	0303d393          	srli	t2,t2,0x30
    80000f30:	00774733          	xor	a4,a4,t2
    80000f34:	00177713          	andi	a4,a4,1
    80000f38:	0044d793          	srli	a5,s1,0x4
    80000f3c:	0013d393          	srli	t2,t2,0x1
    80000f40:	00070c63          	beqz	a4,80000f58 <matrix_test+0x9c0>
    80000f44:	ffffa737          	lui	a4,0xffffa
    80000f48:	00170713          	addi	a4,a4,1 # ffffffffffffa001 <_pmem_end+0xffffffff77ffa001>
    80000f4c:	00e3c3b3          	xor	t2,t2,a4
    80000f50:	03039393          	slli	t2,t2,0x30
    80000f54:	0303d393          	srli	t2,t2,0x30
    80000f58:	0077c7b3          	xor	a5,a5,t2
    80000f5c:	0017f793          	andi	a5,a5,1
    80000f60:	0054d713          	srli	a4,s1,0x5
    80000f64:	0013d393          	srli	t2,t2,0x1
    80000f68:	00078c63          	beqz	a5,80000f80 <matrix_test+0x9e8>
    80000f6c:	ffffa7b7          	lui	a5,0xffffa
    80000f70:	00178793          	addi	a5,a5,1 # ffffffffffffa001 <_pmem_end+0xffffffff77ffa001>
    80000f74:	00f3c3b3          	xor	t2,t2,a5
    80000f78:	03039393          	slli	t2,t2,0x30
    80000f7c:	0303d393          	srli	t2,t2,0x30
    80000f80:	00774733          	xor	a4,a4,t2
    80000f84:	00177713          	andi	a4,a4,1
    80000f88:	0064d793          	srli	a5,s1,0x6
    80000f8c:	0013d393          	srli	t2,t2,0x1
    80000f90:	00070c63          	beqz	a4,80000fa8 <matrix_test+0xa10>
    80000f94:	ffffa737          	lui	a4,0xffffa
    80000f98:	00170713          	addi	a4,a4,1 # ffffffffffffa001 <_pmem_end+0xffffffff77ffa001>
    80000f9c:	00e3c3b3          	xor	t2,t2,a4
    80000fa0:	03039393          	slli	t2,t2,0x30
    80000fa4:	0303d393          	srli	t2,t2,0x30
    80000fa8:	0077c7b3          	xor	a5,a5,t2
    80000fac:	0017f793          	andi	a5,a5,1
    80000fb0:	0074d493          	srli	s1,s1,0x7
    80000fb4:	0013d393          	srli	t2,t2,0x1
    80000fb8:	00078c63          	beqz	a5,80000fd0 <matrix_test+0xa38>
    80000fbc:	ffffa7b7          	lui	a5,0xffffa
    80000fc0:	00178793          	addi	a5,a5,1 # ffffffffffffa001 <_pmem_end+0xffffffff77ffa001>
    80000fc4:	00f3c3b3          	xor	t2,t2,a5
    80000fc8:	03039393          	slli	t2,t2,0x30
    80000fcc:	0303d393          	srli	t2,t2,0x30
    80000fd0:	0013f793          	andi	a5,t2,1
    80000fd4:	0013d393          	srli	t2,t2,0x1
    80000fd8:	00978c63          	beq	a5,s1,80000ff0 <matrix_test+0xa58>
    80000fdc:	ffffa7b7          	lui	a5,0xffffa
    80000fe0:	00178793          	addi	a5,a5,1 # ffffffffffffa001 <_pmem_end+0xffffffff77ffa001>
    80000fe4:	00f3c7b3          	xor	a5,t2,a5
    80000fe8:	03079393          	slli	t2,a5,0x30
    80000fec:	0303d393          	srli	t2,t2,0x30
    80000ff0:	00080f13          	mv	t5,a6
    80000ff4:	00000413          	li	s0,0
    80000ff8:	00000493          	li	s1,0
    80000ffc:	00000793          	li	a5,0
    80001000:	00000693          	li	a3,0
    80001004:	08080463          	beqz	a6,8000108c <matrix_test+0xaf4>
    80001008:	00000293          	li	t0,0
    8000100c:	00540fbb          	addw	t6,s0,t0
    80001010:	020f9793          	slli	a5,t6,0x20
    80001014:	01e7df93          	srli	t6,a5,0x1e
    80001018:	01f88fb3          	add	t6,a7,t6
    8000101c:	00028613          	mv	a2,t0
    80001020:	00040693          	mv	a3,s0
    80001024:	00000e93          	li	t4,0
    80001028:	02069713          	slli	a4,a3,0x20
    8000102c:	02061913          	slli	s2,a2,0x20
    80001030:	01f75793          	srli	a5,a4,0x1f
    80001034:	01f95713          	srli	a4,s2,0x1f
    80001038:	00f587b3          	add	a5,a1,a5
    8000103c:	00e50733          	add	a4,a0,a4
    80001040:	00071703          	lh	a4,0(a4)
    80001044:	00079783          	lh	a5,0(a5)
    80001048:	0016869b          	addiw	a3,a3,1
    8000104c:	00c8063b          	addw	a2,a6,a2
    80001050:	02e787bb          	mulw	a5,a5,a4
    80001054:	4027d71b          	sraiw	a4,a5,0x2
    80001058:	4057d79b          	sraiw	a5,a5,0x5
    8000105c:	00f77713          	andi	a4,a4,15
    80001060:	07f7f793          	andi	a5,a5,127
    80001064:	02f707bb          	mulw	a5,a4,a5
    80001068:	01d78ebb          	addw	t4,a5,t4
    8000106c:	fadf1ee3          	bne	t5,a3,80001028 <matrix_test+0xa90>
    80001070:	01dfa023          	sw	t4,0(t6) # ffffffffffff8000 <_pmem_end+0xffffffff77ff8000>
    80001074:	00128f9b          	addiw	t6,t0,1
    80001078:	31f80263          	beq	a6,t6,8000137c <matrix_test+0xde4>
    8000107c:	000f8293          	mv	t0,t6
    80001080:	f8dff06f          	j	8000100c <matrix_test+0xa74>
    80001084:	0ff77693          	zext.b	a3,a4
    80001088:	00845793          	srli	a5,s0,0x8
    8000108c:	0076c733          	xor	a4,a3,t2
    80001090:	00177713          	andi	a4,a4,1
    80001094:	0016d513          	srli	a0,a3,0x1
    80001098:	0013d393          	srli	t2,t2,0x1
    8000109c:	00070c63          	beqz	a4,800010b4 <matrix_test+0xb1c>
    800010a0:	ffffa737          	lui	a4,0xffffa
    800010a4:	00170713          	addi	a4,a4,1 # ffffffffffffa001 <_pmem_end+0xffffffff77ffa001>
    800010a8:	00e3c3b3          	xor	t2,t2,a4
    800010ac:	03039393          	slli	t2,t2,0x30
    800010b0:	0303d393          	srli	t2,t2,0x30
    800010b4:	00754533          	xor	a0,a0,t2
    800010b8:	00157513          	andi	a0,a0,1
    800010bc:	0026d613          	srli	a2,a3,0x2
    800010c0:	0013d713          	srli	a4,t2,0x1
    800010c4:	00050c63          	beqz	a0,800010dc <matrix_test+0xb44>
    800010c8:	ffffa537          	lui	a0,0xffffa
    800010cc:	00150513          	addi	a0,a0,1 # ffffffffffffa001 <_pmem_end+0xffffffff77ffa001>
    800010d0:	00a74733          	xor	a4,a4,a0
    800010d4:	03071713          	slli	a4,a4,0x30
    800010d8:	03075713          	srli	a4,a4,0x30
    800010dc:	00e64633          	xor	a2,a2,a4
    800010e0:	00167613          	andi	a2,a2,1
    800010e4:	0036d513          	srli	a0,a3,0x3
    800010e8:	00175713          	srli	a4,a4,0x1
    800010ec:	00060c63          	beqz	a2,80001104 <matrix_test+0xb6c>
    800010f0:	ffffa637          	lui	a2,0xffffa
    800010f4:	00160613          	addi	a2,a2,1 # ffffffffffffa001 <_pmem_end+0xffffffff77ffa001>
    800010f8:	00c74733          	xor	a4,a4,a2
    800010fc:	03071713          	slli	a4,a4,0x30
    80001100:	03075713          	srli	a4,a4,0x30
    80001104:	00e54533          	xor	a0,a0,a4
    80001108:	00157513          	andi	a0,a0,1
    8000110c:	0046d613          	srli	a2,a3,0x4
    80001110:	00175713          	srli	a4,a4,0x1
    80001114:	00050c63          	beqz	a0,8000112c <matrix_test+0xb94>
    80001118:	ffffa537          	lui	a0,0xffffa
    8000111c:	00150513          	addi	a0,a0,1 # ffffffffffffa001 <_pmem_end+0xffffffff77ffa001>
    80001120:	00a74733          	xor	a4,a4,a0
    80001124:	03071713          	slli	a4,a4,0x30
    80001128:	03075713          	srli	a4,a4,0x30
    8000112c:	00e64633          	xor	a2,a2,a4
    80001130:	00167613          	andi	a2,a2,1
    80001134:	0056d513          	srli	a0,a3,0x5
    80001138:	00175713          	srli	a4,a4,0x1
    8000113c:	00060c63          	beqz	a2,80001154 <matrix_test+0xbbc>
    80001140:	ffffa637          	lui	a2,0xffffa
    80001144:	00160613          	addi	a2,a2,1 # ffffffffffffa001 <_pmem_end+0xffffffff77ffa001>
    80001148:	00c74733          	xor	a4,a4,a2
    8000114c:	03071713          	slli	a4,a4,0x30
    80001150:	03075713          	srli	a4,a4,0x30
    80001154:	00e54533          	xor	a0,a0,a4
    80001158:	00157513          	andi	a0,a0,1
    8000115c:	0066d613          	srli	a2,a3,0x6
    80001160:	00175713          	srli	a4,a4,0x1
    80001164:	00050c63          	beqz	a0,8000117c <matrix_test+0xbe4>
    80001168:	ffffa537          	lui	a0,0xffffa
    8000116c:	00150513          	addi	a0,a0,1 # ffffffffffffa001 <_pmem_end+0xffffffff77ffa001>
    80001170:	00a74733          	xor	a4,a4,a0
    80001174:	03071713          	slli	a4,a4,0x30
    80001178:	03075713          	srli	a4,a4,0x30
    8000117c:	00e64633          	xor	a2,a2,a4
    80001180:	00167613          	andi	a2,a2,1
    80001184:	0076d693          	srli	a3,a3,0x7
    80001188:	00175713          	srli	a4,a4,0x1
    8000118c:	00060c63          	beqz	a2,800011a4 <matrix_test+0xc0c>
    80001190:	ffffa637          	lui	a2,0xffffa
    80001194:	00160613          	addi	a2,a2,1 # ffffffffffffa001 <_pmem_end+0xffffffff77ffa001>
    80001198:	00c74733          	xor	a4,a4,a2
    8000119c:	03071713          	slli	a4,a4,0x30
    800011a0:	03075713          	srli	a4,a4,0x30
    800011a4:	00177613          	andi	a2,a4,1
    800011a8:	00175713          	srli	a4,a4,0x1
    800011ac:	00d60c63          	beq	a2,a3,800011c4 <matrix_test+0xc2c>
    800011b0:	ffffa6b7          	lui	a3,0xffffa
    800011b4:	00168693          	addi	a3,a3,1 # ffffffffffffa001 <_pmem_end+0xffffffff77ffa001>
    800011b8:	00d74733          	xor	a4,a4,a3
    800011bc:	03071713          	slli	a4,a4,0x30
    800011c0:	03075713          	srli	a4,a4,0x30
    800011c4:	00e7c6b3          	xor	a3,a5,a4
    800011c8:	0016f693          	andi	a3,a3,1
    800011cc:	0017d613          	srli	a2,a5,0x1
    800011d0:	00175713          	srli	a4,a4,0x1
    800011d4:	00068c63          	beqz	a3,800011ec <matrix_test+0xc54>
    800011d8:	ffffa6b7          	lui	a3,0xffffa
    800011dc:	00168693          	addi	a3,a3,1 # ffffffffffffa001 <_pmem_end+0xffffffff77ffa001>
    800011e0:	00d74733          	xor	a4,a4,a3
    800011e4:	03071713          	slli	a4,a4,0x30
    800011e8:	03075713          	srli	a4,a4,0x30
    800011ec:	00e64633          	xor	a2,a2,a4
    800011f0:	00167613          	andi	a2,a2,1
    800011f4:	0027d693          	srli	a3,a5,0x2
    800011f8:	00175713          	srli	a4,a4,0x1
    800011fc:	00060c63          	beqz	a2,80001214 <matrix_test+0xc7c>
    80001200:	ffffa637          	lui	a2,0xffffa
    80001204:	00160613          	addi	a2,a2,1 # ffffffffffffa001 <_pmem_end+0xffffffff77ffa001>
    80001208:	00c74733          	xor	a4,a4,a2
    8000120c:	03071713          	slli	a4,a4,0x30
    80001210:	03075713          	srli	a4,a4,0x30
    80001214:	00e6c6b3          	xor	a3,a3,a4
    80001218:	0016f693          	andi	a3,a3,1
    8000121c:	0037d613          	srli	a2,a5,0x3
    80001220:	00175713          	srli	a4,a4,0x1
    80001224:	00068c63          	beqz	a3,8000123c <matrix_test+0xca4>
    80001228:	ffffa6b7          	lui	a3,0xffffa
    8000122c:	00168693          	addi	a3,a3,1 # ffffffffffffa001 <_pmem_end+0xffffffff77ffa001>
    80001230:	00d74733          	xor	a4,a4,a3
    80001234:	03071713          	slli	a4,a4,0x30
    80001238:	03075713          	srli	a4,a4,0x30
    8000123c:	00e64633          	xor	a2,a2,a4
    80001240:	00167613          	andi	a2,a2,1
    80001244:	0047d693          	srli	a3,a5,0x4
    80001248:	00175713          	srli	a4,a4,0x1
    8000124c:	00060c63          	beqz	a2,80001264 <matrix_test+0xccc>
    80001250:	ffffa637          	lui	a2,0xffffa
    80001254:	00160613          	addi	a2,a2,1 # ffffffffffffa001 <_pmem_end+0xffffffff77ffa001>
    80001258:	00c74733          	xor	a4,a4,a2
    8000125c:	03071713          	slli	a4,a4,0x30
    80001260:	03075713          	srli	a4,a4,0x30
    80001264:	00e6c6b3          	xor	a3,a3,a4
    80001268:	0016f693          	andi	a3,a3,1
    8000126c:	0057d613          	srli	a2,a5,0x5
    80001270:	00175713          	srli	a4,a4,0x1
    80001274:	00068c63          	beqz	a3,8000128c <matrix_test+0xcf4>
    80001278:	ffffa6b7          	lui	a3,0xffffa
    8000127c:	00168693          	addi	a3,a3,1 # ffffffffffffa001 <_pmem_end+0xffffffff77ffa001>
    80001280:	00d74733          	xor	a4,a4,a3
    80001284:	03071713          	slli	a4,a4,0x30
    80001288:	03075713          	srli	a4,a4,0x30
    8000128c:	00e64633          	xor	a2,a2,a4
    80001290:	00167613          	andi	a2,a2,1
    80001294:	0067d693          	srli	a3,a5,0x6
    80001298:	00175713          	srli	a4,a4,0x1
    8000129c:	00060c63          	beqz	a2,800012b4 <matrix_test+0xd1c>
    800012a0:	ffffa637          	lui	a2,0xffffa
    800012a4:	00160613          	addi	a2,a2,1 # ffffffffffffa001 <_pmem_end+0xffffffff77ffa001>
    800012a8:	00c74733          	xor	a4,a4,a2
    800012ac:	03071713          	slli	a4,a4,0x30
    800012b0:	03075713          	srli	a4,a4,0x30
    800012b4:	00e6c6b3          	xor	a3,a3,a4
    800012b8:	0016f693          	andi	a3,a3,1
    800012bc:	0077d793          	srli	a5,a5,0x7
    800012c0:	00175713          	srli	a4,a4,0x1
    800012c4:	00068c63          	beqz	a3,800012dc <matrix_test+0xd44>
    800012c8:	ffffa6b7          	lui	a3,0xffffa
    800012cc:	00168693          	addi	a3,a3,1 # ffffffffffffa001 <_pmem_end+0xffffffff77ffa001>
    800012d0:	00d74733          	xor	a4,a4,a3
    800012d4:	03071713          	slli	a4,a4,0x30
    800012d8:	03075713          	srli	a4,a4,0x30
    800012dc:	00177693          	andi	a3,a4,1
    800012e0:	00175513          	srli	a0,a4,0x1
    800012e4:	00f68c63          	beq	a3,a5,800012fc <matrix_test+0xd64>
    800012e8:	ffffa7b7          	lui	a5,0xffffa
    800012ec:	00178793          	addi	a5,a5,1 # ffffffffffffa001 <_pmem_end+0xffffffff77ffa001>
    800012f0:	00f54733          	xor	a4,a0,a5
    800012f4:	03071513          	slli	a0,a4,0x30
    800012f8:	03055513          	srli	a0,a0,0x30
    800012fc:	00080613          	mv	a2,a6
    80001300:	00000e13          	li	t3,0
    80001304:	00000893          	li	a7,0
    80001308:	02080c63          	beqz	a6,80001340 <matrix_test+0xda8>
    8000130c:	000e0713          	mv	a4,t3
    80001310:	02071693          	slli	a3,a4,0x20
    80001314:	01f6d793          	srli	a5,a3,0x1f
    80001318:	00f587b3          	add	a5,a1,a5
    8000131c:	0007d683          	lhu	a3,0(a5)
    80001320:	0017071b          	addiw	a4,a4,1
    80001324:	406686bb          	subw	a3,a3,t1
    80001328:	00d79023          	sh	a3,0(a5)
    8000132c:	fee612e3          	bne	a2,a4,80001310 <matrix_test+0xd78>
    80001330:	0018889b          	addiw	a7,a7,1
    80001334:	01c80e3b          	addw	t3,a6,t3
    80001338:	00c8063b          	addw	a2,a6,a2
    8000133c:	fd1818e3          	bne	a6,a7,8000130c <matrix_test+0xd74>
    80001340:	02813403          	ld	s0,40(sp)
    80001344:	0105151b          	slliw	a0,a0,0x10
    80001348:	02013483          	ld	s1,32(sp)
    8000134c:	01813903          	ld	s2,24(sp)
    80001350:	01013983          	ld	s3,16(sp)
    80001354:	00813a03          	ld	s4,8(sp)
    80001358:	4105551b          	sraiw	a0,a0,0x10
    8000135c:	03010113          	addi	sp,sp,48
    80001360:	00008067          	ret
    80001364:	0019079b          	addiw	a5,s2,1
    80001368:	009804bb          	addw	s1,a6,s1
    8000136c:	01e80f3b          	addw	t5,a6,t5
    80001370:	03238263          	beq	t2,s2,80001394 <matrix_test+0xdfc>
    80001374:	00078913          	mv	s2,a5
    80001378:	999ff06f          	j	80000d10 <matrix_test+0x778>
    8000137c:	0014879b          	addiw	a5,s1,1
    80001380:	0104043b          	addw	s0,s0,a6
    80001384:	010f0f3b          	addw	t5,t5,a6
    80001388:	0a548663          	beq	s1,t0,80001434 <matrix_test+0xe9c>
    8000138c:	00078493          	mv	s1,a5
    80001390:	c79ff06f          	j	80001008 <matrix_test+0xa70>
    80001394:	000e091b          	sext.w	s2,t3
    80001398:	00080293          	mv	t0,a6
    8000139c:	00000993          	li	s3,0
    800013a0:	00000713          	li	a4,0
    800013a4:	00000613          	li	a2,0
    800013a8:	00000f13          	li	t5,0
    800013ac:	00000a13          	li	s4,0
    800013b0:	00098693          	mv	a3,s3
    800013b4:	01c0006f          	j	800013d0 <matrix_test+0xe38>
    800013b8:	03079493          	slli	s1,a5,0x30
    800013bc:	0107971b          	slliw	a4,a5,0x10
    800013c0:	0016869b          	addiw	a3,a3,1
    800013c4:	0304d493          	srli	s1,s1,0x30
    800013c8:	4107571b          	sraiw	a4,a4,0x10
    800013cc:	04d28863          	beq	t0,a3,8000141c <matrix_test+0xe84>
    800013d0:	02069793          	slli	a5,a3,0x20
    800013d4:	01e7de93          	srli	t4,a5,0x1e
    800013d8:	01d88eb3          	add	t4,a7,t4
    800013dc:	00060793          	mv	a5,a2
    800013e0:	000ea603          	lw	a2,0(t4)
    800013e4:	03071713          	slli	a4,a4,0x30
    800013e8:	03075713          	srli	a4,a4,0x30
    800013ec:	00c7a7b3          	slt	a5,a5,a2
    800013f0:	01e60f3b          	addw	t5,a2,t5
    800013f4:	00a70e9b          	addiw	t4,a4,10
    800013f8:	00e787bb          	addw	a5,a5,a4
    800013fc:	fbe95ee3          	bge	s2,t5,800013b8 <matrix_test+0xe20>
    80001400:	030e9493          	slli	s1,t4,0x30
    80001404:	010e971b          	slliw	a4,t4,0x10
    80001408:	0016869b          	addiw	a3,a3,1
    8000140c:	0304d493          	srli	s1,s1,0x30
    80001410:	4107571b          	sraiw	a4,a4,0x10
    80001414:	00000f13          	li	t5,0
    80001418:	fad29ce3          	bne	t0,a3,800013d0 <matrix_test+0xe38>
    8000141c:	001a079b          	addiw	a5,s4,1
    80001420:	005f82bb          	addw	t0,t6,t0
    80001424:	013f89bb          	addw	s3,t6,s3
    80001428:	954388e3          	beq	t2,s4,80000d78 <matrix_test+0x7e0>
    8000142c:	00078a13          	mv	s4,a5
    80001430:	f81ff06f          	j	800013b0 <matrix_test+0xe18>
    80001434:	000e0e1b          	sext.w	t3,t3
    80001438:	00080f13          	mv	t5,a6
    8000143c:	00000493          	li	s1,0
    80001440:	00000713          	li	a4,0
    80001444:	00000613          	li	a2,0
    80001448:	00000e93          	li	t4,0
    8000144c:	00000913          	li	s2,0
    80001450:	00048693          	mv	a3,s1
    80001454:	01c0006f          	j	80001470 <matrix_test+0xed8>
    80001458:	03079413          	slli	s0,a5,0x30
    8000145c:	0107971b          	slliw	a4,a5,0x10
    80001460:	0016869b          	addiw	a3,a3,1
    80001464:	03045413          	srli	s0,s0,0x30
    80001468:	4107571b          	sraiw	a4,a4,0x10
    8000146c:	04df0863          	beq	t5,a3,800014bc <matrix_test+0xf24>
    80001470:	02069793          	slli	a5,a3,0x20
    80001474:	01e7d513          	srli	a0,a5,0x1e
    80001478:	00a88533          	add	a0,a7,a0
    8000147c:	00060793          	mv	a5,a2
    80001480:	00052603          	lw	a2,0(a0)
    80001484:	03071713          	slli	a4,a4,0x30
    80001488:	03075713          	srli	a4,a4,0x30
    8000148c:	00c7a7b3          	slt	a5,a5,a2
    80001490:	01d60ebb          	addw	t4,a2,t4
    80001494:	00a7051b          	addiw	a0,a4,10
    80001498:	00e787bb          	addw	a5,a5,a4
    8000149c:	fbde5ee3          	bge	t3,t4,80001458 <matrix_test+0xec0>
    800014a0:	03051413          	slli	s0,a0,0x30
    800014a4:	0105171b          	slliw	a4,a0,0x10
    800014a8:	0016869b          	addiw	a3,a3,1
    800014ac:	03045413          	srli	s0,s0,0x30
    800014b0:	4107571b          	sraiw	a4,a4,0x10
    800014b4:	00000e93          	li	t4,0
    800014b8:	fadf1ce3          	bne	t5,a3,80001470 <matrix_test+0xed8>
    800014bc:	0019079b          	addiw	a5,s2,1
    800014c0:	01ef8f3b          	addw	t5,t6,t5
    800014c4:	009f84bb          	addw	s1,t6,s1
    800014c8:	bb228ee3          	beq	t0,s2,80001084 <matrix_test+0xaec>
    800014cc:	00078913          	mv	s2,a5
    800014d0:	f81ff06f          	j	80001450 <matrix_test+0xeb8>
    800014d4:	00000793          	li	a5,0
    800014d8:	00000413          	li	s0,0
    800014dc:	00000713          	li	a4,0
    800014e0:	a80ff06f          	j	80000760 <matrix_test+0x1c8>
    800014e4:	00000393          	li	t2,0
    800014e8:	00000713          	li	a4,0
    800014ec:	da0ff06f          	j	80000a8c <matrix_test+0x4f4>

00000000800014f0 <core_bench_matrix>:
    800014f0:	ff010113          	addi	sp,sp,-16
    800014f4:	01053683          	ld	a3,16(a0)
    800014f8:	00058713          	mv	a4,a1
    800014fc:	00813023          	sd	s0,0(sp)
    80001500:	01853583          	ld	a1,24(a0)
    80001504:	00060413          	mv	s0,a2
    80001508:	00853603          	ld	a2,8(a0)
    8000150c:	00052503          	lw	a0,0(a0)
    80001510:	00113423          	sd	ra,8(sp)
    80001514:	884ff0ef          	jal	ra,80000598 <matrix_test>
    80001518:	0ff57793          	zext.b	a5,a0
    8000151c:	0087c6b3          	xor	a3,a5,s0
    80001520:	03051713          	slli	a4,a0,0x30
    80001524:	0016f693          	andi	a3,a3,1
    80001528:	03075713          	srli	a4,a4,0x30
    8000152c:	0017d613          	srli	a2,a5,0x1
    80001530:	00145513          	srli	a0,s0,0x1
    80001534:	00068c63          	beqz	a3,8000154c <core_bench_matrix+0x5c>
    80001538:	ffffa6b7          	lui	a3,0xffffa
    8000153c:	00168693          	addi	a3,a3,1 # ffffffffffffa001 <_pmem_end+0xffffffff77ffa001>
    80001540:	00d54533          	xor	a0,a0,a3
    80001544:	03051513          	slli	a0,a0,0x30
    80001548:	03055513          	srli	a0,a0,0x30
    8000154c:	00a64633          	xor	a2,a2,a0
    80001550:	00167613          	andi	a2,a2,1
    80001554:	0027d693          	srli	a3,a5,0x2
    80001558:	00155513          	srli	a0,a0,0x1
    8000155c:	00060c63          	beqz	a2,80001574 <core_bench_matrix+0x84>
    80001560:	ffffa637          	lui	a2,0xffffa
    80001564:	00160613          	addi	a2,a2,1 # ffffffffffffa001 <_pmem_end+0xffffffff77ffa001>
    80001568:	00c54533          	xor	a0,a0,a2
    8000156c:	03051513          	slli	a0,a0,0x30
    80001570:	03055513          	srli	a0,a0,0x30
    80001574:	00a6c6b3          	xor	a3,a3,a0
    80001578:	0016f693          	andi	a3,a3,1
    8000157c:	0037d613          	srli	a2,a5,0x3
    80001580:	00155513          	srli	a0,a0,0x1
    80001584:	00068c63          	beqz	a3,8000159c <core_bench_matrix+0xac>
    80001588:	ffffa6b7          	lui	a3,0xffffa
    8000158c:	00168693          	addi	a3,a3,1 # ffffffffffffa001 <_pmem_end+0xffffffff77ffa001>
    80001590:	00d54533          	xor	a0,a0,a3
    80001594:	03051513          	slli	a0,a0,0x30
    80001598:	03055513          	srli	a0,a0,0x30
    8000159c:	00a64633          	xor	a2,a2,a0
    800015a0:	00167613          	andi	a2,a2,1
    800015a4:	0047d693          	srli	a3,a5,0x4
    800015a8:	00155513          	srli	a0,a0,0x1
    800015ac:	00060c63          	beqz	a2,800015c4 <core_bench_matrix+0xd4>
    800015b0:	ffffa637          	lui	a2,0xffffa
    800015b4:	00160613          	addi	a2,a2,1 # ffffffffffffa001 <_pmem_end+0xffffffff77ffa001>
    800015b8:	00c54533          	xor	a0,a0,a2
    800015bc:	03051513          	slli	a0,a0,0x30
    800015c0:	03055513          	srli	a0,a0,0x30
    800015c4:	00a6c6b3          	xor	a3,a3,a0
    800015c8:	0016f693          	andi	a3,a3,1
    800015cc:	0057d613          	srli	a2,a5,0x5
    800015d0:	00155513          	srli	a0,a0,0x1
    800015d4:	00068c63          	beqz	a3,800015ec <core_bench_matrix+0xfc>
    800015d8:	ffffa6b7          	lui	a3,0xffffa
    800015dc:	00168693          	addi	a3,a3,1 # ffffffffffffa001 <_pmem_end+0xffffffff77ffa001>
    800015e0:	00d54533          	xor	a0,a0,a3
    800015e4:	03051513          	slli	a0,a0,0x30
    800015e8:	03055513          	srli	a0,a0,0x30
    800015ec:	00a64633          	xor	a2,a2,a0
    800015f0:	00167613          	andi	a2,a2,1
    800015f4:	0067d693          	srli	a3,a5,0x6
    800015f8:	00155513          	srli	a0,a0,0x1
    800015fc:	00060c63          	beqz	a2,80001614 <core_bench_matrix+0x124>
    80001600:	ffffa637          	lui	a2,0xffffa
    80001604:	00160613          	addi	a2,a2,1 # ffffffffffffa001 <_pmem_end+0xffffffff77ffa001>
    80001608:	00c54533          	xor	a0,a0,a2
    8000160c:	03051513          	slli	a0,a0,0x30
    80001610:	03055513          	srli	a0,a0,0x30
    80001614:	00a6c6b3          	xor	a3,a3,a0
    80001618:	0016f693          	andi	a3,a3,1
    8000161c:	0077d793          	srli	a5,a5,0x7
    80001620:	00155513          	srli	a0,a0,0x1
    80001624:	00068c63          	beqz	a3,8000163c <core_bench_matrix+0x14c>
    80001628:	ffffa6b7          	lui	a3,0xffffa
    8000162c:	00168693          	addi	a3,a3,1 # ffffffffffffa001 <_pmem_end+0xffffffff77ffa001>
    80001630:	00d54533          	xor	a0,a0,a3
    80001634:	03051513          	slli	a0,a0,0x30
    80001638:	03055513          	srli	a0,a0,0x30
    8000163c:	00157693          	andi	a3,a0,1
    80001640:	00155513          	srli	a0,a0,0x1
    80001644:	14f69a63          	bne	a3,a5,80001798 <core_bench_matrix+0x2a8>
    80001648:	00875793          	srli	a5,a4,0x8
    8000164c:	00a7c6b3          	xor	a3,a5,a0
    80001650:	0016f693          	andi	a3,a3,1
    80001654:	00975713          	srli	a4,a4,0x9
    80001658:	00155513          	srli	a0,a0,0x1
    8000165c:	00068c63          	beqz	a3,80001674 <core_bench_matrix+0x184>
    80001660:	ffffa6b7          	lui	a3,0xffffa
    80001664:	00168693          	addi	a3,a3,1 # ffffffffffffa001 <_pmem_end+0xffffffff77ffa001>
    80001668:	00d54533          	xor	a0,a0,a3
    8000166c:	03051513          	slli	a0,a0,0x30
    80001670:	03055513          	srli	a0,a0,0x30
    80001674:	00a74733          	xor	a4,a4,a0
    80001678:	00177713          	andi	a4,a4,1
    8000167c:	0027d693          	srli	a3,a5,0x2
    80001680:	00155513          	srli	a0,a0,0x1
    80001684:	00070c63          	beqz	a4,8000169c <core_bench_matrix+0x1ac>
    80001688:	ffffa737          	lui	a4,0xffffa
    8000168c:	00170713          	addi	a4,a4,1 # ffffffffffffa001 <_pmem_end+0xffffffff77ffa001>
    80001690:	00e54533          	xor	a0,a0,a4
    80001694:	03051513          	slli	a0,a0,0x30
    80001698:	03055513          	srli	a0,a0,0x30
    8000169c:	00a6c733          	xor	a4,a3,a0
    800016a0:	00177713          	andi	a4,a4,1
    800016a4:	0037d693          	srli	a3,a5,0x3
    800016a8:	00155513          	srli	a0,a0,0x1
    800016ac:	00070c63          	beqz	a4,800016c4 <core_bench_matrix+0x1d4>
    800016b0:	ffffa737          	lui	a4,0xffffa
    800016b4:	00170713          	addi	a4,a4,1 # ffffffffffffa001 <_pmem_end+0xffffffff77ffa001>
    800016b8:	00e54533          	xor	a0,a0,a4
    800016bc:	03051513          	slli	a0,a0,0x30
    800016c0:	03055513          	srli	a0,a0,0x30
    800016c4:	00a6c6b3          	xor	a3,a3,a0
    800016c8:	0016f693          	andi	a3,a3,1
    800016cc:	0047d713          	srli	a4,a5,0x4
    800016d0:	00155513          	srli	a0,a0,0x1
    800016d4:	00068c63          	beqz	a3,800016ec <core_bench_matrix+0x1fc>
    800016d8:	ffffa6b7          	lui	a3,0xffffa
    800016dc:	00168693          	addi	a3,a3,1 # ffffffffffffa001 <_pmem_end+0xffffffff77ffa001>
    800016e0:	00d54533          	xor	a0,a0,a3
    800016e4:	03051513          	slli	a0,a0,0x30
    800016e8:	03055513          	srli	a0,a0,0x30
    800016ec:	00a74733          	xor	a4,a4,a0
    800016f0:	00177713          	andi	a4,a4,1
    800016f4:	0057d693          	srli	a3,a5,0x5
    800016f8:	00155513          	srli	a0,a0,0x1
    800016fc:	00070c63          	beqz	a4,80001714 <core_bench_matrix+0x224>
    80001700:	ffffa737          	lui	a4,0xffffa
    80001704:	00170713          	addi	a4,a4,1 # ffffffffffffa001 <_pmem_end+0xffffffff77ffa001>
    80001708:	00e54533          	xor	a0,a0,a4
    8000170c:	03051513          	slli	a0,a0,0x30
    80001710:	03055513          	srli	a0,a0,0x30
    80001714:	00a6c6b3          	xor	a3,a3,a0
    80001718:	0016f693          	andi	a3,a3,1
    8000171c:	0067d713          	srli	a4,a5,0x6
    80001720:	00155513          	srli	a0,a0,0x1
    80001724:	00068c63          	beqz	a3,8000173c <core_bench_matrix+0x24c>
    80001728:	ffffa6b7          	lui	a3,0xffffa
    8000172c:	00168693          	addi	a3,a3,1 # ffffffffffffa001 <_pmem_end+0xffffffff77ffa001>
    80001730:	00d54533          	xor	a0,a0,a3
    80001734:	03051513          	slli	a0,a0,0x30
    80001738:	03055513          	srli	a0,a0,0x30
    8000173c:	00a74733          	xor	a4,a4,a0
    80001740:	00177713          	andi	a4,a4,1
    80001744:	0077d793          	srli	a5,a5,0x7
    80001748:	00155513          	srli	a0,a0,0x1
    8000174c:	00070c63          	beqz	a4,80001764 <core_bench_matrix+0x274>
    80001750:	ffffa737          	lui	a4,0xffffa
    80001754:	00170713          	addi	a4,a4,1 # ffffffffffffa001 <_pmem_end+0xffffffff77ffa001>
    80001758:	00e54533          	xor	a0,a0,a4
    8000175c:	03051513          	slli	a0,a0,0x30
    80001760:	03055513          	srli	a0,a0,0x30
    80001764:	00a7c7b3          	xor	a5,a5,a0
    80001768:	0017f793          	andi	a5,a5,1
    8000176c:	00155513          	srli	a0,a0,0x1
    80001770:	00078c63          	beqz	a5,80001788 <core_bench_matrix+0x298>
    80001774:	ffffa7b7          	lui	a5,0xffffa
    80001778:	00178793          	addi	a5,a5,1 # ffffffffffffa001 <_pmem_end+0xffffffff77ffa001>
    8000177c:	00f54533          	xor	a0,a0,a5
    80001780:	03051513          	slli	a0,a0,0x30
    80001784:	03055513          	srli	a0,a0,0x30
    80001788:	00813083          	ld	ra,8(sp)
    8000178c:	00013403          	ld	s0,0(sp)
    80001790:	01010113          	addi	sp,sp,16
    80001794:	00008067          	ret
    80001798:	ffffa7b7          	lui	a5,0xffffa
    8000179c:	00178793          	addi	a5,a5,1 # ffffffffffffa001 <_pmem_end+0xffffffff77ffa001>
    800017a0:	00f54533          	xor	a0,a0,a5
    800017a4:	03051513          	slli	a0,a0,0x30
    800017a8:	03055513          	srli	a0,a0,0x30
    800017ac:	e9dff06f          	j	80001648 <core_bench_matrix+0x158>

00000000800017b0 <core_init_matrix>:
    800017b0:	fe010113          	addi	sp,sp,-32
    800017b4:	00813c23          	sd	s0,24(sp)
    800017b8:	00913823          	sd	s1,16(sp)
    800017bc:	01213423          	sd	s2,8(sp)
    800017c0:	01313023          	sd	s3,0(sp)
    800017c4:	00050813          	mv	a6,a0
    800017c8:	00068413          	mv	s0,a3
    800017cc:	00061463          	bnez	a2,800017d4 <core_init_matrix+0x24>
    800017d0:	00100613          	li	a2,1
    800017d4:	fff58593          	addi	a1,a1,-1
    800017d8:	ffc5f313          	andi	t1,a1,-4
    800017dc:	00430e93          	addi	t4,t1,4
    800017e0:	00000693          	li	a3,0
    800017e4:	10080663          	beqz	a6,800018f0 <core_init_matrix+0x140>
    800017e8:	0016871b          	addiw	a4,a3,1
    800017ec:	02e707bb          	mulw	a5,a4,a4
    800017f0:	0006851b          	sext.w	a0,a3
    800017f4:	0007069b          	sext.w	a3,a4
    800017f8:	0037979b          	slliw	a5,a5,0x3
    800017fc:	ff07e6e3          	bltu	a5,a6,800017e8 <core_init_matrix+0x38>
    80001800:	02a506bb          	mulw	a3,a0,a0
    80001804:	0005091b          	sext.w	s2,a0
    80001808:	02069793          	slli	a5,a3,0x20
    8000180c:	01f7d693          	srli	a3,a5,0x1f
    80001810:	00de8333          	add	t1,t4,a3
    80001814:	0e050863          	beqz	a0,80001904 <core_init_matrix+0x154>
    80001818:	00010f37          	lui	t5,0x10
    8000181c:	00000393          	li	t2,0
    80001820:	00000293          	li	t0,0
    80001824:	00100f93          	li	t6,1
    80001828:	ffff0f13          	addi	t5,t5,-1 # ffff <_start-0x7fff0001>
    8000182c:	fff5049b          	addiw	s1,a0,-1
    80001830:	000f8593          	mv	a1,t6
    80001834:	00000893          	li	a7,0
    80001838:	41f38e3b          	subw	t3,t2,t6
    8000183c:	02b6063b          	mulw	a2,a2,a1
    80001840:	00be073b          	addw	a4,t3,a1
    80001844:	02071813          	slli	a6,a4,0x20
    80001848:	01f85713          	srli	a4,a6,0x1f
    8000184c:	03059793          	slli	a5,a1,0x30
    80001850:	0307d793          	srli	a5,a5,0x30
    80001854:	00e309b3          	add	s3,t1,a4
    80001858:	00ee8733          	add	a4,t4,a4
    8000185c:	0018889b          	addiw	a7,a7,1
    80001860:	0015859b          	addiw	a1,a1,1
    80001864:	41f6581b          	sraiw	a6,a2,0x1f
    80001868:	0108581b          	srliw	a6,a6,0x10
    8000186c:	0106063b          	addw	a2,a2,a6
    80001870:	01e67633          	and	a2,a2,t5
    80001874:	4106063b          	subw	a2,a2,a6
    80001878:	00f6083b          	addw	a6,a2,a5
    8000187c:	03081813          	slli	a6,a6,0x30
    80001880:	03085813          	srli	a6,a6,0x30
    80001884:	00f807bb          	addw	a5,a6,a5
    80001888:	01099023          	sh	a6,0(s3)
    8000188c:	0ff7f793          	zext.b	a5,a5
    80001890:	00f71023          	sh	a5,0(a4)
    80001894:	faa8e4e3          	bltu	a7,a0,8000183c <core_init_matrix+0x8c>
    80001898:	001f8f9b          	addiw	t6,t6,1
    8000189c:	00000793          	li	a5,0
    800018a0:	00050463          	beqz	a0,800018a8 <core_init_matrix+0xf8>
    800018a4:	00048793          	mv	a5,s1
    800018a8:	0012829b          	addiw	t0,t0,1
    800018ac:	01f78fbb          	addw	t6,a5,t6
    800018b0:	007503bb          	addw	t2,a0,t2
    800018b4:	f6a2eee3          	bltu	t0,a0,80001830 <core_init_matrix+0x80>
    800018b8:	00d307b3          	add	a5,t1,a3
    800018bc:	fff78793          	addi	a5,a5,-1
    800018c0:	ffc7f793          	andi	a5,a5,-4
    800018c4:	00478793          	addi	a5,a5,4
    800018c8:	01242023          	sw	s2,0(s0)
    800018cc:	01d43423          	sd	t4,8(s0)
    800018d0:	00643823          	sd	t1,16(s0)
    800018d4:	00f43c23          	sd	a5,24(s0)
    800018d8:	01813403          	ld	s0,24(sp)
    800018dc:	01013483          	ld	s1,16(sp)
    800018e0:	00813903          	ld	s2,8(sp)
    800018e4:	00013983          	ld	s3,0(sp)
    800018e8:	02010113          	addi	sp,sp,32
    800018ec:	00008067          	ret
    800018f0:	00630313          	addi	t1,t1,6
    800018f4:	fff00913          	li	s2,-1
    800018f8:	fff00513          	li	a0,-1
    800018fc:	00200693          	li	a3,2
    80001900:	f19ff06f          	j	80001818 <core_init_matrix+0x68>
    80001904:	00000913          	li	s2,0
    80001908:	fb1ff06f          	j	800018b8 <core_init_matrix+0x108>

000000008000190c <matrix_sum>:
    8000190c:	00050e13          	mv	t3,a0
    80001910:	08050863          	beqz	a0,800019a0 <matrix_sum+0x94>
    80001914:	00050893          	mv	a7,a0
    80001918:	0006031b          	sext.w	t1,a2
    8000191c:	00000f13          	li	t5,0
    80001920:	00000e93          	li	t4,0
    80001924:	00000513          	li	a0,0
    80001928:	00000693          	li	a3,0
    8000192c:	00000813          	li	a6,0
    80001930:	000f0713          	mv	a4,t5
    80001934:	0140006f          	j	80001948 <matrix_sum+0x3c>
    80001938:	0107951b          	slliw	a0,a5,0x10
    8000193c:	0017071b          	addiw	a4,a4,1
    80001940:	4105551b          	sraiw	a0,a0,0x10
    80001944:	04e88463          	beq	a7,a4,8000198c <matrix_sum+0x80>
    80001948:	02071793          	slli	a5,a4,0x20
    8000194c:	01e7d613          	srli	a2,a5,0x1e
    80001950:	00c58633          	add	a2,a1,a2
    80001954:	00068793          	mv	a5,a3
    80001958:	00062683          	lw	a3,0(a2)
    8000195c:	03051513          	slli	a0,a0,0x30
    80001960:	03055513          	srli	a0,a0,0x30
    80001964:	00d7a7b3          	slt	a5,a5,a3
    80001968:	00d8083b          	addw	a6,a6,a3
    8000196c:	00a5061b          	addiw	a2,a0,10
    80001970:	00a787bb          	addw	a5,a5,a0
    80001974:	fd0352e3          	bge	t1,a6,80001938 <matrix_sum+0x2c>
    80001978:	0106151b          	slliw	a0,a2,0x10
    8000197c:	0017071b          	addiw	a4,a4,1
    80001980:	4105551b          	sraiw	a0,a0,0x10
    80001984:	00000813          	li	a6,0
    80001988:	fce890e3          	bne	a7,a4,80001948 <matrix_sum+0x3c>
    8000198c:	001e8e9b          	addiw	t4,t4,1
    80001990:	01c888bb          	addw	a7,a7,t3
    80001994:	01ee0f3b          	addw	t5,t3,t5
    80001998:	f9de1ce3          	bne	t3,t4,80001930 <matrix_sum+0x24>
    8000199c:	00008067          	ret
    800019a0:	00000513          	li	a0,0
    800019a4:	00008067          	ret

00000000800019a8 <matrix_mul_const>:
    800019a8:	04050a63          	beqz	a0,800019fc <matrix_mul_const+0x54>
    800019ac:	0006889b          	sext.w	a7,a3
    800019b0:	00050813          	mv	a6,a0
    800019b4:	00000e13          	li	t3,0
    800019b8:	00000313          	li	t1,0
    800019bc:	000e0713          	mv	a4,t3
    800019c0:	02071793          	slli	a5,a4,0x20
    800019c4:	0207d793          	srli	a5,a5,0x20
    800019c8:	00179693          	slli	a3,a5,0x1
    800019cc:	00d606b3          	add	a3,a2,a3
    800019d0:	00069683          	lh	a3,0(a3)
    800019d4:	00279793          	slli	a5,a5,0x2
    800019d8:	00f587b3          	add	a5,a1,a5
    800019dc:	031686bb          	mulw	a3,a3,a7
    800019e0:	0017071b          	addiw	a4,a4,1
    800019e4:	00d7a023          	sw	a3,0(a5)
    800019e8:	fce81ce3          	bne	a6,a4,800019c0 <matrix_mul_const+0x18>
    800019ec:	0013031b          	addiw	t1,t1,1
    800019f0:	01c50e3b          	addw	t3,a0,t3
    800019f4:	0105083b          	addw	a6,a0,a6
    800019f8:	fc6512e3          	bne	a0,t1,800019bc <matrix_mul_const+0x14>
    800019fc:	00008067          	ret

0000000080001a00 <matrix_add_const>:
    80001a00:	04050663          	beqz	a0,80001a4c <matrix_add_const+0x4c>
    80001a04:	03061813          	slli	a6,a2,0x30
    80001a08:	03085813          	srli	a6,a6,0x30
    80001a0c:	00050613          	mv	a2,a0
    80001a10:	00000313          	li	t1,0
    80001a14:	00000893          	li	a7,0
    80001a18:	00030713          	mv	a4,t1
    80001a1c:	02071693          	slli	a3,a4,0x20
    80001a20:	01f6d793          	srli	a5,a3,0x1f
    80001a24:	00f587b3          	add	a5,a1,a5
    80001a28:	0007d683          	lhu	a3,0(a5)
    80001a2c:	0017071b          	addiw	a4,a4,1
    80001a30:	010686bb          	addw	a3,a3,a6
    80001a34:	00d79023          	sh	a3,0(a5)
    80001a38:	fee612e3          	bne	a2,a4,80001a1c <matrix_add_const+0x1c>
    80001a3c:	0018889b          	addiw	a7,a7,1
    80001a40:	0065033b          	addw	t1,a0,t1
    80001a44:	00c5063b          	addw	a2,a0,a2
    80001a48:	fd1518e3          	bne	a0,a7,80001a18 <matrix_add_const+0x18>
    80001a4c:	00008067          	ret

0000000080001a50 <matrix_mul_vect>:
    80001a50:	06050463          	beqz	a0,80001ab8 <matrix_mul_vect+0x68>
    80001a54:	fff50f1b          	addiw	t5,a0,-1
    80001a58:	020f1793          	slli	a5,t5,0x20
    80001a5c:	01e7df13          	srli	t5,a5,0x1e
    80001a60:	00458793          	addi	a5,a1,4
    80001a64:	00ff0f33          	add	t5,t5,a5
    80001a68:	00050e13          	mv	t3,a0
    80001a6c:	00000e93          	li	t4,0
    80001a70:	00068813          	mv	a6,a3
    80001a74:	000e8793          	mv	a5,t4
    80001a78:	00000893          	li	a7,0
    80001a7c:	02079313          	slli	t1,a5,0x20
    80001a80:	01f35713          	srli	a4,t1,0x1f
    80001a84:	00e60733          	add	a4,a2,a4
    80001a88:	00081303          	lh	t1,0(a6)
    80001a8c:	00071703          	lh	a4,0(a4)
    80001a90:	0017879b          	addiw	a5,a5,1
    80001a94:	00280813          	addi	a6,a6,2
    80001a98:	0267073b          	mulw	a4,a4,t1
    80001a9c:	011708bb          	addw	a7,a4,a7
    80001aa0:	fcfe1ee3          	bne	t3,a5,80001a7c <matrix_mul_vect+0x2c>
    80001aa4:	0115a023          	sw	a7,0(a1)
    80001aa8:	00458593          	addi	a1,a1,4
    80001aac:	01d50ebb          	addw	t4,a0,t4
    80001ab0:	01c50e3b          	addw	t3,a0,t3
    80001ab4:	fabf1ee3          	bne	t5,a1,80001a70 <matrix_mul_vect+0x20>
    80001ab8:	00008067          	ret

0000000080001abc <matrix_mul_matrix>:
    80001abc:	00058293          	mv	t0,a1
    80001ac0:	00060313          	mv	t1,a2
    80001ac4:	00068893          	mv	a7,a3
    80001ac8:	00050813          	mv	a6,a0
    80001acc:	00000f93          	li	t6,0
    80001ad0:	00000393          	li	t2,0
    80001ad4:	08050463          	beqz	a0,80001b5c <matrix_mul_matrix+0xa0>
    80001ad8:	00000f13          	li	t5,0
    80001adc:	01ff0ebb          	addw	t4,t5,t6
    80001ae0:	020e9793          	slli	a5,t4,0x20
    80001ae4:	01e7de93          	srli	t4,a5,0x1e
    80001ae8:	01d28eb3          	add	t4,t0,t4
    80001aec:	000f0613          	mv	a2,t5
    80001af0:	000f8793          	mv	a5,t6
    80001af4:	00000593          	li	a1,0
    80001af8:	02079693          	slli	a3,a5,0x20
    80001afc:	02061e13          	slli	t3,a2,0x20
    80001b00:	01f6d713          	srli	a4,a3,0x1f
    80001b04:	01fe5693          	srli	a3,t3,0x1f
    80001b08:	00e30733          	add	a4,t1,a4
    80001b0c:	00d886b3          	add	a3,a7,a3
    80001b10:	00071703          	lh	a4,0(a4)
    80001b14:	00069683          	lh	a3,0(a3)
    80001b18:	0017879b          	addiw	a5,a5,1
    80001b1c:	00c5063b          	addw	a2,a0,a2
    80001b20:	02d7073b          	mulw	a4,a4,a3
    80001b24:	00b705bb          	addw	a1,a4,a1
    80001b28:	fcf818e3          	bne	a6,a5,80001af8 <matrix_mul_matrix+0x3c>
    80001b2c:	00bea023          	sw	a1,0(t4)
    80001b30:	001f079b          	addiw	a5,t5,1
    80001b34:	00f50663          	beq	a0,a5,80001b40 <matrix_mul_matrix+0x84>
    80001b38:	00078f13          	mv	t5,a5
    80001b3c:	fa1ff06f          	j	80001adc <matrix_mul_matrix+0x20>
    80001b40:	0013879b          	addiw	a5,t2,1
    80001b44:	01f50fbb          	addw	t6,a0,t6
    80001b48:	0105083b          	addw	a6,a0,a6
    80001b4c:	01e38663          	beq	t2,t5,80001b58 <matrix_mul_matrix+0x9c>
    80001b50:	00078393          	mv	t2,a5
    80001b54:	f85ff06f          	j	80001ad8 <matrix_mul_matrix+0x1c>
    80001b58:	00008067          	ret
    80001b5c:	00008067          	ret

0000000080001b60 <matrix_mul_matrix_bitextract>:
    80001b60:	00058293          	mv	t0,a1
    80001b64:	00060313          	mv	t1,a2
    80001b68:	00068893          	mv	a7,a3
    80001b6c:	00050813          	mv	a6,a0
    80001b70:	00000f93          	li	t6,0
    80001b74:	00000393          	li	t2,0
    80001b78:	08050e63          	beqz	a0,80001c14 <matrix_mul_matrix_bitextract+0xb4>
    80001b7c:	00000f13          	li	t5,0
    80001b80:	01ff0ebb          	addw	t4,t5,t6
    80001b84:	020e9793          	slli	a5,t4,0x20
    80001b88:	01e7de93          	srli	t4,a5,0x1e
    80001b8c:	01d28eb3          	add	t4,t0,t4
    80001b90:	000f0613          	mv	a2,t5
    80001b94:	000f8693          	mv	a3,t6
    80001b98:	00000593          	li	a1,0
    80001b9c:	02069713          	slli	a4,a3,0x20
    80001ba0:	02061e13          	slli	t3,a2,0x20
    80001ba4:	01f75793          	srli	a5,a4,0x1f
    80001ba8:	01fe5713          	srli	a4,t3,0x1f
    80001bac:	00f307b3          	add	a5,t1,a5
    80001bb0:	00e88733          	add	a4,a7,a4
    80001bb4:	00071703          	lh	a4,0(a4)
    80001bb8:	00079783          	lh	a5,0(a5)
    80001bbc:	0016869b          	addiw	a3,a3,1
    80001bc0:	00c5063b          	addw	a2,a0,a2
    80001bc4:	02e787bb          	mulw	a5,a5,a4
    80001bc8:	4027d71b          	sraiw	a4,a5,0x2
    80001bcc:	4057d79b          	sraiw	a5,a5,0x5
    80001bd0:	00f77713          	andi	a4,a4,15
    80001bd4:	07f7f793          	andi	a5,a5,127
    80001bd8:	02f707bb          	mulw	a5,a4,a5
    80001bdc:	00b785bb          	addw	a1,a5,a1
    80001be0:	fad81ee3          	bne	a6,a3,80001b9c <matrix_mul_matrix_bitextract+0x3c>
    80001be4:	00bea023          	sw	a1,0(t4)
    80001be8:	001f079b          	addiw	a5,t5,1
    80001bec:	00f50663          	beq	a0,a5,80001bf8 <matrix_mul_matrix_bitextract+0x98>
    80001bf0:	00078f13          	mv	t5,a5
    80001bf4:	f8dff06f          	j	80001b80 <matrix_mul_matrix_bitextract+0x20>
    80001bf8:	0013879b          	addiw	a5,t2,1
    80001bfc:	01f50fbb          	addw	t6,a0,t6
    80001c00:	0105083b          	addw	a6,a0,a6
    80001c04:	01e38663          	beq	t2,t5,80001c10 <matrix_mul_matrix_bitextract+0xb0>
    80001c08:	00078393          	mv	t2,a5
    80001c0c:	f71ff06f          	j	80001b7c <matrix_mul_matrix_bitextract+0x1c>
    80001c10:	00008067          	ret
    80001c14:	00008067          	ret

0000000080001c18 <core_init_state>:
    80001c18:	fff5089b          	addiw	a7,a0,-1
    80001c1c:	00100793          	li	a5,1
    80001c20:	3f17fa63          	bgeu	a5,a7,80002014 <core_init_state+0x3fc>
    80001c24:	0015859b          	addiw	a1,a1,1
    80001c28:	03059693          	slli	a3,a1,0x30
    80001c2c:	0306d693          	srli	a3,a3,0x30
    80001c30:	00000793          	li	a5,0
    80001c34:	00006e97          	auipc	t4,0x6
    80001c38:	dfce8e93          	addi	t4,t4,-516 # 80007a30 <intpat>
    80001c3c:	00700e13          	li	t3,7
    80001c40:	00800f93          	li	t6,8
    80001c44:	00400813          	li	a6,4
    80001c48:	00100313          	li	t1,1
    80001c4c:	02c00f13          	li	t5,44
    80001c50:	0a00006f          	j	80001cf0 <core_init_state+0xd8>
    80001c54:	3a586063          	bltu	a6,t0,80001ff4 <core_init_state+0x3dc>
    80001c58:	ffd2859b          	addiw	a1,t0,-3
    80001c5c:	03059593          	slli	a1,a1,0x30
    80001c60:	00371713          	slli	a4,a4,0x3
    80001c64:	0305d593          	srli	a1,a1,0x30
    80001c68:	00ee8733          	add	a4,t4,a4
    80001c6c:	36b36c63          	bltu	t1,a1,80001fe4 <core_init_state+0x3cc>
    80001c70:	02073703          	ld	a4,32(a4)
    80001c74:	00900593          	li	a1,9
    80001c78:	00800293          	li	t0,8
    80001c7c:	00b785bb          	addw	a1,a5,a1
    80001c80:	0915fe63          	bgeu	a1,a7,80001d1c <core_init_state+0x104>
    80001c84:	00074383          	lbu	t2,0(a4)
    80001c88:	02079793          	slli	a5,a5,0x20
    80001c8c:	0207d793          	srli	a5,a5,0x20
    80001c90:	00f607b3          	add	a5,a2,a5
    80001c94:	00778023          	sb	t2,0(a5)
    80001c98:	00174383          	lbu	t2,1(a4)
    80001c9c:	007780a3          	sb	t2,1(a5)
    80001ca0:	00274383          	lbu	t2,2(a4)
    80001ca4:	00778123          	sb	t2,2(a5)
    80001ca8:	00374383          	lbu	t2,3(a4)
    80001cac:	007781a3          	sb	t2,3(a5)
    80001cb0:	03028463          	beq	t0,a6,80001cd8 <core_init_state+0xc0>
    80001cb4:	00474383          	lbu	t2,4(a4)
    80001cb8:	00778223          	sb	t2,4(a5)
    80001cbc:	00574383          	lbu	t2,5(a4)
    80001cc0:	007782a3          	sb	t2,5(a5)
    80001cc4:	00674383          	lbu	t2,6(a4)
    80001cc8:	00778323          	sb	t2,6(a5)
    80001ccc:	01f29663          	bne	t0,t6,80001cd8 <core_init_state+0xc0>
    80001cd0:	00774703          	lbu	a4,7(a4)
    80001cd4:	00e783a3          	sb	a4,7(a5)
    80001cd8:	0016869b          	addiw	a3,a3,1
    80001cdc:	005787b3          	add	a5,a5,t0
    80001ce0:	03069693          	slli	a3,a3,0x30
    80001ce4:	01e78023          	sb	t5,0(a5)
    80001ce8:	0306d693          	srli	a3,a3,0x30
    80001cec:	00058793          	mv	a5,a1
    80001cf0:	0036d713          	srli	a4,a3,0x3
    80001cf4:	0076f293          	andi	t0,a3,7
    80001cf8:	00377713          	andi	a4,a4,3
    80001cfc:	f5c29ce3          	bne	t0,t3,80001c54 <core_init_state+0x3c>
    80001d00:	00371713          	slli	a4,a4,0x3
    80001d04:	00900593          	li	a1,9
    80001d08:	00ee8733          	add	a4,t4,a4
    80001d0c:	00b785bb          	addw	a1,a5,a1
    80001d10:	06073703          	ld	a4,96(a4)
    80001d14:	00800293          	li	t0,8
    80001d18:	f715e6e3          	bltu	a1,a7,80001c84 <core_init_state+0x6c>
    80001d1c:	30a7f063          	bgeu	a5,a0,8000201c <core_init_state+0x404>
    80001d20:	02079693          	slli	a3,a5,0x20
    80001d24:	0206d693          	srli	a3,a3,0x20
    80001d28:	00d608b3          	add	a7,a2,a3
    80001d2c:	41100733          	neg	a4,a7
    80001d30:	00777713          	andi	a4,a4,7
    80001d34:	00770813          	addi	a6,a4,7
    80001d38:	00b00313          	li	t1,11
    80001d3c:	40f505bb          	subw	a1,a0,a5
    80001d40:	2c686663          	bltu	a6,t1,8000200c <core_init_state+0x3f4>
    80001d44:	fff5831b          	addiw	t1,a1,-1
    80001d48:	13036263          	bltu	t1,a6,80001e6c <core_init_state+0x254>
    80001d4c:	2c070a63          	beqz	a4,80002020 <core_init_state+0x408>
    80001d50:	0017881b          	addiw	a6,a5,1
    80001d54:	00088023          	sb	zero,0(a7)
    80001d58:	00100313          	li	t1,1
    80001d5c:	0008089b          	sext.w	a7,a6
    80001d60:	0a670c63          	beq	a4,t1,80001e18 <core_init_state+0x200>
    80001d64:	02081813          	slli	a6,a6,0x20
    80001d68:	02085813          	srli	a6,a6,0x20
    80001d6c:	01060833          	add	a6,a2,a6
    80001d70:	0027831b          	addiw	t1,a5,2
    80001d74:	00080023          	sb	zero,0(a6)
    80001d78:	00200813          	li	a6,2
    80001d7c:	0003089b          	sext.w	a7,t1
    80001d80:	09070c63          	beq	a4,a6,80001e18 <core_init_state+0x200>
    80001d84:	02031313          	slli	t1,t1,0x20
    80001d88:	02035313          	srli	t1,t1,0x20
    80001d8c:	00660333          	add	t1,a2,t1
    80001d90:	0037881b          	addiw	a6,a5,3
    80001d94:	00030023          	sb	zero,0(t1)
    80001d98:	00300313          	li	t1,3
    80001d9c:	0008089b          	sext.w	a7,a6
    80001da0:	06670c63          	beq	a4,t1,80001e18 <core_init_state+0x200>
    80001da4:	02081813          	slli	a6,a6,0x20
    80001da8:	02085813          	srli	a6,a6,0x20
    80001dac:	01060833          	add	a6,a2,a6
    80001db0:	0047831b          	addiw	t1,a5,4
    80001db4:	00080023          	sb	zero,0(a6)
    80001db8:	00400813          	li	a6,4
    80001dbc:	0003089b          	sext.w	a7,t1
    80001dc0:	05070c63          	beq	a4,a6,80001e18 <core_init_state+0x200>
    80001dc4:	02031313          	slli	t1,t1,0x20
    80001dc8:	02035313          	srli	t1,t1,0x20
    80001dcc:	00660333          	add	t1,a2,t1
    80001dd0:	0057881b          	addiw	a6,a5,5
    80001dd4:	00030023          	sb	zero,0(t1)
    80001dd8:	00500313          	li	t1,5
    80001ddc:	0008089b          	sext.w	a7,a6
    80001de0:	02670c63          	beq	a4,t1,80001e18 <core_init_state+0x200>
    80001de4:	02081813          	slli	a6,a6,0x20
    80001de8:	02085813          	srli	a6,a6,0x20
    80001dec:	01060833          	add	a6,a2,a6
    80001df0:	0067831b          	addiw	t1,a5,6
    80001df4:	00080023          	sb	zero,0(a6)
    80001df8:	00700813          	li	a6,7
    80001dfc:	0003089b          	sext.w	a7,t1
    80001e00:	01071c63          	bne	a4,a6,80001e18 <core_init_state+0x200>
    80001e04:	02031813          	slli	a6,t1,0x20
    80001e08:	02085813          	srli	a6,a6,0x20
    80001e0c:	01060833          	add	a6,a2,a6
    80001e10:	00080023          	sb	zero,0(a6)
    80001e14:	0077889b          	addiw	a7,a5,7
    80001e18:	40e585bb          	subw	a1,a1,a4
    80001e1c:	00d707b3          	add	a5,a4,a3
    80001e20:	0035d69b          	srliw	a3,a1,0x3
    80001e24:	fff6869b          	addiw	a3,a3,-1
    80001e28:	02069713          	slli	a4,a3,0x20
    80001e2c:	00f607b3          	add	a5,a2,a5
    80001e30:	01d75693          	srli	a3,a4,0x1d
    80001e34:	00878713          	addi	a4,a5,8
    80001e38:	0005881b          	sext.w	a6,a1
    80001e3c:	00e686b3          	add	a3,a3,a4
    80001e40:	0080006f          	j	80001e48 <core_init_state+0x230>
    80001e44:	00870713          	addi	a4,a4,8
    80001e48:	0007b023          	sd	zero,0(a5)
    80001e4c:	00070793          	mv	a5,a4
    80001e50:	fed71ae3          	bne	a4,a3,80001e44 <core_init_state+0x22c>
    80001e54:	ff85f593          	andi	a1,a1,-8
    80001e58:	0005871b          	sext.w	a4,a1
    80001e5c:	011587bb          	addw	a5,a1,a7
    80001e60:	19070063          	beq	a4,a6,80001fe0 <core_init_state+0x3c8>
    80001e64:	02079693          	slli	a3,a5,0x20
    80001e68:	0206d693          	srli	a3,a3,0x20
    80001e6c:	00d606b3          	add	a3,a2,a3
    80001e70:	0017871b          	addiw	a4,a5,1
    80001e74:	00068023          	sb	zero,0(a3)
    80001e78:	0007069b          	sext.w	a3,a4
    80001e7c:	16a6f263          	bgeu	a3,a0,80001fe0 <core_init_state+0x3c8>
    80001e80:	02071713          	slli	a4,a4,0x20
    80001e84:	02075713          	srli	a4,a4,0x20
    80001e88:	00e60733          	add	a4,a2,a4
    80001e8c:	0027869b          	addiw	a3,a5,2
    80001e90:	00070023          	sb	zero,0(a4)
    80001e94:	0006871b          	sext.w	a4,a3
    80001e98:	14a77463          	bgeu	a4,a0,80001fe0 <core_init_state+0x3c8>
    80001e9c:	02069693          	slli	a3,a3,0x20
    80001ea0:	0206d693          	srli	a3,a3,0x20
    80001ea4:	00d606b3          	add	a3,a2,a3
    80001ea8:	0037871b          	addiw	a4,a5,3
    80001eac:	00068023          	sb	zero,0(a3)
    80001eb0:	0007069b          	sext.w	a3,a4
    80001eb4:	12a6f663          	bgeu	a3,a0,80001fe0 <core_init_state+0x3c8>
    80001eb8:	02071713          	slli	a4,a4,0x20
    80001ebc:	02075713          	srli	a4,a4,0x20
    80001ec0:	00e60733          	add	a4,a2,a4
    80001ec4:	0047869b          	addiw	a3,a5,4
    80001ec8:	00070023          	sb	zero,0(a4)
    80001ecc:	0006871b          	sext.w	a4,a3
    80001ed0:	10a77863          	bgeu	a4,a0,80001fe0 <core_init_state+0x3c8>
    80001ed4:	02069693          	slli	a3,a3,0x20
    80001ed8:	0206d693          	srli	a3,a3,0x20
    80001edc:	00d606b3          	add	a3,a2,a3
    80001ee0:	0057871b          	addiw	a4,a5,5
    80001ee4:	00068023          	sb	zero,0(a3)
    80001ee8:	0007069b          	sext.w	a3,a4
    80001eec:	0ea6fa63          	bgeu	a3,a0,80001fe0 <core_init_state+0x3c8>
    80001ef0:	02071713          	slli	a4,a4,0x20
    80001ef4:	02075713          	srli	a4,a4,0x20
    80001ef8:	00e60733          	add	a4,a2,a4
    80001efc:	0067869b          	addiw	a3,a5,6
    80001f00:	00070023          	sb	zero,0(a4)
    80001f04:	0006871b          	sext.w	a4,a3
    80001f08:	0ca77c63          	bgeu	a4,a0,80001fe0 <core_init_state+0x3c8>
    80001f0c:	02069693          	slli	a3,a3,0x20
    80001f10:	0206d693          	srli	a3,a3,0x20
    80001f14:	00d606b3          	add	a3,a2,a3
    80001f18:	0077871b          	addiw	a4,a5,7
    80001f1c:	00068023          	sb	zero,0(a3)
    80001f20:	0007069b          	sext.w	a3,a4
    80001f24:	0aa6fe63          	bgeu	a3,a0,80001fe0 <core_init_state+0x3c8>
    80001f28:	02071713          	slli	a4,a4,0x20
    80001f2c:	02075713          	srli	a4,a4,0x20
    80001f30:	00e60733          	add	a4,a2,a4
    80001f34:	0087869b          	addiw	a3,a5,8
    80001f38:	00070023          	sb	zero,0(a4)
    80001f3c:	0006871b          	sext.w	a4,a3
    80001f40:	0aa77063          	bgeu	a4,a0,80001fe0 <core_init_state+0x3c8>
    80001f44:	02069713          	slli	a4,a3,0x20
    80001f48:	02075713          	srli	a4,a4,0x20
    80001f4c:	00e60733          	add	a4,a2,a4
    80001f50:	0097869b          	addiw	a3,a5,9
    80001f54:	00070023          	sb	zero,0(a4)
    80001f58:	0006871b          	sext.w	a4,a3
    80001f5c:	08a77263          	bgeu	a4,a0,80001fe0 <core_init_state+0x3c8>
    80001f60:	02069713          	slli	a4,a3,0x20
    80001f64:	02075713          	srli	a4,a4,0x20
    80001f68:	00e60733          	add	a4,a2,a4
    80001f6c:	00a7869b          	addiw	a3,a5,10
    80001f70:	00070023          	sb	zero,0(a4)
    80001f74:	0006871b          	sext.w	a4,a3
    80001f78:	06a77463          	bgeu	a4,a0,80001fe0 <core_init_state+0x3c8>
    80001f7c:	02069713          	slli	a4,a3,0x20
    80001f80:	02075713          	srli	a4,a4,0x20
    80001f84:	00e60733          	add	a4,a2,a4
    80001f88:	00b7869b          	addiw	a3,a5,11
    80001f8c:	00070023          	sb	zero,0(a4)
    80001f90:	0006871b          	sext.w	a4,a3
    80001f94:	04a77663          	bgeu	a4,a0,80001fe0 <core_init_state+0x3c8>
    80001f98:	02069713          	slli	a4,a3,0x20
    80001f9c:	02075713          	srli	a4,a4,0x20
    80001fa0:	00e60733          	add	a4,a2,a4
    80001fa4:	00c7869b          	addiw	a3,a5,12
    80001fa8:	00070023          	sb	zero,0(a4)
    80001fac:	0006871b          	sext.w	a4,a3
    80001fb0:	02a77863          	bgeu	a4,a0,80001fe0 <core_init_state+0x3c8>
    80001fb4:	02069713          	slli	a4,a3,0x20
    80001fb8:	02075713          	srli	a4,a4,0x20
    80001fbc:	00e60733          	add	a4,a2,a4
    80001fc0:	00d7879b          	addiw	a5,a5,13
    80001fc4:	00070023          	sb	zero,0(a4)
    80001fc8:	0007871b          	sext.w	a4,a5
    80001fcc:	00a77a63          	bgeu	a4,a0,80001fe0 <core_init_state+0x3c8>
    80001fd0:	02079793          	slli	a5,a5,0x20
    80001fd4:	0207d793          	srli	a5,a5,0x20
    80001fd8:	00f60633          	add	a2,a2,a5
    80001fdc:	00060023          	sb	zero,0(a2)
    80001fe0:	00008067          	ret
    80001fe4:	00073703          	ld	a4,0(a4)
    80001fe8:	00500593          	li	a1,5
    80001fec:	00400293          	li	t0,4
    80001ff0:	c8dff06f          	j	80001c7c <core_init_state+0x64>
    80001ff4:	00371713          	slli	a4,a4,0x3
    80001ff8:	00ee8733          	add	a4,t4,a4
    80001ffc:	04073703          	ld	a4,64(a4)
    80002000:	00900593          	li	a1,9
    80002004:	00800293          	li	t0,8
    80002008:	c75ff06f          	j	80001c7c <core_init_state+0x64>
    8000200c:	00b00813          	li	a6,11
    80002010:	d35ff06f          	j	80001d44 <core_init_state+0x12c>
    80002014:	00000793          	li	a5,0
    80002018:	d09ff06f          	j	80001d20 <core_init_state+0x108>
    8000201c:	00008067          	ret
    80002020:	00078893          	mv	a7,a5
    80002024:	df5ff06f          	j	80001e18 <core_init_state+0x200>

0000000080002028 <core_state_transition>:
    80002028:	00053703          	ld	a4,0(a0)
    8000202c:	00050313          	mv	t1,a0
    80002030:	00000513          	li	a0,0
    80002034:	00074803          	lbu	a6,0(a4)
    80002038:	00070693          	mv	a3,a4
    8000203c:	12080063          	beqz	a6,8000215c <core_state_transition+0x134>
    80002040:	00170e13          	addi	t3,a4,1
    80002044:	02c00513          	li	a0,44
    80002048:	000e0693          	mv	a3,t3
    8000204c:	2aa80463          	beq	a6,a0,800022f4 <core_state_transition+0x2cc>
    80002050:	0005a603          	lw	a2,0(a1)
    80002054:	fd08079b          	addiw	a5,a6,-48
    80002058:	0ff7f793          	zext.b	a5,a5
    8000205c:	00900893          	li	a7,9
    80002060:	0016061b          	addiw	a2,a2,1
    80002064:	10f8e063          	bltu	a7,a5,80002164 <core_state_transition+0x13c>
    80002068:	00c5a023          	sw	a2,0(a1)
    8000206c:	00174783          	lbu	a5,1(a4)
    80002070:	28078a63          	beqz	a5,80002304 <core_state_transition+0x2dc>
    80002074:	28a78c63          	beq	a5,a0,8000230c <core_state_transition+0x2e4>
    80002078:	fd07871b          	addiw	a4,a5,-48
    8000207c:	02e00513          	li	a0,46
    80002080:	0ff77613          	zext.b	a2,a4
    80002084:	00900813          	li	a6,9
    80002088:	02c00893          	li	a7,44
    8000208c:	00168713          	addi	a4,a3,1
    80002090:	02a78463          	beq	a5,a0,800020b8 <core_state_transition+0x90>
    80002094:	10c86263          	bltu	a6,a2,80002198 <core_state_transition+0x170>
    80002098:	00074783          	lbu	a5,0(a4)
    8000209c:	26078263          	beqz	a5,80002300 <core_state_transition+0x2d8>
    800020a0:	2f178863          	beq	a5,a7,80002390 <core_state_transition+0x368>
    800020a4:	00070693          	mv	a3,a4
    800020a8:	fd07871b          	addiw	a4,a5,-48
    800020ac:	0ff77613          	zext.b	a2,a4
    800020b0:	00168713          	addi	a4,a3,1
    800020b4:	fea790e3          	bne	a5,a0,80002094 <core_state_transition+0x6c>
    800020b8:	0105a783          	lw	a5,16(a1)
    800020bc:	0017879b          	addiw	a5,a5,1
    800020c0:	00f5a823          	sw	a5,16(a1)
    800020c4:	0016c783          	lbu	a5,1(a3)
    800020c8:	2a078663          	beqz	a5,80002374 <core_state_transition+0x34c>
    800020cc:	02c00613          	li	a2,44
    800020d0:	2ac78863          	beq	a5,a2,80002380 <core_state_transition+0x358>
    800020d4:	fd07869b          	addiw	a3,a5,-48
    800020d8:	04500513          	li	a0,69
    800020dc:	0df7f793          	andi	a5,a5,223
    800020e0:	0ff6f613          	zext.b	a2,a3
    800020e4:	00900813          	li	a6,9
    800020e8:	02c00893          	li	a7,44
    800020ec:	00170693          	addi	a3,a4,1
    800020f0:	02a78663          	beq	a5,a0,8000211c <core_state_transition+0xf4>
    800020f4:	14c86c63          	bltu	a6,a2,8000224c <core_state_transition+0x224>
    800020f8:	0006c783          	lbu	a5,0(a3)
    800020fc:	22078863          	beqz	a5,8000232c <core_state_transition+0x304>
    80002100:	27178263          	beq	a5,a7,80002364 <core_state_transition+0x33c>
    80002104:	00068713          	mv	a4,a3
    80002108:	fd07869b          	addiw	a3,a5,-48
    8000210c:	0df7f793          	andi	a5,a5,223
    80002110:	0ff6f613          	zext.b	a2,a3
    80002114:	00170693          	addi	a3,a4,1
    80002118:	fca79ee3          	bne	a5,a0,800020f4 <core_state_transition+0xcc>
    8000211c:	0145a783          	lw	a5,20(a1)
    80002120:	00300513          	li	a0,3
    80002124:	0017879b          	addiw	a5,a5,1
    80002128:	00f5aa23          	sw	a5,20(a1)
    8000212c:	00174783          	lbu	a5,1(a4)
    80002130:	02078663          	beqz	a5,8000215c <core_state_transition+0x134>
    80002134:	02c00513          	li	a0,44
    80002138:	1ea78e63          	beq	a5,a0,80002334 <core_state_transition+0x30c>
    8000213c:	00c5a603          	lw	a2,12(a1)
    80002140:	fd57879b          	addiw	a5,a5,-43
    80002144:	0fd7f793          	andi	a5,a5,253
    80002148:	0016061b          	addiw	a2,a2,1
    8000214c:	00270693          	addi	a3,a4,2
    80002150:	06078263          	beqz	a5,800021b4 <core_state_transition+0x18c>
    80002154:	00c5a623          	sw	a2,12(a1)
    80002158:	00100513          	li	a0,1
    8000215c:	00d33023          	sd	a3,0(t1)
    80002160:	00008067          	ret
    80002164:	02d00793          	li	a5,45
    80002168:	10f80863          	beq	a6,a5,80002278 <core_state_transition+0x250>
    8000216c:	02e00793          	li	a5,46
    80002170:	0ef80863          	beq	a6,a5,80002260 <core_state_transition+0x238>
    80002174:	02b00793          	li	a5,43
    80002178:	10f80063          	beq	a6,a5,80002278 <core_state_transition+0x250>
    8000217c:	0045a783          	lw	a5,4(a1)
    80002180:	00c5a023          	sw	a2,0(a1)
    80002184:	00100513          	li	a0,1
    80002188:	0017879b          	addiw	a5,a5,1
    8000218c:	00f5a223          	sw	a5,4(a1)
    80002190:	00d33023          	sd	a3,0(t1)
    80002194:	00008067          	ret
    80002198:	0105a783          	lw	a5,16(a1)
    8000219c:	00070693          	mv	a3,a4
    800021a0:	00100513          	li	a0,1
    800021a4:	0017879b          	addiw	a5,a5,1
    800021a8:	00f5a823          	sw	a5,16(a1)
    800021ac:	00d33023          	sd	a3,0(t1)
    800021b0:	00008067          	ret
    800021b4:	00c5a623          	sw	a2,12(a1)
    800021b8:	00274783          	lbu	a5,2(a4)
    800021bc:	16078463          	beqz	a5,80002324 <core_state_transition+0x2fc>
    800021c0:	18a78263          	beq	a5,a0,80002344 <core_state_transition+0x31c>
    800021c4:	0185a683          	lw	a3,24(a1)
    800021c8:	fd07879b          	addiw	a5,a5,-48
    800021cc:	0ff7f793          	zext.b	a5,a5
    800021d0:	00900813          	li	a6,9
    800021d4:	0016861b          	addiw	a2,a3,1
    800021d8:	00370693          	addi	a3,a4,3
    800021dc:	04f86663          	bltu	a6,a5,80002228 <core_state_transition+0x200>
    800021e0:	00c5ac23          	sw	a2,24(a1)
    800021e4:	00374783          	lbu	a5,3(a4)
    800021e8:	12078a63          	beqz	a5,8000231c <core_state_transition+0x2f4>
    800021ec:	16a78463          	beq	a5,a0,80002354 <core_state_transition+0x32c>
    800021f0:	00900713          	li	a4,9
    800021f4:	02c00613          	li	a2,44
    800021f8:	fd07879b          	addiw	a5,a5,-48
    800021fc:	0ff7f793          	zext.b	a5,a5
    80002200:	00168693          	addi	a3,a3,1
    80002204:	02f76a63          	bltu	a4,a5,80002238 <core_state_transition+0x210>
    80002208:	0006c783          	lbu	a5,0(a3)
    8000220c:	10078863          	beqz	a5,8000231c <core_state_transition+0x2f4>
    80002210:	fec794e3          	bne	a5,a2,800021f8 <core_state_transition+0x1d0>
    80002214:	00168e13          	addi	t3,a3,1
    80002218:	00700513          	li	a0,7
    8000221c:	000e0693          	mv	a3,t3
    80002220:	00d33023          	sd	a3,0(t1)
    80002224:	00008067          	ret
    80002228:	00c5ac23          	sw	a2,24(a1)
    8000222c:	00100513          	li	a0,1
    80002230:	00d33023          	sd	a3,0(t1)
    80002234:	00008067          	ret
    80002238:	0045a783          	lw	a5,4(a1)
    8000223c:	00100513          	li	a0,1
    80002240:	0017879b          	addiw	a5,a5,1
    80002244:	00f5a223          	sw	a5,4(a1)
    80002248:	f15ff06f          	j	8000215c <core_state_transition+0x134>
    8000224c:	0145a783          	lw	a5,20(a1)
    80002250:	00100513          	li	a0,1
    80002254:	0017879b          	addiw	a5,a5,1
    80002258:	00f5aa23          	sw	a5,20(a1)
    8000225c:	f01ff06f          	j	8000215c <core_state_transition+0x134>
    80002260:	00c5a023          	sw	a2,0(a1)
    80002264:	00174783          	lbu	a5,1(a4)
    80002268:	0c078263          	beqz	a5,8000232c <core_state_transition+0x304>
    8000226c:	0ea78c63          	beq	a5,a0,80002364 <core_state_transition+0x33c>
    80002270:	000e0713          	mv	a4,t3
    80002274:	e61ff06f          	j	800020d4 <core_state_transition+0xac>
    80002278:	00c5a023          	sw	a2,0(a1)
    8000227c:	00174803          	lbu	a6,1(a4)
    80002280:	14080063          	beqz	a6,800023c0 <core_state_transition+0x398>
    80002284:	02c00893          	li	a7,44
    80002288:	13180463          	beq	a6,a7,800023b0 <core_state_transition+0x388>
    8000228c:	0085a683          	lw	a3,8(a1)
    80002290:	fd08079b          	addiw	a5,a6,-48
    80002294:	0ff7f793          	zext.b	a5,a5
    80002298:	00900513          	li	a0,9
    8000229c:	0016861b          	addiw	a2,a3,1
    800022a0:	00270693          	addi	a3,a4,2
    800022a4:	00f57c63          	bgeu	a0,a5,800022bc <core_state_transition+0x294>
    800022a8:	02e00793          	li	a5,46
    800022ac:	02f80863          	beq	a6,a5,800022dc <core_state_transition+0x2b4>
    800022b0:	00c5a423          	sw	a2,8(a1)
    800022b4:	00100513          	li	a0,1
    800022b8:	ea5ff06f          	j	8000215c <core_state_transition+0x134>
    800022bc:	00c5a423          	sw	a2,8(a1)
    800022c0:	00274783          	lbu	a5,2(a4)
    800022c4:	04078063          	beqz	a5,80002304 <core_state_transition+0x2dc>
    800022c8:	db1798e3          	bne	a5,a7,80002078 <core_state_transition+0x50>
    800022cc:	00370e13          	addi	t3,a4,3
    800022d0:	00400513          	li	a0,4
    800022d4:	000e0693          	mv	a3,t3
    800022d8:	f49ff06f          	j	80002220 <core_state_transition+0x1f8>
    800022dc:	00c5a423          	sw	a2,8(a1)
    800022e0:	00274783          	lbu	a5,2(a4)
    800022e4:	04078463          	beqz	a5,8000232c <core_state_transition+0x304>
    800022e8:	0b178c63          	beq	a5,a7,800023a0 <core_state_transition+0x378>
    800022ec:	00068713          	mv	a4,a3
    800022f0:	de5ff06f          	j	800020d4 <core_state_transition+0xac>
    800022f4:	00000513          	li	a0,0
    800022f8:	000e0693          	mv	a3,t3
    800022fc:	f25ff06f          	j	80002220 <core_state_transition+0x1f8>
    80002300:	00070693          	mv	a3,a4
    80002304:	00400513          	li	a0,4
    80002308:	e55ff06f          	j	8000215c <core_state_transition+0x134>
    8000230c:	00270e13          	addi	t3,a4,2
    80002310:	00400513          	li	a0,4
    80002314:	000e0693          	mv	a3,t3
    80002318:	f09ff06f          	j	80002220 <core_state_transition+0x1f8>
    8000231c:	00700513          	li	a0,7
    80002320:	e3dff06f          	j	8000215c <core_state_transition+0x134>
    80002324:	00600513          	li	a0,6
    80002328:	e35ff06f          	j	8000215c <core_state_transition+0x134>
    8000232c:	00500513          	li	a0,5
    80002330:	e2dff06f          	j	8000215c <core_state_transition+0x134>
    80002334:	00270e13          	addi	t3,a4,2
    80002338:	00300513          	li	a0,3
    8000233c:	000e0693          	mv	a3,t3
    80002340:	ee1ff06f          	j	80002220 <core_state_transition+0x1f8>
    80002344:	00370e13          	addi	t3,a4,3
    80002348:	00600513          	li	a0,6
    8000234c:	000e0693          	mv	a3,t3
    80002350:	ed1ff06f          	j	80002220 <core_state_transition+0x1f8>
    80002354:	00470e13          	addi	t3,a4,4
    80002358:	00700513          	li	a0,7
    8000235c:	000e0693          	mv	a3,t3
    80002360:	ec1ff06f          	j	80002220 <core_state_transition+0x1f8>
    80002364:	00270e13          	addi	t3,a4,2
    80002368:	00500513          	li	a0,5
    8000236c:	000e0693          	mv	a3,t3
    80002370:	eb1ff06f          	j	80002220 <core_state_transition+0x1f8>
    80002374:	00070693          	mv	a3,a4
    80002378:	00500513          	li	a0,5
    8000237c:	de1ff06f          	j	8000215c <core_state_transition+0x134>
    80002380:	00268e13          	addi	t3,a3,2
    80002384:	00500513          	li	a0,5
    80002388:	000e0693          	mv	a3,t3
    8000238c:	e95ff06f          	j	80002220 <core_state_transition+0x1f8>
    80002390:	00268e13          	addi	t3,a3,2
    80002394:	00400513          	li	a0,4
    80002398:	000e0693          	mv	a3,t3
    8000239c:	e85ff06f          	j	80002220 <core_state_transition+0x1f8>
    800023a0:	00370e13          	addi	t3,a4,3
    800023a4:	00500513          	li	a0,5
    800023a8:	000e0693          	mv	a3,t3
    800023ac:	e75ff06f          	j	80002220 <core_state_transition+0x1f8>
    800023b0:	001e0e13          	addi	t3,t3,1 # fffffffffffff001 <_pmem_end+0xffffffff77fff001>
    800023b4:	00200513          	li	a0,2
    800023b8:	000e0693          	mv	a3,t3
    800023bc:	e65ff06f          	j	80002220 <core_state_transition+0x1f8>
    800023c0:	00200513          	li	a0,2
    800023c4:	d99ff06f          	j	8000215c <core_state_transition+0x134>

00000000800023c8 <core_bench_state>:
    800023c8:	f6010113          	addi	sp,sp,-160
    800023cc:	08813823          	sd	s0,144(sp)
    800023d0:	08913423          	sd	s1,136(sp)
    800023d4:	09213023          	sd	s2,128(sp)
    800023d8:	07313c23          	sd	s3,120(sp)
    800023dc:	07413823          	sd	s4,112(sp)
    800023e0:	07513423          	sd	s5,104(sp)
    800023e4:	07613023          	sd	s6,96(sp)
    800023e8:	05813823          	sd	s8,80(sp)
    800023ec:	08113c23          	sd	ra,152(sp)
    800023f0:	05713c23          	sd	s7,88(sp)
    800023f4:	0005cb83          	lbu	s7,0(a1)
    800023f8:	00b13423          	sd	a1,8(sp)
    800023fc:	02013823          	sd	zero,48(sp)
    80002400:	00013823          	sd	zero,16(sp)
    80002404:	02013c23          	sd	zero,56(sp)
    80002408:	00013c23          	sd	zero,24(sp)
    8000240c:	04013023          	sd	zero,64(sp)
    80002410:	02013023          	sd	zero,32(sp)
    80002414:	04013423          	sd	zero,72(sp)
    80002418:	02013423          	sd	zero,40(sp)
    8000241c:	00058913          	mv	s2,a1
    80002420:	00050a93          	mv	s5,a0
    80002424:	00060b13          	mv	s6,a2
    80002428:	00068993          	mv	s3,a3
    8000242c:	00070a13          	mv	s4,a4
    80002430:	00078413          	mv	s0,a5
    80002434:	03010493          	addi	s1,sp,48
    80002438:	00810c13          	addi	s8,sp,8
    8000243c:	020b8c63          	beqz	s7,80002474 <core_bench_state+0xac>
    80002440:	00048593          	mv	a1,s1
    80002444:	000c0513          	mv	a0,s8
    80002448:	be1ff0ef          	jal	ra,80002028 <core_state_transition>
    8000244c:	02051713          	slli	a4,a0,0x20
    80002450:	01e75793          	srli	a5,a4,0x1e
    80002454:	05078793          	addi	a5,a5,80
    80002458:	002787b3          	add	a5,a5,sp
    8000245c:	00813683          	ld	a3,8(sp)
    80002460:	fc07a703          	lw	a4,-64(a5)
    80002464:	0006c683          	lbu	a3,0(a3)
    80002468:	0017071b          	addiw	a4,a4,1
    8000246c:	fce7a023          	sw	a4,-64(a5)
    80002470:	fc0698e3          	bnez	a3,80002440 <core_bench_state+0x78>
    80002474:	020a9a93          	slli	s5,s5,0x20
    80002478:	020ada93          	srli	s5,s5,0x20
    8000247c:	01213423          	sd	s2,8(sp)
    80002480:	01590ab3          	add	s5,s2,s5
    80002484:	155978e3          	bgeu	s2,s5,80002dd4 <core_bench_state+0xa0c>
    80002488:	00100713          	li	a4,1
    8000248c:	000a059b          	sext.w	a1,s4
    80002490:	00090793          	mv	a5,s2
    80002494:	02c00613          	li	a2,44
    80002498:	0eea1ae3          	bne	s4,a4,80002d8c <core_bench_state+0x9c4>
    8000249c:	0007c703          	lbu	a4,0(a5)
    800024a0:	016746b3          	xor	a3,a4,s6
    800024a4:	00c70463          	beq	a4,a2,800024ac <core_bench_state+0xe4>
    800024a8:	00d78023          	sb	a3,0(a5)
    800024ac:	00178793          	addi	a5,a5,1
    800024b0:	ff57e6e3          	bltu	a5,s5,8000249c <core_bench_state+0xd4>
    800024b4:	00094783          	lbu	a5,0(s2)
    800024b8:	10078ae3          	beqz	a5,80002dcc <core_bench_state+0xa04>
    800024bc:	00810c13          	addi	s8,sp,8
    800024c0:	00048593          	mv	a1,s1
    800024c4:	000c0513          	mv	a0,s8
    800024c8:	b61ff0ef          	jal	ra,80002028 <core_state_transition>
    800024cc:	02051793          	slli	a5,a0,0x20
    800024d0:	01e7d513          	srli	a0,a5,0x1e
    800024d4:	05050793          	addi	a5,a0,80
    800024d8:	00278533          	add	a0,a5,sp
    800024dc:	00813703          	ld	a4,8(sp)
    800024e0:	fc052783          	lw	a5,-64(a0)
    800024e4:	00074703          	lbu	a4,0(a4)
    800024e8:	0017879b          	addiw	a5,a5,1
    800024ec:	fcf52023          	sw	a5,-64(a0)
    800024f0:	fc0718e3          	bnez	a4,800024c0 <core_bench_state+0xf8>
    800024f4:	01213423          	sd	s2,8(sp)
    800024f8:	000a059b          	sext.w	a1,s4
    800024fc:	03597463          	bgeu	s2,s5,80002524 <core_bench_state+0x15c>
    80002500:	00100793          	li	a5,1
    80002504:	02c00693          	li	a3,44
    80002508:	0af594e3          	bne	a1,a5,80002db0 <core_bench_state+0x9e8>
    8000250c:	00094783          	lbu	a5,0(s2)
    80002510:	0137c733          	xor	a4,a5,s3
    80002514:	00d78463          	beq	a5,a3,8000251c <core_bench_state+0x154>
    80002518:	00e90023          	sb	a4,0(s2)
    8000251c:	00190913          	addi	s2,s2,1
    80002520:	ff5966e3          	bltu	s2,s5,8000250c <core_bench_state+0x144>
    80002524:	ffffa737          	lui	a4,0xffffa
    80002528:	01010693          	addi	a3,sp,16
    8000252c:	00048613          	mv	a2,s1
    80002530:	00170713          	addi	a4,a4,1 # ffffffffffffa001 <_pmem_end+0xffffffff77ffa001>
    80002534:	0006a583          	lw	a1,0(a3)
    80002538:	00145793          	srli	a5,s0,0x1
    8000253c:	0ff5f513          	zext.b	a0,a1
    80002540:	00854433          	xor	s0,a0,s0
    80002544:	03059813          	slli	a6,a1,0x30
    80002548:	00147413          	andi	s0,s0,1
    8000254c:	03085813          	srli	a6,a6,0x30
    80002550:	00155313          	srli	t1,a0,0x1
    80002554:	00040863          	beqz	s0,80002564 <core_bench_state+0x19c>
    80002558:	00e7c7b3          	xor	a5,a5,a4
    8000255c:	03079793          	slli	a5,a5,0x30
    80002560:	0307d793          	srli	a5,a5,0x30
    80002564:	00f34333          	xor	t1,t1,a5
    80002568:	00137313          	andi	t1,t1,1
    8000256c:	00255893          	srli	a7,a0,0x2
    80002570:	0017d793          	srli	a5,a5,0x1
    80002574:	00030863          	beqz	t1,80002584 <core_bench_state+0x1bc>
    80002578:	00e7c7b3          	xor	a5,a5,a4
    8000257c:	03079793          	slli	a5,a5,0x30
    80002580:	0307d793          	srli	a5,a5,0x30
    80002584:	00f8c8b3          	xor	a7,a7,a5
    80002588:	0018f893          	andi	a7,a7,1
    8000258c:	00355313          	srli	t1,a0,0x3
    80002590:	0017d793          	srli	a5,a5,0x1
    80002594:	00088863          	beqz	a7,800025a4 <core_bench_state+0x1dc>
    80002598:	00e7c7b3          	xor	a5,a5,a4
    8000259c:	03079793          	slli	a5,a5,0x30
    800025a0:	0307d793          	srli	a5,a5,0x30
    800025a4:	00f34333          	xor	t1,t1,a5
    800025a8:	00137313          	andi	t1,t1,1
    800025ac:	00455893          	srli	a7,a0,0x4
    800025b0:	0017d793          	srli	a5,a5,0x1
    800025b4:	00030863          	beqz	t1,800025c4 <core_bench_state+0x1fc>
    800025b8:	00e7c7b3          	xor	a5,a5,a4
    800025bc:	03079793          	slli	a5,a5,0x30
    800025c0:	0307d793          	srli	a5,a5,0x30
    800025c4:	00f8c8b3          	xor	a7,a7,a5
    800025c8:	0018f893          	andi	a7,a7,1
    800025cc:	00555313          	srli	t1,a0,0x5
    800025d0:	0017d793          	srli	a5,a5,0x1
    800025d4:	00088863          	beqz	a7,800025e4 <core_bench_state+0x21c>
    800025d8:	00e7c7b3          	xor	a5,a5,a4
    800025dc:	03079793          	slli	a5,a5,0x30
    800025e0:	0307d793          	srli	a5,a5,0x30
    800025e4:	00f34333          	xor	t1,t1,a5
    800025e8:	00137313          	andi	t1,t1,1
    800025ec:	00655893          	srli	a7,a0,0x6
    800025f0:	0017d793          	srli	a5,a5,0x1
    800025f4:	00030863          	beqz	t1,80002604 <core_bench_state+0x23c>
    800025f8:	00e7c7b3          	xor	a5,a5,a4
    800025fc:	03079793          	slli	a5,a5,0x30
    80002600:	0307d793          	srli	a5,a5,0x30
    80002604:	00f8c8b3          	xor	a7,a7,a5
    80002608:	0018f893          	andi	a7,a7,1
    8000260c:	00755513          	srli	a0,a0,0x7
    80002610:	0017d793          	srli	a5,a5,0x1
    80002614:	00088863          	beqz	a7,80002624 <core_bench_state+0x25c>
    80002618:	00e7c7b3          	xor	a5,a5,a4
    8000261c:	03079793          	slli	a5,a5,0x30
    80002620:	0307d793          	srli	a5,a5,0x30
    80002624:	0017f893          	andi	a7,a5,1
    80002628:	0017d793          	srli	a5,a5,0x1
    8000262c:	00a88863          	beq	a7,a0,8000263c <core_bench_state+0x274>
    80002630:	00e7c7b3          	xor	a5,a5,a4
    80002634:	03079793          	slli	a5,a5,0x30
    80002638:	0307d793          	srli	a5,a5,0x30
    8000263c:	00885513          	srli	a0,a6,0x8
    80002640:	00f548b3          	xor	a7,a0,a5
    80002644:	0018f893          	andi	a7,a7,1
    80002648:	00985813          	srli	a6,a6,0x9
    8000264c:	0017d793          	srli	a5,a5,0x1
    80002650:	00088863          	beqz	a7,80002660 <core_bench_state+0x298>
    80002654:	00e7c7b3          	xor	a5,a5,a4
    80002658:	03079793          	slli	a5,a5,0x30
    8000265c:	0307d793          	srli	a5,a5,0x30
    80002660:	00f84833          	xor	a6,a6,a5
    80002664:	00187813          	andi	a6,a6,1
    80002668:	00255893          	srli	a7,a0,0x2
    8000266c:	0017d793          	srli	a5,a5,0x1
    80002670:	00080863          	beqz	a6,80002680 <core_bench_state+0x2b8>
    80002674:	00e7c7b3          	xor	a5,a5,a4
    80002678:	03079793          	slli	a5,a5,0x30
    8000267c:	0307d793          	srli	a5,a5,0x30
    80002680:	00f8c833          	xor	a6,a7,a5
    80002684:	00187813          	andi	a6,a6,1
    80002688:	00355893          	srli	a7,a0,0x3
    8000268c:	0017d793          	srli	a5,a5,0x1
    80002690:	00080863          	beqz	a6,800026a0 <core_bench_state+0x2d8>
    80002694:	00e7c7b3          	xor	a5,a5,a4
    80002698:	03079793          	slli	a5,a5,0x30
    8000269c:	0307d793          	srli	a5,a5,0x30
    800026a0:	00f8c8b3          	xor	a7,a7,a5
    800026a4:	0018f893          	andi	a7,a7,1
    800026a8:	00455813          	srli	a6,a0,0x4
    800026ac:	0017d793          	srli	a5,a5,0x1
    800026b0:	00088863          	beqz	a7,800026c0 <core_bench_state+0x2f8>
    800026b4:	00e7c7b3          	xor	a5,a5,a4
    800026b8:	03079793          	slli	a5,a5,0x30
    800026bc:	0307d793          	srli	a5,a5,0x30
    800026c0:	00f84833          	xor	a6,a6,a5
    800026c4:	00187813          	andi	a6,a6,1
    800026c8:	00555893          	srli	a7,a0,0x5
    800026cc:	0017d793          	srli	a5,a5,0x1
    800026d0:	00080863          	beqz	a6,800026e0 <core_bench_state+0x318>
    800026d4:	00e7c7b3          	xor	a5,a5,a4
    800026d8:	03079793          	slli	a5,a5,0x30
    800026dc:	0307d793          	srli	a5,a5,0x30
    800026e0:	00f8c8b3          	xor	a7,a7,a5
    800026e4:	0018f893          	andi	a7,a7,1
    800026e8:	00655813          	srli	a6,a0,0x6
    800026ec:	0017d793          	srli	a5,a5,0x1
    800026f0:	00088863          	beqz	a7,80002700 <core_bench_state+0x338>
    800026f4:	00e7c7b3          	xor	a5,a5,a4
    800026f8:	03079793          	slli	a5,a5,0x30
    800026fc:	0307d793          	srli	a5,a5,0x30
    80002700:	00f84833          	xor	a6,a6,a5
    80002704:	00187813          	andi	a6,a6,1
    80002708:	00755513          	srli	a0,a0,0x7
    8000270c:	0017d793          	srli	a5,a5,0x1
    80002710:	00080863          	beqz	a6,80002720 <core_bench_state+0x358>
    80002714:	00e7c7b3          	xor	a5,a5,a4
    80002718:	03079793          	slli	a5,a5,0x30
    8000271c:	0307d793          	srli	a5,a5,0x30
    80002720:	00f54533          	xor	a0,a0,a5
    80002724:	00157513          	andi	a0,a0,1
    80002728:	0017d793          	srli	a5,a5,0x1
    8000272c:	00050863          	beqz	a0,8000273c <core_bench_state+0x374>
    80002730:	00e7c7b3          	xor	a5,a5,a4
    80002734:	03079793          	slli	a5,a5,0x30
    80002738:	0307d793          	srli	a5,a5,0x30
    8000273c:	0105d51b          	srliw	a0,a1,0x10
    80002740:	0ff57513          	zext.b	a0,a0
    80002744:	00f54833          	xor	a6,a0,a5
    80002748:	00187813          	andi	a6,a6,1
    8000274c:	0105d59b          	srliw	a1,a1,0x10
    80002750:	00155893          	srli	a7,a0,0x1
    80002754:	0017d793          	srli	a5,a5,0x1
    80002758:	00080863          	beqz	a6,80002768 <core_bench_state+0x3a0>
    8000275c:	00e7c7b3          	xor	a5,a5,a4
    80002760:	03079793          	slli	a5,a5,0x30
    80002764:	0307d793          	srli	a5,a5,0x30
    80002768:	00f8c8b3          	xor	a7,a7,a5
    8000276c:	0018f893          	andi	a7,a7,1
    80002770:	00255813          	srli	a6,a0,0x2
    80002774:	0017d793          	srli	a5,a5,0x1
    80002778:	00088863          	beqz	a7,80002788 <core_bench_state+0x3c0>
    8000277c:	00e7c7b3          	xor	a5,a5,a4
    80002780:	03079793          	slli	a5,a5,0x30
    80002784:	0307d793          	srli	a5,a5,0x30
    80002788:	00f84833          	xor	a6,a6,a5
    8000278c:	00187813          	andi	a6,a6,1
    80002790:	00355893          	srli	a7,a0,0x3
    80002794:	0017d793          	srli	a5,a5,0x1
    80002798:	00080863          	beqz	a6,800027a8 <core_bench_state+0x3e0>
    8000279c:	00e7c7b3          	xor	a5,a5,a4
    800027a0:	03079793          	slli	a5,a5,0x30
    800027a4:	0307d793          	srli	a5,a5,0x30
    800027a8:	00f8c8b3          	xor	a7,a7,a5
    800027ac:	0018f893          	andi	a7,a7,1
    800027b0:	00455813          	srli	a6,a0,0x4
    800027b4:	0017d793          	srli	a5,a5,0x1
    800027b8:	00088863          	beqz	a7,800027c8 <core_bench_state+0x400>
    800027bc:	00e7c7b3          	xor	a5,a5,a4
    800027c0:	03079793          	slli	a5,a5,0x30
    800027c4:	0307d793          	srli	a5,a5,0x30
    800027c8:	00f84833          	xor	a6,a6,a5
    800027cc:	00187813          	andi	a6,a6,1
    800027d0:	00555893          	srli	a7,a0,0x5
    800027d4:	0017d793          	srli	a5,a5,0x1
    800027d8:	00080863          	beqz	a6,800027e8 <core_bench_state+0x420>
    800027dc:	00e7c7b3          	xor	a5,a5,a4
    800027e0:	03079793          	slli	a5,a5,0x30
    800027e4:	0307d793          	srli	a5,a5,0x30
    800027e8:	00f8c8b3          	xor	a7,a7,a5
    800027ec:	0018f893          	andi	a7,a7,1
    800027f0:	00655813          	srli	a6,a0,0x6
    800027f4:	0017d793          	srli	a5,a5,0x1
    800027f8:	00088863          	beqz	a7,80002808 <core_bench_state+0x440>
    800027fc:	00e7c7b3          	xor	a5,a5,a4
    80002800:	03079793          	slli	a5,a5,0x30
    80002804:	0307d793          	srli	a5,a5,0x30
    80002808:	00f84833          	xor	a6,a6,a5
    8000280c:	00187813          	andi	a6,a6,1
    80002810:	00755513          	srli	a0,a0,0x7
    80002814:	0017d793          	srli	a5,a5,0x1
    80002818:	00080863          	beqz	a6,80002828 <core_bench_state+0x460>
    8000281c:	00e7c7b3          	xor	a5,a5,a4
    80002820:	03079793          	slli	a5,a5,0x30
    80002824:	0307d793          	srli	a5,a5,0x30
    80002828:	0017f813          	andi	a6,a5,1
    8000282c:	0017d793          	srli	a5,a5,0x1
    80002830:	00a80863          	beq	a6,a0,80002840 <core_bench_state+0x478>
    80002834:	00e7c7b3          	xor	a5,a5,a4
    80002838:	03079793          	slli	a5,a5,0x30
    8000283c:	0307d793          	srli	a5,a5,0x30
    80002840:	0085d513          	srli	a0,a1,0x8
    80002844:	00f54833          	xor	a6,a0,a5
    80002848:	00187813          	andi	a6,a6,1
    8000284c:	0095d593          	srli	a1,a1,0x9
    80002850:	0017d793          	srli	a5,a5,0x1
    80002854:	00080863          	beqz	a6,80002864 <core_bench_state+0x49c>
    80002858:	00e7c7b3          	xor	a5,a5,a4
    8000285c:	03079793          	slli	a5,a5,0x30
    80002860:	0307d793          	srli	a5,a5,0x30
    80002864:	00f5c5b3          	xor	a1,a1,a5
    80002868:	0015f593          	andi	a1,a1,1
    8000286c:	00255813          	srli	a6,a0,0x2
    80002870:	0017d793          	srli	a5,a5,0x1
    80002874:	00058863          	beqz	a1,80002884 <core_bench_state+0x4bc>
    80002878:	00e7c7b3          	xor	a5,a5,a4
    8000287c:	03079793          	slli	a5,a5,0x30
    80002880:	0307d793          	srli	a5,a5,0x30
    80002884:	00f845b3          	xor	a1,a6,a5
    80002888:	0015f593          	andi	a1,a1,1
    8000288c:	00355813          	srli	a6,a0,0x3
    80002890:	0017d793          	srli	a5,a5,0x1
    80002894:	00058863          	beqz	a1,800028a4 <core_bench_state+0x4dc>
    80002898:	00e7c7b3          	xor	a5,a5,a4
    8000289c:	03079793          	slli	a5,a5,0x30
    800028a0:	0307d793          	srli	a5,a5,0x30
    800028a4:	00f84833          	xor	a6,a6,a5
    800028a8:	00187813          	andi	a6,a6,1
    800028ac:	00455593          	srli	a1,a0,0x4
    800028b0:	0017d793          	srli	a5,a5,0x1
    800028b4:	00080863          	beqz	a6,800028c4 <core_bench_state+0x4fc>
    800028b8:	00e7c7b3          	xor	a5,a5,a4
    800028bc:	03079793          	slli	a5,a5,0x30
    800028c0:	0307d793          	srli	a5,a5,0x30
    800028c4:	00f5c5b3          	xor	a1,a1,a5
    800028c8:	0015f593          	andi	a1,a1,1
    800028cc:	00555813          	srli	a6,a0,0x5
    800028d0:	0017d793          	srli	a5,a5,0x1
    800028d4:	00058863          	beqz	a1,800028e4 <core_bench_state+0x51c>
    800028d8:	00e7c7b3          	xor	a5,a5,a4
    800028dc:	03079793          	slli	a5,a5,0x30
    800028e0:	0307d793          	srli	a5,a5,0x30
    800028e4:	00f84833          	xor	a6,a6,a5
    800028e8:	00187813          	andi	a6,a6,1
    800028ec:	00655593          	srli	a1,a0,0x6
    800028f0:	0017d793          	srli	a5,a5,0x1
    800028f4:	00080863          	beqz	a6,80002904 <core_bench_state+0x53c>
    800028f8:	00e7c7b3          	xor	a5,a5,a4
    800028fc:	03079793          	slli	a5,a5,0x30
    80002900:	0307d793          	srli	a5,a5,0x30
    80002904:	00f5c5b3          	xor	a1,a1,a5
    80002908:	0015f593          	andi	a1,a1,1
    8000290c:	00755513          	srli	a0,a0,0x7
    80002910:	0017d793          	srli	a5,a5,0x1
    80002914:	00058863          	beqz	a1,80002924 <core_bench_state+0x55c>
    80002918:	00e7c7b3          	xor	a5,a5,a4
    8000291c:	03079793          	slli	a5,a5,0x30
    80002920:	0307d793          	srli	a5,a5,0x30
    80002924:	00f54533          	xor	a0,a0,a5
    80002928:	00157513          	andi	a0,a0,1
    8000292c:	0017d793          	srli	a5,a5,0x1
    80002930:	00050863          	beqz	a0,80002940 <core_bench_state+0x578>
    80002934:	00e7c7b3          	xor	a5,a5,a4
    80002938:	03079793          	slli	a5,a5,0x30
    8000293c:	0307d793          	srli	a5,a5,0x30
    80002940:	00062583          	lw	a1,0(a2)
    80002944:	0017d413          	srli	s0,a5,0x1
    80002948:	0ff5f513          	zext.b	a0,a1
    8000294c:	00f547b3          	xor	a5,a0,a5
    80002950:	03059813          	slli	a6,a1,0x30
    80002954:	0017f793          	andi	a5,a5,1
    80002958:	03085813          	srli	a6,a6,0x30
    8000295c:	00155893          	srli	a7,a0,0x1
    80002960:	00078863          	beqz	a5,80002970 <core_bench_state+0x5a8>
    80002964:	00e44433          	xor	s0,s0,a4
    80002968:	03041413          	slli	s0,s0,0x30
    8000296c:	03045413          	srli	s0,s0,0x30
    80002970:	0088c7b3          	xor	a5,a7,s0
    80002974:	0017f793          	andi	a5,a5,1
    80002978:	00255893          	srli	a7,a0,0x2
    8000297c:	00145413          	srli	s0,s0,0x1
    80002980:	00078863          	beqz	a5,80002990 <core_bench_state+0x5c8>
    80002984:	00e44433          	xor	s0,s0,a4
    80002988:	03041413          	slli	s0,s0,0x30
    8000298c:	03045413          	srli	s0,s0,0x30
    80002990:	0088c8b3          	xor	a7,a7,s0
    80002994:	0018f893          	andi	a7,a7,1
    80002998:	00355793          	srli	a5,a0,0x3
    8000299c:	00145413          	srli	s0,s0,0x1
    800029a0:	00088863          	beqz	a7,800029b0 <core_bench_state+0x5e8>
    800029a4:	00e44433          	xor	s0,s0,a4
    800029a8:	03041413          	slli	s0,s0,0x30
    800029ac:	03045413          	srli	s0,s0,0x30
    800029b0:	0087c7b3          	xor	a5,a5,s0
    800029b4:	0017f793          	andi	a5,a5,1
    800029b8:	00455893          	srli	a7,a0,0x4
    800029bc:	00145413          	srli	s0,s0,0x1
    800029c0:	00078863          	beqz	a5,800029d0 <core_bench_state+0x608>
    800029c4:	00e44433          	xor	s0,s0,a4
    800029c8:	03041413          	slli	s0,s0,0x30
    800029cc:	03045413          	srli	s0,s0,0x30
    800029d0:	0088c8b3          	xor	a7,a7,s0
    800029d4:	0018f893          	andi	a7,a7,1
    800029d8:	00555793          	srli	a5,a0,0x5
    800029dc:	00145413          	srli	s0,s0,0x1
    800029e0:	00088863          	beqz	a7,800029f0 <core_bench_state+0x628>
    800029e4:	00e44433          	xor	s0,s0,a4
    800029e8:	03041413          	slli	s0,s0,0x30
    800029ec:	03045413          	srli	s0,s0,0x30
    800029f0:	0087c7b3          	xor	a5,a5,s0
    800029f4:	0017f793          	andi	a5,a5,1
    800029f8:	00655893          	srli	a7,a0,0x6
    800029fc:	00145413          	srli	s0,s0,0x1
    80002a00:	00078863          	beqz	a5,80002a10 <core_bench_state+0x648>
    80002a04:	00e44433          	xor	s0,s0,a4
    80002a08:	03041413          	slli	s0,s0,0x30
    80002a0c:	03045413          	srli	s0,s0,0x30
    80002a10:	0088c8b3          	xor	a7,a7,s0
    80002a14:	0018f893          	andi	a7,a7,1
    80002a18:	00755793          	srli	a5,a0,0x7
    80002a1c:	00145413          	srli	s0,s0,0x1
    80002a20:	00088863          	beqz	a7,80002a30 <core_bench_state+0x668>
    80002a24:	00e44433          	xor	s0,s0,a4
    80002a28:	03041413          	slli	s0,s0,0x30
    80002a2c:	03045413          	srli	s0,s0,0x30
    80002a30:	00147513          	andi	a0,s0,1
    80002a34:	00145413          	srli	s0,s0,0x1
    80002a38:	00f50863          	beq	a0,a5,80002a48 <core_bench_state+0x680>
    80002a3c:	00e44433          	xor	s0,s0,a4
    80002a40:	03041413          	slli	s0,s0,0x30
    80002a44:	03045413          	srli	s0,s0,0x30
    80002a48:	00885793          	srli	a5,a6,0x8
    80002a4c:	0087c533          	xor	a0,a5,s0
    80002a50:	00157513          	andi	a0,a0,1
    80002a54:	00985813          	srli	a6,a6,0x9
    80002a58:	00145413          	srli	s0,s0,0x1
    80002a5c:	00050863          	beqz	a0,80002a6c <core_bench_state+0x6a4>
    80002a60:	00e44433          	xor	s0,s0,a4
    80002a64:	03041413          	slli	s0,s0,0x30
    80002a68:	03045413          	srli	s0,s0,0x30
    80002a6c:	00884833          	xor	a6,a6,s0
    80002a70:	00187813          	andi	a6,a6,1
    80002a74:	0027d513          	srli	a0,a5,0x2
    80002a78:	00145413          	srli	s0,s0,0x1
    80002a7c:	00080863          	beqz	a6,80002a8c <core_bench_state+0x6c4>
    80002a80:	00e44433          	xor	s0,s0,a4
    80002a84:	03041413          	slli	s0,s0,0x30
    80002a88:	03045413          	srli	s0,s0,0x30
    80002a8c:	00854533          	xor	a0,a0,s0
    80002a90:	00157513          	andi	a0,a0,1
    80002a94:	0037d813          	srli	a6,a5,0x3
    80002a98:	00145413          	srli	s0,s0,0x1
    80002a9c:	00050863          	beqz	a0,80002aac <core_bench_state+0x6e4>
    80002aa0:	00e44433          	xor	s0,s0,a4
    80002aa4:	03041413          	slli	s0,s0,0x30
    80002aa8:	03045413          	srli	s0,s0,0x30
    80002aac:	00884833          	xor	a6,a6,s0
    80002ab0:	00187813          	andi	a6,a6,1
    80002ab4:	0047d513          	srli	a0,a5,0x4
    80002ab8:	00145413          	srli	s0,s0,0x1
    80002abc:	00080863          	beqz	a6,80002acc <core_bench_state+0x704>
    80002ac0:	00e44433          	xor	s0,s0,a4
    80002ac4:	03041413          	slli	s0,s0,0x30
    80002ac8:	03045413          	srli	s0,s0,0x30
    80002acc:	00854533          	xor	a0,a0,s0
    80002ad0:	00157513          	andi	a0,a0,1
    80002ad4:	0057d813          	srli	a6,a5,0x5
    80002ad8:	00145413          	srli	s0,s0,0x1
    80002adc:	00050863          	beqz	a0,80002aec <core_bench_state+0x724>
    80002ae0:	00e44433          	xor	s0,s0,a4
    80002ae4:	03041413          	slli	s0,s0,0x30
    80002ae8:	03045413          	srli	s0,s0,0x30
    80002aec:	00884833          	xor	a6,a6,s0
    80002af0:	00187813          	andi	a6,a6,1
    80002af4:	0067d513          	srli	a0,a5,0x6
    80002af8:	00145413          	srli	s0,s0,0x1
    80002afc:	00080863          	beqz	a6,80002b0c <core_bench_state+0x744>
    80002b00:	00e44433          	xor	s0,s0,a4
    80002b04:	03041413          	slli	s0,s0,0x30
    80002b08:	03045413          	srli	s0,s0,0x30
    80002b0c:	00854533          	xor	a0,a0,s0
    80002b10:	00157513          	andi	a0,a0,1
    80002b14:	0077d793          	srli	a5,a5,0x7
    80002b18:	00145413          	srli	s0,s0,0x1
    80002b1c:	00050863          	beqz	a0,80002b2c <core_bench_state+0x764>
    80002b20:	00e44433          	xor	s0,s0,a4
    80002b24:	03041413          	slli	s0,s0,0x30
    80002b28:	03045413          	srli	s0,s0,0x30
    80002b2c:	0087c7b3          	xor	a5,a5,s0
    80002b30:	0017f793          	andi	a5,a5,1
    80002b34:	00145413          	srli	s0,s0,0x1
    80002b38:	00078863          	beqz	a5,80002b48 <core_bench_state+0x780>
    80002b3c:	00e44433          	xor	s0,s0,a4
    80002b40:	03041413          	slli	s0,s0,0x30
    80002b44:	03045413          	srli	s0,s0,0x30
    80002b48:	0105d79b          	srliw	a5,a1,0x10
    80002b4c:	0ff7f793          	zext.b	a5,a5
    80002b50:	0087c533          	xor	a0,a5,s0
    80002b54:	00157513          	andi	a0,a0,1
    80002b58:	0105d59b          	srliw	a1,a1,0x10
    80002b5c:	0017d813          	srli	a6,a5,0x1
    80002b60:	00145413          	srli	s0,s0,0x1
    80002b64:	00050863          	beqz	a0,80002b74 <core_bench_state+0x7ac>
    80002b68:	00e44433          	xor	s0,s0,a4
    80002b6c:	03041413          	slli	s0,s0,0x30
    80002b70:	03045413          	srli	s0,s0,0x30
    80002b74:	00884833          	xor	a6,a6,s0
    80002b78:	00187813          	andi	a6,a6,1
    80002b7c:	0027d513          	srli	a0,a5,0x2
    80002b80:	00145413          	srli	s0,s0,0x1
    80002b84:	00080863          	beqz	a6,80002b94 <core_bench_state+0x7cc>
    80002b88:	00e44433          	xor	s0,s0,a4
    80002b8c:	03041413          	slli	s0,s0,0x30
    80002b90:	03045413          	srli	s0,s0,0x30
    80002b94:	00854533          	xor	a0,a0,s0
    80002b98:	00157513          	andi	a0,a0,1
    80002b9c:	0037d813          	srli	a6,a5,0x3
    80002ba0:	00145413          	srli	s0,s0,0x1
    80002ba4:	00050863          	beqz	a0,80002bb4 <core_bench_state+0x7ec>
    80002ba8:	00e44433          	xor	s0,s0,a4
    80002bac:	03041413          	slli	s0,s0,0x30
    80002bb0:	03045413          	srli	s0,s0,0x30
    80002bb4:	00884833          	xor	a6,a6,s0
    80002bb8:	00187813          	andi	a6,a6,1
    80002bbc:	0047d513          	srli	a0,a5,0x4
    80002bc0:	00145413          	srli	s0,s0,0x1
    80002bc4:	00080863          	beqz	a6,80002bd4 <core_bench_state+0x80c>
    80002bc8:	00e44433          	xor	s0,s0,a4
    80002bcc:	03041413          	slli	s0,s0,0x30
    80002bd0:	03045413          	srli	s0,s0,0x30
    80002bd4:	00854533          	xor	a0,a0,s0
    80002bd8:	00157513          	andi	a0,a0,1
    80002bdc:	0057d813          	srli	a6,a5,0x5
    80002be0:	00145413          	srli	s0,s0,0x1
    80002be4:	00050863          	beqz	a0,80002bf4 <core_bench_state+0x82c>
    80002be8:	00e44433          	xor	s0,s0,a4
    80002bec:	03041413          	slli	s0,s0,0x30
    80002bf0:	03045413          	srli	s0,s0,0x30
    80002bf4:	00884833          	xor	a6,a6,s0
    80002bf8:	00187813          	andi	a6,a6,1
    80002bfc:	0067d513          	srli	a0,a5,0x6
    80002c00:	00145413          	srli	s0,s0,0x1
    80002c04:	00080863          	beqz	a6,80002c14 <core_bench_state+0x84c>
    80002c08:	00e44433          	xor	s0,s0,a4
    80002c0c:	03041413          	slli	s0,s0,0x30
    80002c10:	03045413          	srli	s0,s0,0x30
    80002c14:	00854533          	xor	a0,a0,s0
    80002c18:	00157513          	andi	a0,a0,1
    80002c1c:	0077d793          	srli	a5,a5,0x7
    80002c20:	00145413          	srli	s0,s0,0x1
    80002c24:	00050863          	beqz	a0,80002c34 <core_bench_state+0x86c>
    80002c28:	00e44433          	xor	s0,s0,a4
    80002c2c:	03041413          	slli	s0,s0,0x30
    80002c30:	03045413          	srli	s0,s0,0x30
    80002c34:	00147513          	andi	a0,s0,1
    80002c38:	00145413          	srli	s0,s0,0x1
    80002c3c:	00f50863          	beq	a0,a5,80002c4c <core_bench_state+0x884>
    80002c40:	00e44433          	xor	s0,s0,a4
    80002c44:	03041413          	slli	s0,s0,0x30
    80002c48:	03045413          	srli	s0,s0,0x30
    80002c4c:	0085d793          	srli	a5,a1,0x8
    80002c50:	0087c533          	xor	a0,a5,s0
    80002c54:	00157513          	andi	a0,a0,1
    80002c58:	0095d593          	srli	a1,a1,0x9
    80002c5c:	00145413          	srli	s0,s0,0x1
    80002c60:	00050863          	beqz	a0,80002c70 <core_bench_state+0x8a8>
    80002c64:	00e44433          	xor	s0,s0,a4
    80002c68:	03041413          	slli	s0,s0,0x30
    80002c6c:	03045413          	srli	s0,s0,0x30
    80002c70:	0085c5b3          	xor	a1,a1,s0
    80002c74:	0015f593          	andi	a1,a1,1
    80002c78:	0027d513          	srli	a0,a5,0x2
    80002c7c:	00145413          	srli	s0,s0,0x1
    80002c80:	00058863          	beqz	a1,80002c90 <core_bench_state+0x8c8>
    80002c84:	00e44433          	xor	s0,s0,a4
    80002c88:	03041413          	slli	s0,s0,0x30
    80002c8c:	03045413          	srli	s0,s0,0x30
    80002c90:	008545b3          	xor	a1,a0,s0
    80002c94:	0015f593          	andi	a1,a1,1
    80002c98:	0037d513          	srli	a0,a5,0x3
    80002c9c:	00145413          	srli	s0,s0,0x1
    80002ca0:	00058863          	beqz	a1,80002cb0 <core_bench_state+0x8e8>
    80002ca4:	00e44433          	xor	s0,s0,a4
    80002ca8:	03041413          	slli	s0,s0,0x30
    80002cac:	03045413          	srli	s0,s0,0x30
    80002cb0:	00854533          	xor	a0,a0,s0
    80002cb4:	00157513          	andi	a0,a0,1
    80002cb8:	0047d593          	srli	a1,a5,0x4
    80002cbc:	00145413          	srli	s0,s0,0x1
    80002cc0:	00050863          	beqz	a0,80002cd0 <core_bench_state+0x908>
    80002cc4:	00e44433          	xor	s0,s0,a4
    80002cc8:	03041413          	slli	s0,s0,0x30
    80002ccc:	03045413          	srli	s0,s0,0x30
    80002cd0:	0085c5b3          	xor	a1,a1,s0
    80002cd4:	0015f593          	andi	a1,a1,1
    80002cd8:	0057d513          	srli	a0,a5,0x5
    80002cdc:	00145413          	srli	s0,s0,0x1
    80002ce0:	00058863          	beqz	a1,80002cf0 <core_bench_state+0x928>
    80002ce4:	00e44433          	xor	s0,s0,a4
    80002ce8:	03041413          	slli	s0,s0,0x30
    80002cec:	03045413          	srli	s0,s0,0x30
    80002cf0:	00854533          	xor	a0,a0,s0
    80002cf4:	00157513          	andi	a0,a0,1
    80002cf8:	0067d593          	srli	a1,a5,0x6
    80002cfc:	00145413          	srli	s0,s0,0x1
    80002d00:	00050863          	beqz	a0,80002d10 <core_bench_state+0x948>
    80002d04:	00e44433          	xor	s0,s0,a4
    80002d08:	03041413          	slli	s0,s0,0x30
    80002d0c:	03045413          	srli	s0,s0,0x30
    80002d10:	0085c5b3          	xor	a1,a1,s0
    80002d14:	0015f593          	andi	a1,a1,1
    80002d18:	0077d793          	srli	a5,a5,0x7
    80002d1c:	00145413          	srli	s0,s0,0x1
    80002d20:	00058863          	beqz	a1,80002d30 <core_bench_state+0x968>
    80002d24:	00e44433          	xor	s0,s0,a4
    80002d28:	03041413          	slli	s0,s0,0x30
    80002d2c:	03045413          	srli	s0,s0,0x30
    80002d30:	0087c7b3          	xor	a5,a5,s0
    80002d34:	0017f793          	andi	a5,a5,1
    80002d38:	00145413          	srli	s0,s0,0x1
    80002d3c:	00078863          	beqz	a5,80002d4c <core_bench_state+0x984>
    80002d40:	00e44433          	xor	s0,s0,a4
    80002d44:	03041413          	slli	s0,s0,0x30
    80002d48:	03045413          	srli	s0,s0,0x30
    80002d4c:	00468693          	addi	a3,a3,4
    80002d50:	00460613          	addi	a2,a2,4
    80002d54:	fe969063          	bne	a3,s1,80002534 <core_bench_state+0x16c>
    80002d58:	09813083          	ld	ra,152(sp)
    80002d5c:	00040513          	mv	a0,s0
    80002d60:	09013403          	ld	s0,144(sp)
    80002d64:	08813483          	ld	s1,136(sp)
    80002d68:	08013903          	ld	s2,128(sp)
    80002d6c:	07813983          	ld	s3,120(sp)
    80002d70:	07013a03          	ld	s4,112(sp)
    80002d74:	06813a83          	ld	s5,104(sp)
    80002d78:	06013b03          	ld	s6,96(sp)
    80002d7c:	05813b83          	ld	s7,88(sp)
    80002d80:	05013c03          	ld	s8,80(sp)
    80002d84:	0a010113          	addi	sp,sp,160
    80002d88:	00008067          	ret
    80002d8c:	0007c703          	lbu	a4,0(a5)
    80002d90:	016746b3          	xor	a3,a4,s6
    80002d94:	00c70463          	beq	a4,a2,80002d9c <core_bench_state+0x9d4>
    80002d98:	00d78023          	sb	a3,0(a5)
    80002d9c:	014787b3          	add	a5,a5,s4
    80002da0:	ff57e6e3          	bltu	a5,s5,80002d8c <core_bench_state+0x9c4>
    80002da4:	00094783          	lbu	a5,0(s2)
    80002da8:	f0079a63          	bnez	a5,800024bc <core_bench_state+0xf4>
    80002dac:	0200006f          	j	80002dcc <core_bench_state+0xa04>
    80002db0:	00094783          	lbu	a5,0(s2)
    80002db4:	0137c733          	xor	a4,a5,s3
    80002db8:	00d78463          	beq	a5,a3,80002dc0 <core_bench_state+0x9f8>
    80002dbc:	00e90023          	sb	a4,0(s2)
    80002dc0:	01490933          	add	s2,s2,s4
    80002dc4:	ff5966e3          	bltu	s2,s5,80002db0 <core_bench_state+0x9e8>
    80002dc8:	f5cff06f          	j	80002524 <core_bench_state+0x15c>
    80002dcc:	01213423          	sd	s2,8(sp)
    80002dd0:	f30ff06f          	j	80002500 <core_bench_state+0x138>
    80002dd4:	ee0b9463          	bnez	s7,800024bc <core_bench_state+0xf4>
    80002dd8:	f4cff06f          	j	80002524 <core_bench_state+0x15c>

0000000080002ddc <calc_func>:
    80002ddc:	fd010113          	addi	sp,sp,-48
    80002de0:	00913c23          	sd	s1,24(sp)
    80002de4:	00051483          	lh	s1,0(a0)
    80002de8:	02113423          	sd	ra,40(sp)
    80002dec:	02813023          	sd	s0,32(sp)
    80002df0:	4074d79b          	sraiw	a5,s1,0x7
    80002df4:	01213823          	sd	s2,16(sp)
    80002df8:	01313423          	sd	s3,8(sp)
    80002dfc:	0017f793          	andi	a5,a5,1
    80002e00:	02078263          	beqz	a5,80002e24 <calc_func+0x48>
    80002e04:	02813083          	ld	ra,40(sp)
    80002e08:	02013403          	ld	s0,32(sp)
    80002e0c:	01013903          	ld	s2,16(sp)
    80002e10:	00813983          	ld	s3,8(sp)
    80002e14:	07f4f513          	andi	a0,s1,127
    80002e18:	01813483          	ld	s1,24(sp)
    80002e1c:	03010113          	addi	sp,sp,48
    80002e20:	00008067          	ret
    80002e24:	4034d79b          	sraiw	a5,s1,0x3
    80002e28:	00f7f793          	andi	a5,a5,15
    80002e2c:	00479713          	slli	a4,a5,0x4
    80002e30:	0074f693          	andi	a3,s1,7
    80002e34:	0605d403          	lhu	s0,96(a1)
    80002e38:	00050993          	mv	s3,a0
    80002e3c:	00058913          	mv	s2,a1
    80002e40:	00f76733          	or	a4,a4,a5
    80002e44:	56068e63          	beqz	a3,800033c0 <calc_func+0x5e4>
    80002e48:	00100793          	li	a5,1
    80002e4c:	56f69263          	bne	a3,a5,800033b0 <calc_func+0x5d4>
    80002e50:	0505b683          	ld	a3,80(a1)
    80002e54:	0485b603          	ld	a2,72(a1)
    80002e58:	04092503          	lw	a0,64(s2)
    80002e5c:	0585b583          	ld	a1,88(a1)
    80002e60:	f38fd0ef          	jal	ra,80000598 <matrix_test>
    80002e64:	0ff57793          	zext.b	a5,a0
    80002e68:	0087c633          	xor	a2,a5,s0
    80002e6c:	03051713          	slli	a4,a0,0x30
    80002e70:	00167613          	andi	a2,a2,1
    80002e74:	03075713          	srli	a4,a4,0x30
    80002e78:	0017d693          	srli	a3,a5,0x1
    80002e7c:	00145513          	srli	a0,s0,0x1
    80002e80:	00060c63          	beqz	a2,80002e98 <calc_func+0xbc>
    80002e84:	ffffa637          	lui	a2,0xffffa
    80002e88:	00160613          	addi	a2,a2,1 # ffffffffffffa001 <_pmem_end+0xffffffff77ffa001>
    80002e8c:	00c54533          	xor	a0,a0,a2
    80002e90:	03051513          	slli	a0,a0,0x30
    80002e94:	03055513          	srli	a0,a0,0x30
    80002e98:	00a6c6b3          	xor	a3,a3,a0
    80002e9c:	0016f613          	andi	a2,a3,1
    80002ea0:	00155513          	srli	a0,a0,0x1
    80002ea4:	0027d693          	srli	a3,a5,0x2
    80002ea8:	00060c63          	beqz	a2,80002ec0 <calc_func+0xe4>
    80002eac:	ffffa637          	lui	a2,0xffffa
    80002eb0:	00160613          	addi	a2,a2,1 # ffffffffffffa001 <_pmem_end+0xffffffff77ffa001>
    80002eb4:	00c54533          	xor	a0,a0,a2
    80002eb8:	03051513          	slli	a0,a0,0x30
    80002ebc:	03055513          	srli	a0,a0,0x30
    80002ec0:	00a6c6b3          	xor	a3,a3,a0
    80002ec4:	0016f693          	andi	a3,a3,1
    80002ec8:	0037d613          	srli	a2,a5,0x3
    80002ecc:	00155513          	srli	a0,a0,0x1
    80002ed0:	00068c63          	beqz	a3,80002ee8 <calc_func+0x10c>
    80002ed4:	ffffa6b7          	lui	a3,0xffffa
    80002ed8:	00168693          	addi	a3,a3,1 # ffffffffffffa001 <_pmem_end+0xffffffff77ffa001>
    80002edc:	00d54533          	xor	a0,a0,a3
    80002ee0:	03051513          	slli	a0,a0,0x30
    80002ee4:	03055513          	srli	a0,a0,0x30
    80002ee8:	00a64633          	xor	a2,a2,a0
    80002eec:	00167613          	andi	a2,a2,1
    80002ef0:	0047d693          	srli	a3,a5,0x4
    80002ef4:	00155513          	srli	a0,a0,0x1
    80002ef8:	00060c63          	beqz	a2,80002f10 <calc_func+0x134>
    80002efc:	ffffa637          	lui	a2,0xffffa
    80002f00:	00160613          	addi	a2,a2,1 # ffffffffffffa001 <_pmem_end+0xffffffff77ffa001>
    80002f04:	00c54533          	xor	a0,a0,a2
    80002f08:	03051513          	slli	a0,a0,0x30
    80002f0c:	03055513          	srli	a0,a0,0x30
    80002f10:	00a6c6b3          	xor	a3,a3,a0
    80002f14:	0016f693          	andi	a3,a3,1
    80002f18:	0057d613          	srli	a2,a5,0x5
    80002f1c:	00155513          	srli	a0,a0,0x1
    80002f20:	00068c63          	beqz	a3,80002f38 <calc_func+0x15c>
    80002f24:	ffffa6b7          	lui	a3,0xffffa
    80002f28:	00168693          	addi	a3,a3,1 # ffffffffffffa001 <_pmem_end+0xffffffff77ffa001>
    80002f2c:	00d54533          	xor	a0,a0,a3
    80002f30:	03051513          	slli	a0,a0,0x30
    80002f34:	03055513          	srli	a0,a0,0x30
    80002f38:	00a64633          	xor	a2,a2,a0
    80002f3c:	00167613          	andi	a2,a2,1
    80002f40:	0067d693          	srli	a3,a5,0x6
    80002f44:	00155513          	srli	a0,a0,0x1
    80002f48:	00060c63          	beqz	a2,80002f60 <calc_func+0x184>
    80002f4c:	ffffa637          	lui	a2,0xffffa
    80002f50:	00160613          	addi	a2,a2,1 # ffffffffffffa001 <_pmem_end+0xffffffff77ffa001>
    80002f54:	00c54533          	xor	a0,a0,a2
    80002f58:	03051513          	slli	a0,a0,0x30
    80002f5c:	03055513          	srli	a0,a0,0x30
    80002f60:	00a6c6b3          	xor	a3,a3,a0
    80002f64:	0016f693          	andi	a3,a3,1
    80002f68:	0077d793          	srli	a5,a5,0x7
    80002f6c:	00155513          	srli	a0,a0,0x1
    80002f70:	00068c63          	beqz	a3,80002f88 <calc_func+0x1ac>
    80002f74:	ffffa6b7          	lui	a3,0xffffa
    80002f78:	00168693          	addi	a3,a3,1 # ffffffffffffa001 <_pmem_end+0xffffffff77ffa001>
    80002f7c:	00d54533          	xor	a0,a0,a3
    80002f80:	03051513          	slli	a0,a0,0x30
    80002f84:	03055513          	srli	a0,a0,0x30
    80002f88:	00157693          	andi	a3,a0,1
    80002f8c:	00155513          	srli	a0,a0,0x1
    80002f90:	00f68c63          	beq	a3,a5,80002fa8 <calc_func+0x1cc>
    80002f94:	ffffa7b7          	lui	a5,0xffffa
    80002f98:	00178793          	addi	a5,a5,1 # ffffffffffffa001 <_pmem_end+0xffffffff77ffa001>
    80002f9c:	00f54533          	xor	a0,a0,a5
    80002fa0:	03051513          	slli	a0,a0,0x30
    80002fa4:	03055513          	srli	a0,a0,0x30
    80002fa8:	00875793          	srli	a5,a4,0x8
    80002fac:	00a7c6b3          	xor	a3,a5,a0
    80002fb0:	0016f693          	andi	a3,a3,1
    80002fb4:	00975713          	srli	a4,a4,0x9
    80002fb8:	00155513          	srli	a0,a0,0x1
    80002fbc:	00068c63          	beqz	a3,80002fd4 <calc_func+0x1f8>
    80002fc0:	ffffa6b7          	lui	a3,0xffffa
    80002fc4:	00168693          	addi	a3,a3,1 # ffffffffffffa001 <_pmem_end+0xffffffff77ffa001>
    80002fc8:	00d54533          	xor	a0,a0,a3
    80002fcc:	03051513          	slli	a0,a0,0x30
    80002fd0:	03055513          	srli	a0,a0,0x30
    80002fd4:	00a74733          	xor	a4,a4,a0
    80002fd8:	00177713          	andi	a4,a4,1
    80002fdc:	0027d693          	srli	a3,a5,0x2
    80002fe0:	00155513          	srli	a0,a0,0x1
    80002fe4:	00070c63          	beqz	a4,80002ffc <calc_func+0x220>
    80002fe8:	ffffa737          	lui	a4,0xffffa
    80002fec:	00170713          	addi	a4,a4,1 # ffffffffffffa001 <_pmem_end+0xffffffff77ffa001>
    80002ff0:	00e54533          	xor	a0,a0,a4
    80002ff4:	03051513          	slli	a0,a0,0x30
    80002ff8:	03055513          	srli	a0,a0,0x30
    80002ffc:	00a6c733          	xor	a4,a3,a0
    80003000:	00177713          	andi	a4,a4,1
    80003004:	0037d693          	srli	a3,a5,0x3
    80003008:	00155513          	srli	a0,a0,0x1
    8000300c:	00070c63          	beqz	a4,80003024 <calc_func+0x248>
    80003010:	ffffa737          	lui	a4,0xffffa
    80003014:	00170713          	addi	a4,a4,1 # ffffffffffffa001 <_pmem_end+0xffffffff77ffa001>
    80003018:	00e54533          	xor	a0,a0,a4
    8000301c:	03051513          	slli	a0,a0,0x30
    80003020:	03055513          	srli	a0,a0,0x30
    80003024:	00a6c6b3          	xor	a3,a3,a0
    80003028:	0016f693          	andi	a3,a3,1
    8000302c:	0047d713          	srli	a4,a5,0x4
    80003030:	00155513          	srli	a0,a0,0x1
    80003034:	00068c63          	beqz	a3,8000304c <calc_func+0x270>
    80003038:	ffffa6b7          	lui	a3,0xffffa
    8000303c:	00168693          	addi	a3,a3,1 # ffffffffffffa001 <_pmem_end+0xffffffff77ffa001>
    80003040:	00d54533          	xor	a0,a0,a3
    80003044:	03051513          	slli	a0,a0,0x30
    80003048:	03055513          	srli	a0,a0,0x30
    8000304c:	00a74733          	xor	a4,a4,a0
    80003050:	00177713          	andi	a4,a4,1
    80003054:	0057d693          	srli	a3,a5,0x5
    80003058:	00155513          	srli	a0,a0,0x1
    8000305c:	00070c63          	beqz	a4,80003074 <calc_func+0x298>
    80003060:	ffffa737          	lui	a4,0xffffa
    80003064:	00170713          	addi	a4,a4,1 # ffffffffffffa001 <_pmem_end+0xffffffff77ffa001>
    80003068:	00e54533          	xor	a0,a0,a4
    8000306c:	03051513          	slli	a0,a0,0x30
    80003070:	03055513          	srli	a0,a0,0x30
    80003074:	00a6c6b3          	xor	a3,a3,a0
    80003078:	0016f693          	andi	a3,a3,1
    8000307c:	0067d713          	srli	a4,a5,0x6
    80003080:	00155513          	srli	a0,a0,0x1
    80003084:	00068c63          	beqz	a3,8000309c <calc_func+0x2c0>
    80003088:	ffffa6b7          	lui	a3,0xffffa
    8000308c:	00168693          	addi	a3,a3,1 # ffffffffffffa001 <_pmem_end+0xffffffff77ffa001>
    80003090:	00d54533          	xor	a0,a0,a3
    80003094:	03051513          	slli	a0,a0,0x30
    80003098:	03055513          	srli	a0,a0,0x30
    8000309c:	00a74733          	xor	a4,a4,a0
    800030a0:	00177713          	andi	a4,a4,1
    800030a4:	0077d793          	srli	a5,a5,0x7
    800030a8:	00155513          	srli	a0,a0,0x1
    800030ac:	00070c63          	beqz	a4,800030c4 <calc_func+0x2e8>
    800030b0:	ffffa737          	lui	a4,0xffffa
    800030b4:	00170713          	addi	a4,a4,1 # ffffffffffffa001 <_pmem_end+0xffffffff77ffa001>
    800030b8:	00e54533          	xor	a0,a0,a4
    800030bc:	03051513          	slli	a0,a0,0x30
    800030c0:	03055513          	srli	a0,a0,0x30
    800030c4:	00a7c7b3          	xor	a5,a5,a0
    800030c8:	0017f793          	andi	a5,a5,1
    800030cc:	00155513          	srli	a0,a0,0x1
    800030d0:	00078c63          	beqz	a5,800030e8 <calc_func+0x30c>
    800030d4:	ffffa7b7          	lui	a5,0xffffa
    800030d8:	00178793          	addi	a5,a5,1 # ffffffffffffa001 <_pmem_end+0xffffffff77ffa001>
    800030dc:	00f547b3          	xor	a5,a0,a5
    800030e0:	03079513          	slli	a0,a5,0x30
    800030e4:	03055513          	srli	a0,a0,0x30
    800030e8:	06495783          	lhu	a5,100(s2)
    800030ec:	0105171b          	slliw	a4,a0,0x10
    800030f0:	06095403          	lhu	s0,96(s2)
    800030f4:	4107571b          	sraiw	a4,a4,0x10
    800030f8:	00079463          	bnez	a5,80003100 <calc_func+0x324>
    800030fc:	06a91223          	sh	a0,100(s2)
    80003100:	0ff77693          	zext.b	a3,a4
    80003104:	0086c5b3          	xor	a1,a3,s0
    80003108:	0015f593          	andi	a1,a1,1
    8000310c:	0016d613          	srli	a2,a3,0x1
    80003110:	00145793          	srli	a5,s0,0x1
    80003114:	00058c63          	beqz	a1,8000312c <calc_func+0x350>
    80003118:	ffffa5b7          	lui	a1,0xffffa
    8000311c:	00158593          	addi	a1,a1,1 # ffffffffffffa001 <_pmem_end+0xffffffff77ffa001>
    80003120:	00b7c7b3          	xor	a5,a5,a1
    80003124:	03079793          	slli	a5,a5,0x30
    80003128:	0307d793          	srli	a5,a5,0x30
    8000312c:	00f64633          	xor	a2,a2,a5
    80003130:	00167593          	andi	a1,a2,1
    80003134:	0017d793          	srli	a5,a5,0x1
    80003138:	0026d613          	srli	a2,a3,0x2
    8000313c:	00058c63          	beqz	a1,80003154 <calc_func+0x378>
    80003140:	ffffa5b7          	lui	a1,0xffffa
    80003144:	00158593          	addi	a1,a1,1 # ffffffffffffa001 <_pmem_end+0xffffffff77ffa001>
    80003148:	00b7c7b3          	xor	a5,a5,a1
    8000314c:	03079793          	slli	a5,a5,0x30
    80003150:	0307d793          	srli	a5,a5,0x30
    80003154:	00f64633          	xor	a2,a2,a5
    80003158:	00167613          	andi	a2,a2,1
    8000315c:	0036d593          	srli	a1,a3,0x3
    80003160:	0017d793          	srli	a5,a5,0x1
    80003164:	00060c63          	beqz	a2,8000317c <calc_func+0x3a0>
    80003168:	ffffa637          	lui	a2,0xffffa
    8000316c:	00160613          	addi	a2,a2,1 # ffffffffffffa001 <_pmem_end+0xffffffff77ffa001>
    80003170:	00c7c7b3          	xor	a5,a5,a2
    80003174:	03079793          	slli	a5,a5,0x30
    80003178:	0307d793          	srli	a5,a5,0x30
    8000317c:	00f5c5b3          	xor	a1,a1,a5
    80003180:	0015f593          	andi	a1,a1,1
    80003184:	0046d613          	srli	a2,a3,0x4
    80003188:	0017d793          	srli	a5,a5,0x1
    8000318c:	00058c63          	beqz	a1,800031a4 <calc_func+0x3c8>
    80003190:	ffffa5b7          	lui	a1,0xffffa
    80003194:	00158593          	addi	a1,a1,1 # ffffffffffffa001 <_pmem_end+0xffffffff77ffa001>
    80003198:	00b7c7b3          	xor	a5,a5,a1
    8000319c:	03079793          	slli	a5,a5,0x30
    800031a0:	0307d793          	srli	a5,a5,0x30
    800031a4:	00f64633          	xor	a2,a2,a5
    800031a8:	00167613          	andi	a2,a2,1
    800031ac:	0056d593          	srli	a1,a3,0x5
    800031b0:	0017d793          	srli	a5,a5,0x1
    800031b4:	00060c63          	beqz	a2,800031cc <calc_func+0x3f0>
    800031b8:	ffffa637          	lui	a2,0xffffa
    800031bc:	00160613          	addi	a2,a2,1 # ffffffffffffa001 <_pmem_end+0xffffffff77ffa001>
    800031c0:	00c7c7b3          	xor	a5,a5,a2
    800031c4:	03079793          	slli	a5,a5,0x30
    800031c8:	0307d793          	srli	a5,a5,0x30
    800031cc:	00f5c5b3          	xor	a1,a1,a5
    800031d0:	0015f593          	andi	a1,a1,1
    800031d4:	0066d613          	srli	a2,a3,0x6
    800031d8:	0017d793          	srli	a5,a5,0x1
    800031dc:	00058c63          	beqz	a1,800031f4 <calc_func+0x418>
    800031e0:	ffffa5b7          	lui	a1,0xffffa
    800031e4:	00158593          	addi	a1,a1,1 # ffffffffffffa001 <_pmem_end+0xffffffff77ffa001>
    800031e8:	00b7c7b3          	xor	a5,a5,a1
    800031ec:	03079793          	slli	a5,a5,0x30
    800031f0:	0307d793          	srli	a5,a5,0x30
    800031f4:	00f64633          	xor	a2,a2,a5
    800031f8:	00167613          	andi	a2,a2,1
    800031fc:	0076d693          	srli	a3,a3,0x7
    80003200:	0017d793          	srli	a5,a5,0x1
    80003204:	00060c63          	beqz	a2,8000321c <calc_func+0x440>
    80003208:	ffffa637          	lui	a2,0xffffa
    8000320c:	00160613          	addi	a2,a2,1 # ffffffffffffa001 <_pmem_end+0xffffffff77ffa001>
    80003210:	00c7c7b3          	xor	a5,a5,a2
    80003214:	03079793          	slli	a5,a5,0x30
    80003218:	0307d793          	srli	a5,a5,0x30
    8000321c:	0017f613          	andi	a2,a5,1
    80003220:	0017d793          	srli	a5,a5,0x1
    80003224:	00d60c63          	beq	a2,a3,8000323c <calc_func+0x460>
    80003228:	ffffa6b7          	lui	a3,0xffffa
    8000322c:	00168693          	addi	a3,a3,1 # ffffffffffffa001 <_pmem_end+0xffffffff77ffa001>
    80003230:	00d7c7b3          	xor	a5,a5,a3
    80003234:	03079793          	slli	a5,a5,0x30
    80003238:	0307d793          	srli	a5,a5,0x30
    8000323c:	0085551b          	srliw	a0,a0,0x8
    80003240:	0ff57513          	zext.b	a0,a0
    80003244:	00f546b3          	xor	a3,a0,a5
    80003248:	0016f693          	andi	a3,a3,1
    8000324c:	00155613          	srli	a2,a0,0x1
    80003250:	0017d793          	srli	a5,a5,0x1
    80003254:	00068c63          	beqz	a3,8000326c <calc_func+0x490>
    80003258:	ffffa6b7          	lui	a3,0xffffa
    8000325c:	00168693          	addi	a3,a3,1 # ffffffffffffa001 <_pmem_end+0xffffffff77ffa001>
    80003260:	00d7c7b3          	xor	a5,a5,a3
    80003264:	03079793          	slli	a5,a5,0x30
    80003268:	0307d793          	srli	a5,a5,0x30
    8000326c:	00f64633          	xor	a2,a2,a5
    80003270:	00167613          	andi	a2,a2,1
    80003274:	00255693          	srli	a3,a0,0x2
    80003278:	0017d793          	srli	a5,a5,0x1
    8000327c:	00060c63          	beqz	a2,80003294 <calc_func+0x4b8>
    80003280:	ffffa637          	lui	a2,0xffffa
    80003284:	00160613          	addi	a2,a2,1 # ffffffffffffa001 <_pmem_end+0xffffffff77ffa001>
    80003288:	00c7c7b3          	xor	a5,a5,a2
    8000328c:	03079793          	slli	a5,a5,0x30
    80003290:	0307d793          	srli	a5,a5,0x30
    80003294:	00f6c6b3          	xor	a3,a3,a5
    80003298:	0016f693          	andi	a3,a3,1
    8000329c:	00355613          	srli	a2,a0,0x3
    800032a0:	0017d793          	srli	a5,a5,0x1
    800032a4:	00068c63          	beqz	a3,800032bc <calc_func+0x4e0>
    800032a8:	ffffa6b7          	lui	a3,0xffffa
    800032ac:	00168693          	addi	a3,a3,1 # ffffffffffffa001 <_pmem_end+0xffffffff77ffa001>
    800032b0:	00d7c7b3          	xor	a5,a5,a3
    800032b4:	03079793          	slli	a5,a5,0x30
    800032b8:	0307d793          	srli	a5,a5,0x30
    800032bc:	00f64633          	xor	a2,a2,a5
    800032c0:	00167613          	andi	a2,a2,1
    800032c4:	00455693          	srli	a3,a0,0x4
    800032c8:	0017d793          	srli	a5,a5,0x1
    800032cc:	00060c63          	beqz	a2,800032e4 <calc_func+0x508>
    800032d0:	ffffa637          	lui	a2,0xffffa
    800032d4:	00160613          	addi	a2,a2,1 # ffffffffffffa001 <_pmem_end+0xffffffff77ffa001>
    800032d8:	00c7c7b3          	xor	a5,a5,a2
    800032dc:	03079793          	slli	a5,a5,0x30
    800032e0:	0307d793          	srli	a5,a5,0x30
    800032e4:	00f6c6b3          	xor	a3,a3,a5
    800032e8:	0016f693          	andi	a3,a3,1
    800032ec:	00555613          	srli	a2,a0,0x5
    800032f0:	0017d793          	srli	a5,a5,0x1
    800032f4:	00068c63          	beqz	a3,8000330c <calc_func+0x530>
    800032f8:	ffffa6b7          	lui	a3,0xffffa
    800032fc:	00168693          	addi	a3,a3,1 # ffffffffffffa001 <_pmem_end+0xffffffff77ffa001>
    80003300:	00d7c7b3          	xor	a5,a5,a3
    80003304:	03079793          	slli	a5,a5,0x30
    80003308:	0307d793          	srli	a5,a5,0x30
    8000330c:	00f64633          	xor	a2,a2,a5
    80003310:	00167613          	andi	a2,a2,1
    80003314:	00655693          	srli	a3,a0,0x6
    80003318:	0017d793          	srli	a5,a5,0x1
    8000331c:	00060c63          	beqz	a2,80003334 <calc_func+0x558>
    80003320:	ffffa637          	lui	a2,0xffffa
    80003324:	00160613          	addi	a2,a2,1 # ffffffffffffa001 <_pmem_end+0xffffffff77ffa001>
    80003328:	00c7c7b3          	xor	a5,a5,a2
    8000332c:	03079793          	slli	a5,a5,0x30
    80003330:	0307d793          	srli	a5,a5,0x30
    80003334:	00f6c6b3          	xor	a3,a3,a5
    80003338:	0016f693          	andi	a3,a3,1
    8000333c:	00755513          	srli	a0,a0,0x7
    80003340:	0017d793          	srli	a5,a5,0x1
    80003344:	00068c63          	beqz	a3,8000335c <calc_func+0x580>
    80003348:	ffffa6b7          	lui	a3,0xffffa
    8000334c:	00168693          	addi	a3,a3,1 # ffffffffffffa001 <_pmem_end+0xffffffff77ffa001>
    80003350:	00d7c7b3          	xor	a5,a5,a3
    80003354:	03079793          	slli	a5,a5,0x30
    80003358:	0307d793          	srli	a5,a5,0x30
    8000335c:	0017f693          	andi	a3,a5,1
    80003360:	0017d793          	srli	a5,a5,0x1
    80003364:	00a68c63          	beq	a3,a0,8000337c <calc_func+0x5a0>
    80003368:	ffffa6b7          	lui	a3,0xffffa
    8000336c:	00168693          	addi	a3,a3,1 # ffffffffffffa001 <_pmem_end+0xffffffff77ffa001>
    80003370:	00d7c7b3          	xor	a5,a5,a3
    80003374:	03079793          	slli	a5,a5,0x30
    80003378:	0307d793          	srli	a5,a5,0x30
    8000337c:	07f77513          	andi	a0,a4,127
    80003380:	f004f493          	andi	s1,s1,-256
    80003384:	02813083          	ld	ra,40(sp)
    80003388:	02013403          	ld	s0,32(sp)
    8000338c:	009564b3          	or	s1,a0,s1
    80003390:	06f91023          	sh	a5,96(s2)
    80003394:	0804e493          	ori	s1,s1,128
    80003398:	00999023          	sh	s1,0(s3)
    8000339c:	01013903          	ld	s2,16(sp)
    800033a0:	01813483          	ld	s1,24(sp)
    800033a4:	00813983          	ld	s3,8(sp)
    800033a8:	03010113          	addi	sp,sp,48
    800033ac:	00008067          	ret
    800033b0:	03049513          	slli	a0,s1,0x30
    800033b4:	03055513          	srli	a0,a0,0x30
    800033b8:	00048713          	mv	a4,s1
    800033bc:	d45ff06f          	j	80003100 <calc_func+0x324>
    800033c0:	02200793          	li	a5,34
    800033c4:	00070813          	mv	a6,a4
    800033c8:	00f75463          	bge	a4,a5,800033d0 <calc_func+0x5f4>
    800033cc:	02200813          	li	a6,34
    800033d0:	00291683          	lh	a3,2(s2)
    800033d4:	00091603          	lh	a2,0(s2)
    800033d8:	02093583          	ld	a1,32(s2)
    800033dc:	02892503          	lw	a0,40(s2)
    800033e0:	00040793          	mv	a5,s0
    800033e4:	0ff87713          	zext.b	a4,a6
    800033e8:	fe1fe0ef          	jal	ra,800023c8 <core_bench_state>
    800033ec:	06695783          	lhu	a5,102(s2)
    800033f0:	0105171b          	slliw	a4,a0,0x10
    800033f4:	06095403          	lhu	s0,96(s2)
    800033f8:	4107571b          	sraiw	a4,a4,0x10
    800033fc:	d00792e3          	bnez	a5,80003100 <calc_func+0x324>
    80003400:	06a91323          	sh	a0,102(s2)
    80003404:	cfdff06f          	j	80003100 <calc_func+0x324>

0000000080003408 <cmp_complex>:
    80003408:	fc010113          	addi	sp,sp,-64
    8000340c:	03213023          	sd	s2,32(sp)
    80003410:	00051903          	lh	s2,0(a0)
    80003414:	02913423          	sd	s1,40(sp)
    80003418:	01313c23          	sd	s3,24(sp)
    8000341c:	4079579b          	sraiw	a5,s2,0x7
    80003420:	01413823          	sd	s4,16(sp)
    80003424:	02113c23          	sd	ra,56(sp)
    80003428:	02813823          	sd	s0,48(sp)
    8000342c:	01513423          	sd	s5,8(sp)
    80003430:	0017f793          	andi	a5,a5,1
    80003434:	00058993          	mv	s3,a1
    80003438:	00060493          	mv	s1,a2
    8000343c:	07f97a13          	andi	s4,s2,127
    80003440:	2c079663          	bnez	a5,8000370c <cmp_complex+0x304>
    80003444:	4039571b          	sraiw	a4,s2,0x3
    80003448:	00f77713          	andi	a4,a4,15
    8000344c:	00471693          	slli	a3,a4,0x4
    80003450:	00797793          	andi	a5,s2,7
    80003454:	06065403          	lhu	s0,96(a2)
    80003458:	00050a93          	mv	s5,a0
    8000345c:	00d76733          	or	a4,a4,a3
    80003460:	0a0784e3          	beqz	a5,80003d08 <cmp_complex+0x900>
    80003464:	00100693          	li	a3,1
    80003468:	0ed784e3          	beq	a5,a3,80003d50 <cmp_complex+0x948>
    8000346c:	03091513          	slli	a0,s2,0x30
    80003470:	03055513          	srli	a0,a0,0x30
    80003474:	00090a13          	mv	s4,s2
    80003478:	0ffa7713          	zext.b	a4,s4
    8000347c:	00874633          	xor	a2,a4,s0
    80003480:	00167613          	andi	a2,a2,1
    80003484:	00175693          	srli	a3,a4,0x1
    80003488:	00145793          	srli	a5,s0,0x1
    8000348c:	00060c63          	beqz	a2,800034a4 <cmp_complex+0x9c>
    80003490:	ffffa637          	lui	a2,0xffffa
    80003494:	00160613          	addi	a2,a2,1 # ffffffffffffa001 <_pmem_end+0xffffffff77ffa001>
    80003498:	00c7c7b3          	xor	a5,a5,a2
    8000349c:	03079793          	slli	a5,a5,0x30
    800034a0:	0307d793          	srli	a5,a5,0x30
    800034a4:	00f6c6b3          	xor	a3,a3,a5
    800034a8:	0016f613          	andi	a2,a3,1
    800034ac:	0017d793          	srli	a5,a5,0x1
    800034b0:	00275693          	srli	a3,a4,0x2
    800034b4:	00060c63          	beqz	a2,800034cc <cmp_complex+0xc4>
    800034b8:	ffffa637          	lui	a2,0xffffa
    800034bc:	00160613          	addi	a2,a2,1 # ffffffffffffa001 <_pmem_end+0xffffffff77ffa001>
    800034c0:	00c7c7b3          	xor	a5,a5,a2
    800034c4:	03079793          	slli	a5,a5,0x30
    800034c8:	0307d793          	srli	a5,a5,0x30
    800034cc:	00f6c6b3          	xor	a3,a3,a5
    800034d0:	0016f693          	andi	a3,a3,1
    800034d4:	00375613          	srli	a2,a4,0x3
    800034d8:	0017d793          	srli	a5,a5,0x1
    800034dc:	00068c63          	beqz	a3,800034f4 <cmp_complex+0xec>
    800034e0:	ffffa6b7          	lui	a3,0xffffa
    800034e4:	00168693          	addi	a3,a3,1 # ffffffffffffa001 <_pmem_end+0xffffffff77ffa001>
    800034e8:	00d7c7b3          	xor	a5,a5,a3
    800034ec:	03079793          	slli	a5,a5,0x30
    800034f0:	0307d793          	srli	a5,a5,0x30
    800034f4:	00f64633          	xor	a2,a2,a5
    800034f8:	00167613          	andi	a2,a2,1
    800034fc:	00475693          	srli	a3,a4,0x4
    80003500:	0017d793          	srli	a5,a5,0x1
    80003504:	00060c63          	beqz	a2,8000351c <cmp_complex+0x114>
    80003508:	ffffa637          	lui	a2,0xffffa
    8000350c:	00160613          	addi	a2,a2,1 # ffffffffffffa001 <_pmem_end+0xffffffff77ffa001>
    80003510:	00c7c7b3          	xor	a5,a5,a2
    80003514:	03079793          	slli	a5,a5,0x30
    80003518:	0307d793          	srli	a5,a5,0x30
    8000351c:	00f6c6b3          	xor	a3,a3,a5
    80003520:	0016f693          	andi	a3,a3,1
    80003524:	00575613          	srli	a2,a4,0x5
    80003528:	0017d793          	srli	a5,a5,0x1
    8000352c:	00068c63          	beqz	a3,80003544 <cmp_complex+0x13c>
    80003530:	ffffa6b7          	lui	a3,0xffffa
    80003534:	00168693          	addi	a3,a3,1 # ffffffffffffa001 <_pmem_end+0xffffffff77ffa001>
    80003538:	00d7c7b3          	xor	a5,a5,a3
    8000353c:	03079793          	slli	a5,a5,0x30
    80003540:	0307d793          	srli	a5,a5,0x30
    80003544:	00f64633          	xor	a2,a2,a5
    80003548:	00167613          	andi	a2,a2,1
    8000354c:	00675693          	srli	a3,a4,0x6
    80003550:	0017d793          	srli	a5,a5,0x1
    80003554:	00060c63          	beqz	a2,8000356c <cmp_complex+0x164>
    80003558:	ffffa637          	lui	a2,0xffffa
    8000355c:	00160613          	addi	a2,a2,1 # ffffffffffffa001 <_pmem_end+0xffffffff77ffa001>
    80003560:	00c7c7b3          	xor	a5,a5,a2
    80003564:	03079793          	slli	a5,a5,0x30
    80003568:	0307d793          	srli	a5,a5,0x30
    8000356c:	00f6c6b3          	xor	a3,a3,a5
    80003570:	0016f693          	andi	a3,a3,1
    80003574:	00775713          	srli	a4,a4,0x7
    80003578:	0017d793          	srli	a5,a5,0x1
    8000357c:	00068c63          	beqz	a3,80003594 <cmp_complex+0x18c>
    80003580:	ffffa6b7          	lui	a3,0xffffa
    80003584:	00168693          	addi	a3,a3,1 # ffffffffffffa001 <_pmem_end+0xffffffff77ffa001>
    80003588:	00d7c7b3          	xor	a5,a5,a3
    8000358c:	03079793          	slli	a5,a5,0x30
    80003590:	0307d793          	srli	a5,a5,0x30
    80003594:	0017f693          	andi	a3,a5,1
    80003598:	0017d793          	srli	a5,a5,0x1
    8000359c:	00e68c63          	beq	a3,a4,800035b4 <cmp_complex+0x1ac>
    800035a0:	ffffa737          	lui	a4,0xffffa
    800035a4:	00170713          	addi	a4,a4,1 # ffffffffffffa001 <_pmem_end+0xffffffff77ffa001>
    800035a8:	00e7c7b3          	xor	a5,a5,a4
    800035ac:	03079793          	slli	a5,a5,0x30
    800035b0:	0307d793          	srli	a5,a5,0x30
    800035b4:	0085551b          	srliw	a0,a0,0x8
    800035b8:	0ff57513          	zext.b	a0,a0
    800035bc:	00f54733          	xor	a4,a0,a5
    800035c0:	00177713          	andi	a4,a4,1
    800035c4:	00155693          	srli	a3,a0,0x1
    800035c8:	0017d793          	srli	a5,a5,0x1
    800035cc:	00070c63          	beqz	a4,800035e4 <cmp_complex+0x1dc>
    800035d0:	ffffa737          	lui	a4,0xffffa
    800035d4:	00170713          	addi	a4,a4,1 # ffffffffffffa001 <_pmem_end+0xffffffff77ffa001>
    800035d8:	00e7c7b3          	xor	a5,a5,a4
    800035dc:	03079793          	slli	a5,a5,0x30
    800035e0:	0307d793          	srli	a5,a5,0x30
    800035e4:	00f6c6b3          	xor	a3,a3,a5
    800035e8:	0016f693          	andi	a3,a3,1
    800035ec:	00255713          	srli	a4,a0,0x2
    800035f0:	0017d793          	srli	a5,a5,0x1
    800035f4:	00068c63          	beqz	a3,8000360c <cmp_complex+0x204>
    800035f8:	ffffa6b7          	lui	a3,0xffffa
    800035fc:	00168693          	addi	a3,a3,1 # ffffffffffffa001 <_pmem_end+0xffffffff77ffa001>
    80003600:	00d7c7b3          	xor	a5,a5,a3
    80003604:	03079793          	slli	a5,a5,0x30
    80003608:	0307d793          	srli	a5,a5,0x30
    8000360c:	00f74733          	xor	a4,a4,a5
    80003610:	00177713          	andi	a4,a4,1
    80003614:	00355693          	srli	a3,a0,0x3
    80003618:	0017d793          	srli	a5,a5,0x1
    8000361c:	00070c63          	beqz	a4,80003634 <cmp_complex+0x22c>
    80003620:	ffffa737          	lui	a4,0xffffa
    80003624:	00170713          	addi	a4,a4,1 # ffffffffffffa001 <_pmem_end+0xffffffff77ffa001>
    80003628:	00e7c7b3          	xor	a5,a5,a4
    8000362c:	03079793          	slli	a5,a5,0x30
    80003630:	0307d793          	srli	a5,a5,0x30
    80003634:	00f6c6b3          	xor	a3,a3,a5
    80003638:	0016f693          	andi	a3,a3,1
    8000363c:	00455713          	srli	a4,a0,0x4
    80003640:	0017d793          	srli	a5,a5,0x1
    80003644:	00068c63          	beqz	a3,8000365c <cmp_complex+0x254>
    80003648:	ffffa6b7          	lui	a3,0xffffa
    8000364c:	00168693          	addi	a3,a3,1 # ffffffffffffa001 <_pmem_end+0xffffffff77ffa001>
    80003650:	00d7c7b3          	xor	a5,a5,a3
    80003654:	03079793          	slli	a5,a5,0x30
    80003658:	0307d793          	srli	a5,a5,0x30
    8000365c:	00f74733          	xor	a4,a4,a5
    80003660:	00177713          	andi	a4,a4,1
    80003664:	00555693          	srli	a3,a0,0x5
    80003668:	0017d793          	srli	a5,a5,0x1
    8000366c:	00070c63          	beqz	a4,80003684 <cmp_complex+0x27c>
    80003670:	ffffa737          	lui	a4,0xffffa
    80003674:	00170713          	addi	a4,a4,1 # ffffffffffffa001 <_pmem_end+0xffffffff77ffa001>
    80003678:	00e7c7b3          	xor	a5,a5,a4
    8000367c:	03079793          	slli	a5,a5,0x30
    80003680:	0307d793          	srli	a5,a5,0x30
    80003684:	00f6c6b3          	xor	a3,a3,a5
    80003688:	0016f693          	andi	a3,a3,1
    8000368c:	00655713          	srli	a4,a0,0x6
    80003690:	0017d793          	srli	a5,a5,0x1
    80003694:	00068c63          	beqz	a3,800036ac <cmp_complex+0x2a4>
    80003698:	ffffa6b7          	lui	a3,0xffffa
    8000369c:	00168693          	addi	a3,a3,1 # ffffffffffffa001 <_pmem_end+0xffffffff77ffa001>
    800036a0:	00d7c7b3          	xor	a5,a5,a3
    800036a4:	03079793          	slli	a5,a5,0x30
    800036a8:	0307d793          	srli	a5,a5,0x30
    800036ac:	00f74733          	xor	a4,a4,a5
    800036b0:	00177713          	andi	a4,a4,1
    800036b4:	00755513          	srli	a0,a0,0x7
    800036b8:	0017d793          	srli	a5,a5,0x1
    800036bc:	00070c63          	beqz	a4,800036d4 <cmp_complex+0x2cc>
    800036c0:	ffffa737          	lui	a4,0xffffa
    800036c4:	00170713          	addi	a4,a4,1 # ffffffffffffa001 <_pmem_end+0xffffffff77ffa001>
    800036c8:	00e7c7b3          	xor	a5,a5,a4
    800036cc:	03079793          	slli	a5,a5,0x30
    800036d0:	0307d793          	srli	a5,a5,0x30
    800036d4:	0017f713          	andi	a4,a5,1
    800036d8:	0017d793          	srli	a5,a5,0x1
    800036dc:	00a70c63          	beq	a4,a0,800036f4 <cmp_complex+0x2ec>
    800036e0:	ffffa737          	lui	a4,0xffffa
    800036e4:	00170713          	addi	a4,a4,1 # ffffffffffffa001 <_pmem_end+0xffffffff77ffa001>
    800036e8:	00e7c7b3          	xor	a5,a5,a4
    800036ec:	03079793          	slli	a5,a5,0x30
    800036f0:	0307d793          	srli	a5,a5,0x30
    800036f4:	07fa7a13          	andi	s4,s4,127
    800036f8:	f0097913          	andi	s2,s2,-256
    800036fc:	012a6933          	or	s2,s4,s2
    80003700:	06f49023          	sh	a5,96(s1)
    80003704:	08096913          	ori	s2,s2,128
    80003708:	012a9023          	sh	s2,0(s5)
    8000370c:	00099903          	lh	s2,0(s3)
    80003710:	4079579b          	sraiw	a5,s2,0x7
    80003714:	0017f793          	andi	a5,a5,1
    80003718:	07f97513          	andi	a0,s2,127
    8000371c:	56079663          	bnez	a5,80003c88 <cmp_complex+0x880>
    80003720:	4039571b          	sraiw	a4,s2,0x3
    80003724:	00f77713          	andi	a4,a4,15
    80003728:	00471693          	slli	a3,a4,0x4
    8000372c:	00797793          	andi	a5,s2,7
    80003730:	0604d403          	lhu	s0,96(s1)
    80003734:	00d76733          	or	a4,a4,a3
    80003738:	58078463          	beqz	a5,80003cc0 <cmp_complex+0x8b8>
    8000373c:	00100693          	li	a3,1
    80003740:	56d79863          	bne	a5,a3,80003cb0 <cmp_complex+0x8a8>
    80003744:	0504b683          	ld	a3,80(s1)
    80003748:	0484b603          	ld	a2,72(s1)
    8000374c:	0584b583          	ld	a1,88(s1)
    80003750:	0404a503          	lw	a0,64(s1)
    80003754:	e45fc0ef          	jal	ra,80000598 <matrix_test>
    80003758:	0ff57793          	zext.b	a5,a0
    8000375c:	0087c633          	xor	a2,a5,s0
    80003760:	03051713          	slli	a4,a0,0x30
    80003764:	00167613          	andi	a2,a2,1
    80003768:	03075713          	srli	a4,a4,0x30
    8000376c:	0017d693          	srli	a3,a5,0x1
    80003770:	00145513          	srli	a0,s0,0x1
    80003774:	00060c63          	beqz	a2,8000378c <cmp_complex+0x384>
    80003778:	ffffa637          	lui	a2,0xffffa
    8000377c:	00160613          	addi	a2,a2,1 # ffffffffffffa001 <_pmem_end+0xffffffff77ffa001>
    80003780:	00c54533          	xor	a0,a0,a2
    80003784:	03051513          	slli	a0,a0,0x30
    80003788:	03055513          	srli	a0,a0,0x30
    8000378c:	00a6c6b3          	xor	a3,a3,a0
    80003790:	0016f613          	andi	a2,a3,1
    80003794:	00155513          	srli	a0,a0,0x1
    80003798:	0027d693          	srli	a3,a5,0x2
    8000379c:	00060c63          	beqz	a2,800037b4 <cmp_complex+0x3ac>
    800037a0:	ffffa637          	lui	a2,0xffffa
    800037a4:	00160613          	addi	a2,a2,1 # ffffffffffffa001 <_pmem_end+0xffffffff77ffa001>
    800037a8:	00c54533          	xor	a0,a0,a2
    800037ac:	03051513          	slli	a0,a0,0x30
    800037b0:	03055513          	srli	a0,a0,0x30
    800037b4:	00a6c6b3          	xor	a3,a3,a0
    800037b8:	0016f693          	andi	a3,a3,1
    800037bc:	0037d613          	srli	a2,a5,0x3
    800037c0:	00155513          	srli	a0,a0,0x1
    800037c4:	00068c63          	beqz	a3,800037dc <cmp_complex+0x3d4>
    800037c8:	ffffa6b7          	lui	a3,0xffffa
    800037cc:	00168693          	addi	a3,a3,1 # ffffffffffffa001 <_pmem_end+0xffffffff77ffa001>
    800037d0:	00d54533          	xor	a0,a0,a3
    800037d4:	03051513          	slli	a0,a0,0x30
    800037d8:	03055513          	srli	a0,a0,0x30
    800037dc:	00a64633          	xor	a2,a2,a0
    800037e0:	00167613          	andi	a2,a2,1
    800037e4:	0047d693          	srli	a3,a5,0x4
    800037e8:	00155513          	srli	a0,a0,0x1
    800037ec:	00060c63          	beqz	a2,80003804 <cmp_complex+0x3fc>
    800037f0:	ffffa637          	lui	a2,0xffffa
    800037f4:	00160613          	addi	a2,a2,1 # ffffffffffffa001 <_pmem_end+0xffffffff77ffa001>
    800037f8:	00c54533          	xor	a0,a0,a2
    800037fc:	03051513          	slli	a0,a0,0x30
    80003800:	03055513          	srli	a0,a0,0x30
    80003804:	00a6c6b3          	xor	a3,a3,a0
    80003808:	0016f693          	andi	a3,a3,1
    8000380c:	0057d613          	srli	a2,a5,0x5
    80003810:	00155513          	srli	a0,a0,0x1
    80003814:	00068c63          	beqz	a3,8000382c <cmp_complex+0x424>
    80003818:	ffffa6b7          	lui	a3,0xffffa
    8000381c:	00168693          	addi	a3,a3,1 # ffffffffffffa001 <_pmem_end+0xffffffff77ffa001>
    80003820:	00d54533          	xor	a0,a0,a3
    80003824:	03051513          	slli	a0,a0,0x30
    80003828:	03055513          	srli	a0,a0,0x30
    8000382c:	00a64633          	xor	a2,a2,a0
    80003830:	00167613          	andi	a2,a2,1
    80003834:	0067d693          	srli	a3,a5,0x6
    80003838:	00155513          	srli	a0,a0,0x1
    8000383c:	00060c63          	beqz	a2,80003854 <cmp_complex+0x44c>
    80003840:	ffffa637          	lui	a2,0xffffa
    80003844:	00160613          	addi	a2,a2,1 # ffffffffffffa001 <_pmem_end+0xffffffff77ffa001>
    80003848:	00c54533          	xor	a0,a0,a2
    8000384c:	03051513          	slli	a0,a0,0x30
    80003850:	03055513          	srli	a0,a0,0x30
    80003854:	00a6c6b3          	xor	a3,a3,a0
    80003858:	0016f693          	andi	a3,a3,1
    8000385c:	0077d793          	srli	a5,a5,0x7
    80003860:	00155513          	srli	a0,a0,0x1
    80003864:	00068c63          	beqz	a3,8000387c <cmp_complex+0x474>
    80003868:	ffffa6b7          	lui	a3,0xffffa
    8000386c:	00168693          	addi	a3,a3,1 # ffffffffffffa001 <_pmem_end+0xffffffff77ffa001>
    80003870:	00d54533          	xor	a0,a0,a3
    80003874:	03051513          	slli	a0,a0,0x30
    80003878:	03055513          	srli	a0,a0,0x30
    8000387c:	00157693          	andi	a3,a0,1
    80003880:	00155513          	srli	a0,a0,0x1
    80003884:	00f68c63          	beq	a3,a5,8000389c <cmp_complex+0x494>
    80003888:	ffffa7b7          	lui	a5,0xffffa
    8000388c:	00178793          	addi	a5,a5,1 # ffffffffffffa001 <_pmem_end+0xffffffff77ffa001>
    80003890:	00f54533          	xor	a0,a0,a5
    80003894:	03051513          	slli	a0,a0,0x30
    80003898:	03055513          	srli	a0,a0,0x30
    8000389c:	00875793          	srli	a5,a4,0x8
    800038a0:	00a7c6b3          	xor	a3,a5,a0
    800038a4:	0016f693          	andi	a3,a3,1
    800038a8:	00975713          	srli	a4,a4,0x9
    800038ac:	00155513          	srli	a0,a0,0x1
    800038b0:	00068c63          	beqz	a3,800038c8 <cmp_complex+0x4c0>
    800038b4:	ffffa6b7          	lui	a3,0xffffa
    800038b8:	00168693          	addi	a3,a3,1 # ffffffffffffa001 <_pmem_end+0xffffffff77ffa001>
    800038bc:	00d54533          	xor	a0,a0,a3
    800038c0:	03051513          	slli	a0,a0,0x30
    800038c4:	03055513          	srli	a0,a0,0x30
    800038c8:	00a74733          	xor	a4,a4,a0
    800038cc:	00177713          	andi	a4,a4,1
    800038d0:	0027d693          	srli	a3,a5,0x2
    800038d4:	00155513          	srli	a0,a0,0x1
    800038d8:	00070c63          	beqz	a4,800038f0 <cmp_complex+0x4e8>
    800038dc:	ffffa737          	lui	a4,0xffffa
    800038e0:	00170713          	addi	a4,a4,1 # ffffffffffffa001 <_pmem_end+0xffffffff77ffa001>
    800038e4:	00e54533          	xor	a0,a0,a4
    800038e8:	03051513          	slli	a0,a0,0x30
    800038ec:	03055513          	srli	a0,a0,0x30
    800038f0:	00a6c733          	xor	a4,a3,a0
    800038f4:	00177713          	andi	a4,a4,1
    800038f8:	0037d693          	srli	a3,a5,0x3
    800038fc:	00155513          	srli	a0,a0,0x1
    80003900:	00070c63          	beqz	a4,80003918 <cmp_complex+0x510>
    80003904:	ffffa737          	lui	a4,0xffffa
    80003908:	00170713          	addi	a4,a4,1 # ffffffffffffa001 <_pmem_end+0xffffffff77ffa001>
    8000390c:	00e54533          	xor	a0,a0,a4
    80003910:	03051513          	slli	a0,a0,0x30
    80003914:	03055513          	srli	a0,a0,0x30
    80003918:	00a6c6b3          	xor	a3,a3,a0
    8000391c:	0016f693          	andi	a3,a3,1
    80003920:	0047d713          	srli	a4,a5,0x4
    80003924:	00155513          	srli	a0,a0,0x1
    80003928:	00068c63          	beqz	a3,80003940 <cmp_complex+0x538>
    8000392c:	ffffa6b7          	lui	a3,0xffffa
    80003930:	00168693          	addi	a3,a3,1 # ffffffffffffa001 <_pmem_end+0xffffffff77ffa001>
    80003934:	00d54533          	xor	a0,a0,a3
    80003938:	03051513          	slli	a0,a0,0x30
    8000393c:	03055513          	srli	a0,a0,0x30
    80003940:	00a74733          	xor	a4,a4,a0
    80003944:	00177713          	andi	a4,a4,1
    80003948:	0057d693          	srli	a3,a5,0x5
    8000394c:	00155513          	srli	a0,a0,0x1
    80003950:	00070c63          	beqz	a4,80003968 <cmp_complex+0x560>
    80003954:	ffffa737          	lui	a4,0xffffa
    80003958:	00170713          	addi	a4,a4,1 # ffffffffffffa001 <_pmem_end+0xffffffff77ffa001>
    8000395c:	00e54533          	xor	a0,a0,a4
    80003960:	03051513          	slli	a0,a0,0x30
    80003964:	03055513          	srli	a0,a0,0x30
    80003968:	00a6c6b3          	xor	a3,a3,a0
    8000396c:	0016f693          	andi	a3,a3,1
    80003970:	0067d713          	srli	a4,a5,0x6
    80003974:	00155513          	srli	a0,a0,0x1
    80003978:	00068c63          	beqz	a3,80003990 <cmp_complex+0x588>
    8000397c:	ffffa6b7          	lui	a3,0xffffa
    80003980:	00168693          	addi	a3,a3,1 # ffffffffffffa001 <_pmem_end+0xffffffff77ffa001>
    80003984:	00d54533          	xor	a0,a0,a3
    80003988:	03051513          	slli	a0,a0,0x30
    8000398c:	03055513          	srli	a0,a0,0x30
    80003990:	00a74733          	xor	a4,a4,a0
    80003994:	00177713          	andi	a4,a4,1
    80003998:	0077d793          	srli	a5,a5,0x7
    8000399c:	00155513          	srli	a0,a0,0x1
    800039a0:	00070c63          	beqz	a4,800039b8 <cmp_complex+0x5b0>
    800039a4:	ffffa737          	lui	a4,0xffffa
    800039a8:	00170713          	addi	a4,a4,1 # ffffffffffffa001 <_pmem_end+0xffffffff77ffa001>
    800039ac:	00e54533          	xor	a0,a0,a4
    800039b0:	03051513          	slli	a0,a0,0x30
    800039b4:	03055513          	srli	a0,a0,0x30
    800039b8:	00a7c7b3          	xor	a5,a5,a0
    800039bc:	0017f793          	andi	a5,a5,1
    800039c0:	00155513          	srli	a0,a0,0x1
    800039c4:	00078c63          	beqz	a5,800039dc <cmp_complex+0x5d4>
    800039c8:	ffffa7b7          	lui	a5,0xffffa
    800039cc:	00178793          	addi	a5,a5,1 # ffffffffffffa001 <_pmem_end+0xffffffff77ffa001>
    800039d0:	00f547b3          	xor	a5,a0,a5
    800039d4:	03079513          	slli	a0,a5,0x30
    800039d8:	03055513          	srli	a0,a0,0x30
    800039dc:	0644d783          	lhu	a5,100(s1)
    800039e0:	0105171b          	slliw	a4,a0,0x10
    800039e4:	0604d403          	lhu	s0,96(s1)
    800039e8:	4107571b          	sraiw	a4,a4,0x10
    800039ec:	00079463          	bnez	a5,800039f4 <cmp_complex+0x5ec>
    800039f0:	06a49223          	sh	a0,100(s1)
    800039f4:	0ff77693          	zext.b	a3,a4
    800039f8:	0086c5b3          	xor	a1,a3,s0
    800039fc:	0015f593          	andi	a1,a1,1
    80003a00:	0016d613          	srli	a2,a3,0x1
    80003a04:	00145793          	srli	a5,s0,0x1
    80003a08:	00058c63          	beqz	a1,80003a20 <cmp_complex+0x618>
    80003a0c:	ffffa5b7          	lui	a1,0xffffa
    80003a10:	00158593          	addi	a1,a1,1 # ffffffffffffa001 <_pmem_end+0xffffffff77ffa001>
    80003a14:	00b7c7b3          	xor	a5,a5,a1
    80003a18:	03079793          	slli	a5,a5,0x30
    80003a1c:	0307d793          	srli	a5,a5,0x30
    80003a20:	00f64633          	xor	a2,a2,a5
    80003a24:	00167593          	andi	a1,a2,1
    80003a28:	0017d793          	srli	a5,a5,0x1
    80003a2c:	0026d613          	srli	a2,a3,0x2
    80003a30:	00058c63          	beqz	a1,80003a48 <cmp_complex+0x640>
    80003a34:	ffffa5b7          	lui	a1,0xffffa
    80003a38:	00158593          	addi	a1,a1,1 # ffffffffffffa001 <_pmem_end+0xffffffff77ffa001>
    80003a3c:	00b7c7b3          	xor	a5,a5,a1
    80003a40:	03079793          	slli	a5,a5,0x30
    80003a44:	0307d793          	srli	a5,a5,0x30
    80003a48:	00f64633          	xor	a2,a2,a5
    80003a4c:	00167613          	andi	a2,a2,1
    80003a50:	0036d593          	srli	a1,a3,0x3
    80003a54:	0017d793          	srli	a5,a5,0x1
    80003a58:	00060c63          	beqz	a2,80003a70 <cmp_complex+0x668>
    80003a5c:	ffffa637          	lui	a2,0xffffa
    80003a60:	00160613          	addi	a2,a2,1 # ffffffffffffa001 <_pmem_end+0xffffffff77ffa001>
    80003a64:	00c7c7b3          	xor	a5,a5,a2
    80003a68:	03079793          	slli	a5,a5,0x30
    80003a6c:	0307d793          	srli	a5,a5,0x30
    80003a70:	00f5c5b3          	xor	a1,a1,a5
    80003a74:	0015f593          	andi	a1,a1,1
    80003a78:	0046d613          	srli	a2,a3,0x4
    80003a7c:	0017d793          	srli	a5,a5,0x1
    80003a80:	00058c63          	beqz	a1,80003a98 <cmp_complex+0x690>
    80003a84:	ffffa5b7          	lui	a1,0xffffa
    80003a88:	00158593          	addi	a1,a1,1 # ffffffffffffa001 <_pmem_end+0xffffffff77ffa001>
    80003a8c:	00b7c7b3          	xor	a5,a5,a1
    80003a90:	03079793          	slli	a5,a5,0x30
    80003a94:	0307d793          	srli	a5,a5,0x30
    80003a98:	00f64633          	xor	a2,a2,a5
    80003a9c:	00167613          	andi	a2,a2,1
    80003aa0:	0056d593          	srli	a1,a3,0x5
    80003aa4:	0017d793          	srli	a5,a5,0x1
    80003aa8:	00060c63          	beqz	a2,80003ac0 <cmp_complex+0x6b8>
    80003aac:	ffffa637          	lui	a2,0xffffa
    80003ab0:	00160613          	addi	a2,a2,1 # ffffffffffffa001 <_pmem_end+0xffffffff77ffa001>
    80003ab4:	00c7c7b3          	xor	a5,a5,a2
    80003ab8:	03079793          	slli	a5,a5,0x30
    80003abc:	0307d793          	srli	a5,a5,0x30
    80003ac0:	00f5c5b3          	xor	a1,a1,a5
    80003ac4:	0015f593          	andi	a1,a1,1
    80003ac8:	0066d613          	srli	a2,a3,0x6
    80003acc:	0017d793          	srli	a5,a5,0x1
    80003ad0:	00058c63          	beqz	a1,80003ae8 <cmp_complex+0x6e0>
    80003ad4:	ffffa5b7          	lui	a1,0xffffa
    80003ad8:	00158593          	addi	a1,a1,1 # ffffffffffffa001 <_pmem_end+0xffffffff77ffa001>
    80003adc:	00b7c7b3          	xor	a5,a5,a1
    80003ae0:	03079793          	slli	a5,a5,0x30
    80003ae4:	0307d793          	srli	a5,a5,0x30
    80003ae8:	00f64633          	xor	a2,a2,a5
    80003aec:	00167613          	andi	a2,a2,1
    80003af0:	0076d693          	srli	a3,a3,0x7
    80003af4:	0017d793          	srli	a5,a5,0x1
    80003af8:	00060c63          	beqz	a2,80003b10 <cmp_complex+0x708>
    80003afc:	ffffa637          	lui	a2,0xffffa
    80003b00:	00160613          	addi	a2,a2,1 # ffffffffffffa001 <_pmem_end+0xffffffff77ffa001>
    80003b04:	00c7c7b3          	xor	a5,a5,a2
    80003b08:	03079793          	slli	a5,a5,0x30
    80003b0c:	0307d793          	srli	a5,a5,0x30
    80003b10:	0017f613          	andi	a2,a5,1
    80003b14:	0017d793          	srli	a5,a5,0x1
    80003b18:	00d60c63          	beq	a2,a3,80003b30 <cmp_complex+0x728>
    80003b1c:	ffffa6b7          	lui	a3,0xffffa
    80003b20:	00168693          	addi	a3,a3,1 # ffffffffffffa001 <_pmem_end+0xffffffff77ffa001>
    80003b24:	00d7c7b3          	xor	a5,a5,a3
    80003b28:	03079793          	slli	a5,a5,0x30
    80003b2c:	0307d793          	srli	a5,a5,0x30
    80003b30:	0085551b          	srliw	a0,a0,0x8
    80003b34:	0ff57513          	zext.b	a0,a0
    80003b38:	00f546b3          	xor	a3,a0,a5
    80003b3c:	0016f693          	andi	a3,a3,1
    80003b40:	00155613          	srli	a2,a0,0x1
    80003b44:	0017d793          	srli	a5,a5,0x1
    80003b48:	00068c63          	beqz	a3,80003b60 <cmp_complex+0x758>
    80003b4c:	ffffa6b7          	lui	a3,0xffffa
    80003b50:	00168693          	addi	a3,a3,1 # ffffffffffffa001 <_pmem_end+0xffffffff77ffa001>
    80003b54:	00d7c7b3          	xor	a5,a5,a3
    80003b58:	03079793          	slli	a5,a5,0x30
    80003b5c:	0307d793          	srli	a5,a5,0x30
    80003b60:	00f64633          	xor	a2,a2,a5
    80003b64:	00167613          	andi	a2,a2,1
    80003b68:	00255693          	srli	a3,a0,0x2
    80003b6c:	0017d793          	srli	a5,a5,0x1
    80003b70:	00060c63          	beqz	a2,80003b88 <cmp_complex+0x780>
    80003b74:	ffffa637          	lui	a2,0xffffa
    80003b78:	00160613          	addi	a2,a2,1 # ffffffffffffa001 <_pmem_end+0xffffffff77ffa001>
    80003b7c:	00c7c7b3          	xor	a5,a5,a2
    80003b80:	03079793          	slli	a5,a5,0x30
    80003b84:	0307d793          	srli	a5,a5,0x30
    80003b88:	00f6c6b3          	xor	a3,a3,a5
    80003b8c:	0016f693          	andi	a3,a3,1
    80003b90:	00355613          	srli	a2,a0,0x3
    80003b94:	0017d793          	srli	a5,a5,0x1
    80003b98:	00068c63          	beqz	a3,80003bb0 <cmp_complex+0x7a8>
    80003b9c:	ffffa6b7          	lui	a3,0xffffa
    80003ba0:	00168693          	addi	a3,a3,1 # ffffffffffffa001 <_pmem_end+0xffffffff77ffa001>
    80003ba4:	00d7c7b3          	xor	a5,a5,a3
    80003ba8:	03079793          	slli	a5,a5,0x30
    80003bac:	0307d793          	srli	a5,a5,0x30
    80003bb0:	00f64633          	xor	a2,a2,a5
    80003bb4:	00167613          	andi	a2,a2,1
    80003bb8:	00455693          	srli	a3,a0,0x4
    80003bbc:	0017d793          	srli	a5,a5,0x1
    80003bc0:	00060c63          	beqz	a2,80003bd8 <cmp_complex+0x7d0>
    80003bc4:	ffffa637          	lui	a2,0xffffa
    80003bc8:	00160613          	addi	a2,a2,1 # ffffffffffffa001 <_pmem_end+0xffffffff77ffa001>
    80003bcc:	00c7c7b3          	xor	a5,a5,a2
    80003bd0:	03079793          	slli	a5,a5,0x30
    80003bd4:	0307d793          	srli	a5,a5,0x30
    80003bd8:	00f6c6b3          	xor	a3,a3,a5
    80003bdc:	0016f693          	andi	a3,a3,1
    80003be0:	00555613          	srli	a2,a0,0x5
    80003be4:	0017d793          	srli	a5,a5,0x1
    80003be8:	00068c63          	beqz	a3,80003c00 <cmp_complex+0x7f8>
    80003bec:	ffffa6b7          	lui	a3,0xffffa
    80003bf0:	00168693          	addi	a3,a3,1 # ffffffffffffa001 <_pmem_end+0xffffffff77ffa001>
    80003bf4:	00d7c7b3          	xor	a5,a5,a3
    80003bf8:	03079793          	slli	a5,a5,0x30
    80003bfc:	0307d793          	srli	a5,a5,0x30
    80003c00:	00f64633          	xor	a2,a2,a5
    80003c04:	00167613          	andi	a2,a2,1
    80003c08:	00655693          	srli	a3,a0,0x6
    80003c0c:	0017d793          	srli	a5,a5,0x1
    80003c10:	00060c63          	beqz	a2,80003c28 <cmp_complex+0x820>
    80003c14:	ffffa637          	lui	a2,0xffffa
    80003c18:	00160613          	addi	a2,a2,1 # ffffffffffffa001 <_pmem_end+0xffffffff77ffa001>
    80003c1c:	00c7c7b3          	xor	a5,a5,a2
    80003c20:	03079793          	slli	a5,a5,0x30
    80003c24:	0307d793          	srli	a5,a5,0x30
    80003c28:	00f6c6b3          	xor	a3,a3,a5
    80003c2c:	0016f693          	andi	a3,a3,1
    80003c30:	00755513          	srli	a0,a0,0x7
    80003c34:	0017d793          	srli	a5,a5,0x1
    80003c38:	00068c63          	beqz	a3,80003c50 <cmp_complex+0x848>
    80003c3c:	ffffa6b7          	lui	a3,0xffffa
    80003c40:	00168693          	addi	a3,a3,1 # ffffffffffffa001 <_pmem_end+0xffffffff77ffa001>
    80003c44:	00d7c7b3          	xor	a5,a5,a3
    80003c48:	03079793          	slli	a5,a5,0x30
    80003c4c:	0307d793          	srli	a5,a5,0x30
    80003c50:	0017f693          	andi	a3,a5,1
    80003c54:	0017d793          	srli	a5,a5,0x1
    80003c58:	00a68c63          	beq	a3,a0,80003c70 <cmp_complex+0x868>
    80003c5c:	ffffa6b7          	lui	a3,0xffffa
    80003c60:	00168693          	addi	a3,a3,1 # ffffffffffffa001 <_pmem_end+0xffffffff77ffa001>
    80003c64:	00d7c7b3          	xor	a5,a5,a3
    80003c68:	03079793          	slli	a5,a5,0x30
    80003c6c:	0307d793          	srli	a5,a5,0x30
    80003c70:	07f77513          	andi	a0,a4,127
    80003c74:	f0097913          	andi	s2,s2,-256
    80003c78:	01256933          	or	s2,a0,s2
    80003c7c:	06f49023          	sh	a5,96(s1)
    80003c80:	08096913          	ori	s2,s2,128
    80003c84:	01299023          	sh	s2,0(s3)
    80003c88:	03813083          	ld	ra,56(sp)
    80003c8c:	03013403          	ld	s0,48(sp)
    80003c90:	02813483          	ld	s1,40(sp)
    80003c94:	02013903          	ld	s2,32(sp)
    80003c98:	01813983          	ld	s3,24(sp)
    80003c9c:	00813a83          	ld	s5,8(sp)
    80003ca0:	40aa053b          	subw	a0,s4,a0
    80003ca4:	01013a03          	ld	s4,16(sp)
    80003ca8:	04010113          	addi	sp,sp,64
    80003cac:	00008067          	ret
    80003cb0:	03091513          	slli	a0,s2,0x30
    80003cb4:	03055513          	srli	a0,a0,0x30
    80003cb8:	00090713          	mv	a4,s2
    80003cbc:	d39ff06f          	j	800039f4 <cmp_complex+0x5ec>
    80003cc0:	02200793          	li	a5,34
    80003cc4:	00070813          	mv	a6,a4
    80003cc8:	00f75463          	bge	a4,a5,80003cd0 <cmp_complex+0x8c8>
    80003ccc:	02200813          	li	a6,34
    80003cd0:	00249683          	lh	a3,2(s1)
    80003cd4:	00049603          	lh	a2,0(s1)
    80003cd8:	0204b583          	ld	a1,32(s1)
    80003cdc:	0284a503          	lw	a0,40(s1)
    80003ce0:	00040793          	mv	a5,s0
    80003ce4:	0ff87713          	zext.b	a4,a6
    80003ce8:	ee0fe0ef          	jal	ra,800023c8 <core_bench_state>
    80003cec:	0664d783          	lhu	a5,102(s1)
    80003cf0:	0105171b          	slliw	a4,a0,0x10
    80003cf4:	0604d403          	lhu	s0,96(s1)
    80003cf8:	4107571b          	sraiw	a4,a4,0x10
    80003cfc:	ce079ce3          	bnez	a5,800039f4 <cmp_complex+0x5ec>
    80003d00:	06a49323          	sh	a0,102(s1)
    80003d04:	cf1ff06f          	j	800039f4 <cmp_complex+0x5ec>
    80003d08:	02200793          	li	a5,34
    80003d0c:	00070813          	mv	a6,a4
    80003d10:	00f75463          	bge	a4,a5,80003d18 <cmp_complex+0x910>
    80003d14:	02200813          	li	a6,34
    80003d18:	00249683          	lh	a3,2(s1)
    80003d1c:	00049603          	lh	a2,0(s1)
    80003d20:	0204b583          	ld	a1,32(s1)
    80003d24:	0284a503          	lw	a0,40(s1)
    80003d28:	00040793          	mv	a5,s0
    80003d2c:	0ff87713          	zext.b	a4,a6
    80003d30:	e98fe0ef          	jal	ra,800023c8 <core_bench_state>
    80003d34:	0664d783          	lhu	a5,102(s1)
    80003d38:	01051a1b          	slliw	s4,a0,0x10
    80003d3c:	0604d403          	lhu	s0,96(s1)
    80003d40:	410a5a1b          	sraiw	s4,s4,0x10
    80003d44:	f2079a63          	bnez	a5,80003478 <cmp_complex+0x70>
    80003d48:	06a49323          	sh	a0,102(s1)
    80003d4c:	f2cff06f          	j	80003478 <cmp_complex+0x70>
    80003d50:	05063683          	ld	a3,80(a2)
    80003d54:	0584b583          	ld	a1,88(s1)
    80003d58:	04863603          	ld	a2,72(a2)
    80003d5c:	0404a503          	lw	a0,64(s1)
    80003d60:	839fc0ef          	jal	ra,80000598 <matrix_test>
    80003d64:	0ff57793          	zext.b	a5,a0
    80003d68:	0087c633          	xor	a2,a5,s0
    80003d6c:	03051713          	slli	a4,a0,0x30
    80003d70:	00167613          	andi	a2,a2,1
    80003d74:	03075713          	srli	a4,a4,0x30
    80003d78:	0017d693          	srli	a3,a5,0x1
    80003d7c:	00145513          	srli	a0,s0,0x1
    80003d80:	00060c63          	beqz	a2,80003d98 <cmp_complex+0x990>
    80003d84:	ffffa637          	lui	a2,0xffffa
    80003d88:	00160613          	addi	a2,a2,1 # ffffffffffffa001 <_pmem_end+0xffffffff77ffa001>
    80003d8c:	00c54533          	xor	a0,a0,a2
    80003d90:	03051513          	slli	a0,a0,0x30
    80003d94:	03055513          	srli	a0,a0,0x30
    80003d98:	00a6c6b3          	xor	a3,a3,a0
    80003d9c:	0016f613          	andi	a2,a3,1
    80003da0:	00155513          	srli	a0,a0,0x1
    80003da4:	0027d693          	srli	a3,a5,0x2
    80003da8:	00060c63          	beqz	a2,80003dc0 <cmp_complex+0x9b8>
    80003dac:	ffffa637          	lui	a2,0xffffa
    80003db0:	00160613          	addi	a2,a2,1 # ffffffffffffa001 <_pmem_end+0xffffffff77ffa001>
    80003db4:	00c54533          	xor	a0,a0,a2
    80003db8:	03051513          	slli	a0,a0,0x30
    80003dbc:	03055513          	srli	a0,a0,0x30
    80003dc0:	00a6c6b3          	xor	a3,a3,a0
    80003dc4:	0016f693          	andi	a3,a3,1
    80003dc8:	0037d613          	srli	a2,a5,0x3
    80003dcc:	00155513          	srli	a0,a0,0x1
    80003dd0:	00068c63          	beqz	a3,80003de8 <cmp_complex+0x9e0>
    80003dd4:	ffffa6b7          	lui	a3,0xffffa
    80003dd8:	00168693          	addi	a3,a3,1 # ffffffffffffa001 <_pmem_end+0xffffffff77ffa001>
    80003ddc:	00d54533          	xor	a0,a0,a3
    80003de0:	03051513          	slli	a0,a0,0x30
    80003de4:	03055513          	srli	a0,a0,0x30
    80003de8:	00a64633          	xor	a2,a2,a0
    80003dec:	00167613          	andi	a2,a2,1
    80003df0:	0047d693          	srli	a3,a5,0x4
    80003df4:	00155513          	srli	a0,a0,0x1
    80003df8:	00060c63          	beqz	a2,80003e10 <cmp_complex+0xa08>
    80003dfc:	ffffa637          	lui	a2,0xffffa
    80003e00:	00160613          	addi	a2,a2,1 # ffffffffffffa001 <_pmem_end+0xffffffff77ffa001>
    80003e04:	00c54533          	xor	a0,a0,a2
    80003e08:	03051513          	slli	a0,a0,0x30
    80003e0c:	03055513          	srli	a0,a0,0x30
    80003e10:	00a6c6b3          	xor	a3,a3,a0
    80003e14:	0016f693          	andi	a3,a3,1
    80003e18:	0057d613          	srli	a2,a5,0x5
    80003e1c:	00155513          	srli	a0,a0,0x1
    80003e20:	00068c63          	beqz	a3,80003e38 <cmp_complex+0xa30>
    80003e24:	ffffa6b7          	lui	a3,0xffffa
    80003e28:	00168693          	addi	a3,a3,1 # ffffffffffffa001 <_pmem_end+0xffffffff77ffa001>
    80003e2c:	00d54533          	xor	a0,a0,a3
    80003e30:	03051513          	slli	a0,a0,0x30
    80003e34:	03055513          	srli	a0,a0,0x30
    80003e38:	00a64633          	xor	a2,a2,a0
    80003e3c:	00167613          	andi	a2,a2,1
    80003e40:	0067d693          	srli	a3,a5,0x6
    80003e44:	00155513          	srli	a0,a0,0x1
    80003e48:	00060c63          	beqz	a2,80003e60 <cmp_complex+0xa58>
    80003e4c:	ffffa637          	lui	a2,0xffffa
    80003e50:	00160613          	addi	a2,a2,1 # ffffffffffffa001 <_pmem_end+0xffffffff77ffa001>
    80003e54:	00c54533          	xor	a0,a0,a2
    80003e58:	03051513          	slli	a0,a0,0x30
    80003e5c:	03055513          	srli	a0,a0,0x30
    80003e60:	00a6c6b3          	xor	a3,a3,a0
    80003e64:	0016f693          	andi	a3,a3,1
    80003e68:	0077d793          	srli	a5,a5,0x7
    80003e6c:	00155513          	srli	a0,a0,0x1
    80003e70:	00068c63          	beqz	a3,80003e88 <cmp_complex+0xa80>
    80003e74:	ffffa6b7          	lui	a3,0xffffa
    80003e78:	00168693          	addi	a3,a3,1 # ffffffffffffa001 <_pmem_end+0xffffffff77ffa001>
    80003e7c:	00d54533          	xor	a0,a0,a3
    80003e80:	03051513          	slli	a0,a0,0x30
    80003e84:	03055513          	srli	a0,a0,0x30
    80003e88:	00157693          	andi	a3,a0,1
    80003e8c:	00155513          	srli	a0,a0,0x1
    80003e90:	00f68c63          	beq	a3,a5,80003ea8 <cmp_complex+0xaa0>
    80003e94:	ffffa7b7          	lui	a5,0xffffa
    80003e98:	00178793          	addi	a5,a5,1 # ffffffffffffa001 <_pmem_end+0xffffffff77ffa001>
    80003e9c:	00f54533          	xor	a0,a0,a5
    80003ea0:	03051513          	slli	a0,a0,0x30
    80003ea4:	03055513          	srli	a0,a0,0x30
    80003ea8:	00875793          	srli	a5,a4,0x8
    80003eac:	00a7c6b3          	xor	a3,a5,a0
    80003eb0:	0016f693          	andi	a3,a3,1
    80003eb4:	00975713          	srli	a4,a4,0x9
    80003eb8:	00155513          	srli	a0,a0,0x1
    80003ebc:	00068c63          	beqz	a3,80003ed4 <cmp_complex+0xacc>
    80003ec0:	ffffa6b7          	lui	a3,0xffffa
    80003ec4:	00168693          	addi	a3,a3,1 # ffffffffffffa001 <_pmem_end+0xffffffff77ffa001>
    80003ec8:	00d54533          	xor	a0,a0,a3
    80003ecc:	03051513          	slli	a0,a0,0x30
    80003ed0:	03055513          	srli	a0,a0,0x30
    80003ed4:	00a74733          	xor	a4,a4,a0
    80003ed8:	00177713          	andi	a4,a4,1
    80003edc:	0027d693          	srli	a3,a5,0x2
    80003ee0:	00155513          	srli	a0,a0,0x1
    80003ee4:	00070c63          	beqz	a4,80003efc <cmp_complex+0xaf4>
    80003ee8:	ffffa737          	lui	a4,0xffffa
    80003eec:	00170713          	addi	a4,a4,1 # ffffffffffffa001 <_pmem_end+0xffffffff77ffa001>
    80003ef0:	00e54533          	xor	a0,a0,a4
    80003ef4:	03051513          	slli	a0,a0,0x30
    80003ef8:	03055513          	srli	a0,a0,0x30
    80003efc:	00a6c733          	xor	a4,a3,a0
    80003f00:	00177713          	andi	a4,a4,1
    80003f04:	0037d693          	srli	a3,a5,0x3
    80003f08:	00155513          	srli	a0,a0,0x1
    80003f0c:	00070c63          	beqz	a4,80003f24 <cmp_complex+0xb1c>
    80003f10:	ffffa737          	lui	a4,0xffffa
    80003f14:	00170713          	addi	a4,a4,1 # ffffffffffffa001 <_pmem_end+0xffffffff77ffa001>
    80003f18:	00e54533          	xor	a0,a0,a4
    80003f1c:	03051513          	slli	a0,a0,0x30
    80003f20:	03055513          	srli	a0,a0,0x30
    80003f24:	00a6c6b3          	xor	a3,a3,a0
    80003f28:	0016f693          	andi	a3,a3,1
    80003f2c:	0047d713          	srli	a4,a5,0x4
    80003f30:	00155513          	srli	a0,a0,0x1
    80003f34:	00068c63          	beqz	a3,80003f4c <cmp_complex+0xb44>
    80003f38:	ffffa6b7          	lui	a3,0xffffa
    80003f3c:	00168693          	addi	a3,a3,1 # ffffffffffffa001 <_pmem_end+0xffffffff77ffa001>
    80003f40:	00d54533          	xor	a0,a0,a3
    80003f44:	03051513          	slli	a0,a0,0x30
    80003f48:	03055513          	srli	a0,a0,0x30
    80003f4c:	00a74733          	xor	a4,a4,a0
    80003f50:	00177713          	andi	a4,a4,1
    80003f54:	0057d693          	srli	a3,a5,0x5
    80003f58:	00155513          	srli	a0,a0,0x1
    80003f5c:	00070c63          	beqz	a4,80003f74 <cmp_complex+0xb6c>
    80003f60:	ffffa737          	lui	a4,0xffffa
    80003f64:	00170713          	addi	a4,a4,1 # ffffffffffffa001 <_pmem_end+0xffffffff77ffa001>
    80003f68:	00e54533          	xor	a0,a0,a4
    80003f6c:	03051513          	slli	a0,a0,0x30
    80003f70:	03055513          	srli	a0,a0,0x30
    80003f74:	00a6c6b3          	xor	a3,a3,a0
    80003f78:	0016f693          	andi	a3,a3,1
    80003f7c:	0067d713          	srli	a4,a5,0x6
    80003f80:	00155513          	srli	a0,a0,0x1
    80003f84:	00068c63          	beqz	a3,80003f9c <cmp_complex+0xb94>
    80003f88:	ffffa6b7          	lui	a3,0xffffa
    80003f8c:	00168693          	addi	a3,a3,1 # ffffffffffffa001 <_pmem_end+0xffffffff77ffa001>
    80003f90:	00d54533          	xor	a0,a0,a3
    80003f94:	03051513          	slli	a0,a0,0x30
    80003f98:	03055513          	srli	a0,a0,0x30
    80003f9c:	00a74733          	xor	a4,a4,a0
    80003fa0:	00177713          	andi	a4,a4,1
    80003fa4:	0077d793          	srli	a5,a5,0x7
    80003fa8:	00155513          	srli	a0,a0,0x1
    80003fac:	00070c63          	beqz	a4,80003fc4 <cmp_complex+0xbbc>
    80003fb0:	ffffa737          	lui	a4,0xffffa
    80003fb4:	00170713          	addi	a4,a4,1 # ffffffffffffa001 <_pmem_end+0xffffffff77ffa001>
    80003fb8:	00e54533          	xor	a0,a0,a4
    80003fbc:	03051513          	slli	a0,a0,0x30
    80003fc0:	03055513          	srli	a0,a0,0x30
    80003fc4:	00a7c7b3          	xor	a5,a5,a0
    80003fc8:	0017f793          	andi	a5,a5,1
    80003fcc:	00155513          	srli	a0,a0,0x1
    80003fd0:	00078c63          	beqz	a5,80003fe8 <cmp_complex+0xbe0>
    80003fd4:	ffffa7b7          	lui	a5,0xffffa
    80003fd8:	00178793          	addi	a5,a5,1 # ffffffffffffa001 <_pmem_end+0xffffffff77ffa001>
    80003fdc:	00f547b3          	xor	a5,a0,a5
    80003fe0:	03079513          	slli	a0,a5,0x30
    80003fe4:	03055513          	srli	a0,a0,0x30
    80003fe8:	0644d783          	lhu	a5,100(s1)
    80003fec:	01051a1b          	slliw	s4,a0,0x10
    80003ff0:	0604d403          	lhu	s0,96(s1)
    80003ff4:	410a5a1b          	sraiw	s4,s4,0x10
    80003ff8:	c8079063          	bnez	a5,80003478 <cmp_complex+0x70>
    80003ffc:	06a49223          	sh	a0,100(s1)
    80004000:	c78ff06f          	j	80003478 <cmp_complex+0x70>

0000000080004004 <core_bench_list>:
    80004004:	00451303          	lh	t1,4(a0)
    80004008:	f9010113          	addi	sp,sp,-112
    8000400c:	06813023          	sd	s0,96(sp)
    80004010:	03813023          	sd	s8,32(sp)
    80004014:	01b13423          	sd	s11,8(sp)
    80004018:	06113423          	sd	ra,104(sp)
    8000401c:	04913c23          	sd	s1,88(sp)
    80004020:	05213823          	sd	s2,80(sp)
    80004024:	05313423          	sd	s3,72(sp)
    80004028:	05413023          	sd	s4,64(sp)
    8000402c:	03513c23          	sd	s5,56(sp)
    80004030:	03613823          	sd	s6,48(sp)
    80004034:	03713423          	sd	s7,40(sp)
    80004038:	01913c23          	sd	s9,24(sp)
    8000403c:	01a13823          	sd	s10,16(sp)
    80004040:	03853403          	ld	s0,56(a0)
    80004044:	00050d93          	mv	s11,a0
    80004048:	00058c13          	mv	s8,a1
    8000404c:	00058513          	mv	a0,a1
    80004050:	02605ae3          	blez	t1,80004884 <core_bench_list+0x880>
    80004054:	00000593          	li	a1,0
    80004058:	00000893          	li	a7,0
    8000405c:	00000913          	li	s2,0
    80004060:	00000813          	li	a6,0
    80004064:	0ff5fc93          	zext.b	s9,a1
    80004068:	000c061b          	sext.w	a2,s8
    8000406c:	440c4863          	bltz	s8,800044bc <core_bench_list+0x4b8>
    80004070:	020400e3          	beqz	s0,80004890 <core_bench_list+0x88c>
    80004074:	00040793          	mv	a5,s0
    80004078:	00c0006f          	j	80004084 <core_bench_list+0x80>
    8000407c:	0007b783          	ld	a5,0(a5)
    80004080:	00078863          	beqz	a5,80004090 <core_bench_list+0x8c>
    80004084:	0087b703          	ld	a4,8(a5)
    80004088:	00271703          	lh	a4,2(a4)
    8000408c:	fec718e3          	bne	a4,a2,8000407c <core_bench_list+0x78>
    80004090:	00040713          	mv	a4,s0
    80004094:	00000693          	li	a3,0
    80004098:	0080006f          	j	800040a0 <core_bench_list+0x9c>
    8000409c:	00040693          	mv	a3,s0
    800040a0:	00070413          	mv	s0,a4
    800040a4:	00073703          	ld	a4,0(a4)
    800040a8:	00d43023          	sd	a3,0(s0)
    800040ac:	fe0718e3          	bnez	a4,8000409c <core_bench_list+0x98>
    800040b0:	42078a63          	beqz	a5,800044e4 <core_bench_list+0x4e0>
    800040b4:	0087b703          	ld	a4,8(a5)
    800040b8:	0019091b          	addiw	s2,s2,1
    800040bc:	03091913          	slli	s2,s2,0x30
    800040c0:	00071703          	lh	a4,0(a4)
    800040c4:	03095913          	srli	s2,s2,0x30
    800040c8:	00177693          	andi	a3,a4,1
    800040cc:	00068c63          	beqz	a3,800040e4 <core_bench_list+0xe0>
    800040d0:	4097571b          	sraiw	a4,a4,0x9
    800040d4:	00177713          	andi	a4,a4,1
    800040d8:	0107073b          	addw	a4,a4,a6
    800040dc:	03071813          	slli	a6,a4,0x30
    800040e0:	03085813          	srli	a6,a6,0x30
    800040e4:	0007b703          	ld	a4,0(a5)
    800040e8:	00070c63          	beqz	a4,80004100 <core_bench_list+0xfc>
    800040ec:	00073683          	ld	a3,0(a4)
    800040f0:	00d7b023          	sd	a3,0(a5)
    800040f4:	00043783          	ld	a5,0(s0)
    800040f8:	00f73023          	sd	a5,0(a4)
    800040fc:	00e43023          	sd	a4,0(s0)
    80004100:	00064863          	bltz	a2,80004110 <core_bench_list+0x10c>
    80004104:	001c0c1b          	addiw	s8,s8,1
    80004108:	010c1c1b          	slliw	s8,s8,0x10
    8000410c:	410c5c1b          	sraiw	s8,s8,0x10
    80004110:	0015859b          	addiw	a1,a1,1
    80004114:	0105959b          	slliw	a1,a1,0x10
    80004118:	4105d59b          	sraiw	a1,a1,0x10
    8000411c:	f4b314e3          	bne	t1,a1,80004064 <core_bench_list+0x60>
    80004120:	0029191b          	slliw	s2,s2,0x2
    80004124:	4119093b          	subw	s2,s2,a7
    80004128:	0109093b          	addw	s2,s2,a6
    8000412c:	03091913          	slli	s2,s2,0x30
    80004130:	03095913          	srli	s2,s2,0x30
    80004134:	68a04063          	bgtz	a0,800047b4 <core_bench_list+0x7b0>
    80004138:	00043703          	ld	a4,0(s0)
    8000413c:	000c061b          	sext.w	a2,s8
    80004140:	00040793          	mv	a5,s0
    80004144:	00073503          	ld	a0,0(a4)
    80004148:	00873a03          	ld	s4,8(a4)
    8000414c:	000c8c9b          	sext.w	s9,s9
    80004150:	00853583          	ld	a1,8(a0)
    80004154:	00053683          	ld	a3,0(a0)
    80004158:	00b73423          	sd	a1,8(a4)
    8000415c:	01453423          	sd	s4,8(a0)
    80004160:	00d73023          	sd	a3,0(a4)
    80004164:	00053023          	sd	zero,0(a0)
    80004168:	320c4063          	bltz	s8,80004488 <core_bench_list+0x484>
    8000416c:	0087b683          	ld	a3,8(a5)
    80004170:	00078713          	mv	a4,a5
    80004174:	0007b783          	ld	a5,0(a5)
    80004178:	00269683          	lh	a3,2(a3)
    8000417c:	32c68c63          	beq	a3,a2,800044b4 <core_bench_list+0x4b0>
    80004180:	fe0796e3          	bnez	a5,8000416c <core_bench_list+0x168>
    80004184:	00043583          	ld	a1,0(s0)
    80004188:	00058713          	mv	a4,a1
    8000418c:	20058c63          	beqz	a1,800043a4 <core_bench_list+0x3a0>
    80004190:	00843683          	ld	a3,8(s0)
    80004194:	ffffa7b7          	lui	a5,0xffffa
    80004198:	00178793          	addi	a5,a5,1 # ffffffffffffa001 <_pmem_end+0xffffffff77ffa001>
    8000419c:	00069683          	lh	a3,0(a3)
    800041a0:	0086d613          	srli	a2,a3,0x8
    800041a4:	0ff67613          	zext.b	a2,a2
    800041a8:	0ff6f693          	zext.b	a3,a3
    800041ac:	0016db93          	srli	s7,a3,0x1
    800041b0:	0026db13          	srli	s6,a3,0x2
    800041b4:	0036da93          	srli	s5,a3,0x3
    800041b8:	0046d993          	srli	s3,a3,0x4
    800041bc:	0056d493          	srli	s1,a3,0x5
    800041c0:	0066d393          	srli	t2,a3,0x6
    800041c4:	0076d293          	srli	t0,a3,0x7
    800041c8:	00165f93          	srli	t6,a2,0x1
    800041cc:	00265f13          	srli	t5,a2,0x2
    800041d0:	00365e93          	srli	t4,a2,0x3
    800041d4:	00465e13          	srli	t3,a2,0x4
    800041d8:	00565313          	srli	t1,a2,0x5
    800041dc:	00665893          	srli	a7,a2,0x6
    800041e0:	00765813          	srli	a6,a2,0x7
    800041e4:	0126cc33          	xor	s8,a3,s2
    800041e8:	001c7c13          	andi	s8,s8,1
    800041ec:	00195913          	srli	s2,s2,0x1
    800041f0:	000c0863          	beqz	s8,80004200 <core_bench_list+0x1fc>
    800041f4:	00f94933          	xor	s2,s2,a5
    800041f8:	03091913          	slli	s2,s2,0x30
    800041fc:	03095913          	srli	s2,s2,0x30
    80004200:	012bcc33          	xor	s8,s7,s2
    80004204:	001c7c13          	andi	s8,s8,1
    80004208:	00195913          	srli	s2,s2,0x1
    8000420c:	000c0863          	beqz	s8,8000421c <core_bench_list+0x218>
    80004210:	00f94933          	xor	s2,s2,a5
    80004214:	03091913          	slli	s2,s2,0x30
    80004218:	03095913          	srli	s2,s2,0x30
    8000421c:	012b4c33          	xor	s8,s6,s2
    80004220:	001c7c13          	andi	s8,s8,1
    80004224:	00195913          	srli	s2,s2,0x1
    80004228:	000c0863          	beqz	s8,80004238 <core_bench_list+0x234>
    8000422c:	00f94933          	xor	s2,s2,a5
    80004230:	03091913          	slli	s2,s2,0x30
    80004234:	03095913          	srli	s2,s2,0x30
    80004238:	012acc33          	xor	s8,s5,s2
    8000423c:	001c7c13          	andi	s8,s8,1
    80004240:	00195913          	srli	s2,s2,0x1
    80004244:	000c0863          	beqz	s8,80004254 <core_bench_list+0x250>
    80004248:	00f94933          	xor	s2,s2,a5
    8000424c:	03091913          	slli	s2,s2,0x30
    80004250:	03095913          	srli	s2,s2,0x30
    80004254:	0129cc33          	xor	s8,s3,s2
    80004258:	001c7c13          	andi	s8,s8,1
    8000425c:	00195913          	srli	s2,s2,0x1
    80004260:	000c0863          	beqz	s8,80004270 <core_bench_list+0x26c>
    80004264:	00f94933          	xor	s2,s2,a5
    80004268:	03091913          	slli	s2,s2,0x30
    8000426c:	03095913          	srli	s2,s2,0x30
    80004270:	0124cc33          	xor	s8,s1,s2
    80004274:	001c7c13          	andi	s8,s8,1
    80004278:	00195913          	srli	s2,s2,0x1
    8000427c:	000c0863          	beqz	s8,8000428c <core_bench_list+0x288>
    80004280:	00f94933          	xor	s2,s2,a5
    80004284:	03091913          	slli	s2,s2,0x30
    80004288:	03095913          	srli	s2,s2,0x30
    8000428c:	0123cc33          	xor	s8,t2,s2
    80004290:	001c7c13          	andi	s8,s8,1
    80004294:	00195913          	srli	s2,s2,0x1
    80004298:	000c0863          	beqz	s8,800042a8 <core_bench_list+0x2a4>
    8000429c:	00f94933          	xor	s2,s2,a5
    800042a0:	03091913          	slli	s2,s2,0x30
    800042a4:	03095913          	srli	s2,s2,0x30
    800042a8:	00197c13          	andi	s8,s2,1
    800042ac:	00195913          	srli	s2,s2,0x1
    800042b0:	005c0863          	beq	s8,t0,800042c0 <core_bench_list+0x2bc>
    800042b4:	00f94933          	xor	s2,s2,a5
    800042b8:	03091913          	slli	s2,s2,0x30
    800042bc:	03095913          	srli	s2,s2,0x30
    800042c0:	01264c33          	xor	s8,a2,s2
    800042c4:	001c7c13          	andi	s8,s8,1
    800042c8:	00195913          	srli	s2,s2,0x1
    800042cc:	000c0863          	beqz	s8,800042dc <core_bench_list+0x2d8>
    800042d0:	00f94933          	xor	s2,s2,a5
    800042d4:	03091913          	slli	s2,s2,0x30
    800042d8:	03095913          	srli	s2,s2,0x30
    800042dc:	012fcc33          	xor	s8,t6,s2
    800042e0:	001c7c13          	andi	s8,s8,1
    800042e4:	00195913          	srli	s2,s2,0x1
    800042e8:	000c0863          	beqz	s8,800042f8 <core_bench_list+0x2f4>
    800042ec:	00f94933          	xor	s2,s2,a5
    800042f0:	03091913          	slli	s2,s2,0x30
    800042f4:	03095913          	srli	s2,s2,0x30
    800042f8:	012f4c33          	xor	s8,t5,s2
    800042fc:	001c7c13          	andi	s8,s8,1
    80004300:	00195913          	srli	s2,s2,0x1
    80004304:	000c0863          	beqz	s8,80004314 <core_bench_list+0x310>
    80004308:	00f94933          	xor	s2,s2,a5
    8000430c:	03091913          	slli	s2,s2,0x30
    80004310:	03095913          	srli	s2,s2,0x30
    80004314:	012ecc33          	xor	s8,t4,s2
    80004318:	001c7c13          	andi	s8,s8,1
    8000431c:	00195913          	srli	s2,s2,0x1
    80004320:	000c0863          	beqz	s8,80004330 <core_bench_list+0x32c>
    80004324:	00f94933          	xor	s2,s2,a5
    80004328:	03091913          	slli	s2,s2,0x30
    8000432c:	03095913          	srli	s2,s2,0x30
    80004330:	012e4c33          	xor	s8,t3,s2
    80004334:	001c7c13          	andi	s8,s8,1
    80004338:	00195913          	srli	s2,s2,0x1
    8000433c:	000c0863          	beqz	s8,8000434c <core_bench_list+0x348>
    80004340:	00f94933          	xor	s2,s2,a5
    80004344:	03091913          	slli	s2,s2,0x30
    80004348:	03095913          	srli	s2,s2,0x30
    8000434c:	01234c33          	xor	s8,t1,s2
    80004350:	001c7c13          	andi	s8,s8,1
    80004354:	00195913          	srli	s2,s2,0x1
    80004358:	000c0863          	beqz	s8,80004368 <core_bench_list+0x364>
    8000435c:	00f94933          	xor	s2,s2,a5
    80004360:	03091913          	slli	s2,s2,0x30
    80004364:	03095913          	srli	s2,s2,0x30
    80004368:	0128cc33          	xor	s8,a7,s2
    8000436c:	001c7c13          	andi	s8,s8,1
    80004370:	00195913          	srli	s2,s2,0x1
    80004374:	000c0863          	beqz	s8,80004384 <core_bench_list+0x380>
    80004378:	00f94933          	xor	s2,s2,a5
    8000437c:	03091913          	slli	s2,s2,0x30
    80004380:	03095913          	srli	s2,s2,0x30
    80004384:	00197c13          	andi	s8,s2,1
    80004388:	00195913          	srli	s2,s2,0x1
    8000438c:	010c0863          	beq	s8,a6,8000439c <core_bench_list+0x398>
    80004390:	00f94933          	xor	s2,s2,a5
    80004394:	03091913          	slli	s2,s2,0x30
    80004398:	03095913          	srli	s2,s2,0x30
    8000439c:	00073703          	ld	a4,0(a4)
    800043a0:	e40712e3          	bnez	a4,800041e4 <core_bench_list+0x1e0>
    800043a4:	0085b703          	ld	a4,8(a1)
    800043a8:	0005b783          	ld	a5,0(a1)
    800043ac:	00100313          	li	t1,1
    800043b0:	00e53423          	sd	a4,8(a0)
    800043b4:	0145b423          	sd	s4,8(a1)
    800043b8:	00f53023          	sd	a5,0(a0)
    800043bc:	00a5b023          	sd	a0,0(a1)
    800043c0:	00000613          	li	a2,0
    800043c4:	00000f13          	li	t5,0
    800043c8:	00000f93          	li	t6,0
    800043cc:	00100293          	li	t0,1
    800043d0:	001f8f9b          	addiw	t6,t6,1
    800043d4:	00040793          	mv	a5,s0
    800043d8:	00000713          	li	a4,0
    800043dc:	0007b783          	ld	a5,0(a5)
    800043e0:	0017071b          	addiw	a4,a4,1
    800043e4:	00078463          	beqz	a5,800043ec <core_bench_list+0x3e8>
    800043e8:	fee31ae3          	bne	t1,a4,800043dc <core_bench_list+0x3d8>
    800043ec:	00030593          	mv	a1,t1
    800043f0:	06070a63          	beqz	a4,80004464 <core_bench_list+0x460>
    800043f4:	10058c63          	beqz	a1,8000450c <core_bench_list+0x508>
    800043f8:	10078a63          	beqz	a5,8000450c <core_bench_list+0x508>
    800043fc:	00843803          	ld	a6,8(s0)
    80004400:	0087b503          	ld	a0,8(a5)
    80004404:	00081683          	lh	a3,0(a6)
    80004408:	00251e03          	lh	t3,2(a0)
    8000440c:	00281e83          	lh	t4,2(a6)
    80004410:	0106989b          	slliw	a7,a3,0x10
    80004414:	0108d89b          	srliw	a7,a7,0x10
    80004418:	f006f693          	andi	a3,a3,-256
    8000441c:	0088d89b          	srliw	a7,a7,0x8
    80004420:	0116e6b3          	or	a3,a3,a7
    80004424:	00d81023          	sh	a3,0(a6)
    80004428:	00051683          	lh	a3,0(a0)
    8000442c:	0106981b          	slliw	a6,a3,0x10
    80004430:	0108581b          	srliw	a6,a6,0x10
    80004434:	f006f693          	andi	a3,a3,-256
    80004438:	0088581b          	srliw	a6,a6,0x8
    8000443c:	0106e6b3          	or	a3,a3,a6
    80004440:	00d51023          	sh	a3,0(a0)
    80004444:	0dde5463          	bge	t3,t4,8000450c <core_bench_list+0x508>
    80004448:	00078693          	mv	a3,a5
    8000444c:	0007b783          	ld	a5,0(a5)
    80004450:	fff5859b          	addiw	a1,a1,-1
    80004454:	02060463          	beqz	a2,8000447c <core_bench_list+0x478>
    80004458:	00d63023          	sd	a3,0(a2)
    8000445c:	00068613          	mv	a2,a3
    80004460:	f8071ae3          	bnez	a4,800043f4 <core_bench_list+0x3f0>
    80004464:	0a058c63          	beqz	a1,8000451c <core_bench_list+0x518>
    80004468:	0c078063          	beqz	a5,80004528 <core_bench_list+0x524>
    8000446c:	00078693          	mv	a3,a5
    80004470:	fff5859b          	addiw	a1,a1,-1
    80004474:	0007b783          	ld	a5,0(a5)
    80004478:	fe0610e3          	bnez	a2,80004458 <core_bench_list+0x454>
    8000447c:	00068f13          	mv	t5,a3
    80004480:	00068613          	mv	a2,a3
    80004484:	fddff06f          	j	80004460 <core_bench_list+0x45c>
    80004488:	0087b683          	ld	a3,8(a5)
    8000448c:	00078713          	mv	a4,a5
    80004490:	0007b783          	ld	a5,0(a5)
    80004494:	0006c683          	lbu	a3,0(a3)
    80004498:	01968e63          	beq	a3,s9,800044b4 <core_bench_list+0x4b0>
    8000449c:	ce0784e3          	beqz	a5,80004184 <core_bench_list+0x180>
    800044a0:	0087b683          	ld	a3,8(a5)
    800044a4:	00078713          	mv	a4,a5
    800044a8:	0007b783          	ld	a5,0(a5)
    800044ac:	0006c683          	lbu	a3,0(a3)
    800044b0:	ff9696e3          	bne	a3,s9,8000449c <core_bench_list+0x498>
    800044b4:	00043583          	ld	a1,0(s0)
    800044b8:	cd9ff06f          	j	80004190 <core_bench_list+0x18c>
    800044bc:	3c040a63          	beqz	s0,80004890 <core_bench_list+0x88c>
    800044c0:	000c869b          	sext.w	a3,s9
    800044c4:	00040793          	mv	a5,s0
    800044c8:	00c0006f          	j	800044d4 <core_bench_list+0x4d0>
    800044cc:	0007b783          	ld	a5,0(a5)
    800044d0:	bc0780e3          	beqz	a5,80004090 <core_bench_list+0x8c>
    800044d4:	0087b703          	ld	a4,8(a5)
    800044d8:	00074703          	lbu	a4,0(a4)
    800044dc:	fed718e3          	bne	a4,a3,800044cc <core_bench_list+0x4c8>
    800044e0:	bb1ff06f          	j	80004090 <core_bench_list+0x8c>
    800044e4:	0086b783          	ld	a5,8(a3)
    800044e8:	0018889b          	addiw	a7,a7,1
    800044ec:	03089893          	slli	a7,a7,0x30
    800044f0:	00178783          	lb	a5,1(a5)
    800044f4:	0308d893          	srli	a7,a7,0x30
    800044f8:	0017f793          	andi	a5,a5,1
    800044fc:	010787bb          	addw	a5,a5,a6
    80004500:	03079813          	slli	a6,a5,0x30
    80004504:	03085813          	srli	a6,a6,0x30
    80004508:	bf9ff06f          	j	80004100 <core_bench_list+0xfc>
    8000450c:	00040693          	mv	a3,s0
    80004510:	fff7071b          	addiw	a4,a4,-1
    80004514:	00043403          	ld	s0,0(s0)
    80004518:	f3dff06f          	j	80004454 <core_bench_list+0x450>
    8000451c:	00078663          	beqz	a5,80004528 <core_bench_list+0x524>
    80004520:	00078413          	mv	s0,a5
    80004524:	eadff06f          	j	800043d0 <core_bench_list+0x3cc>
    80004528:	00063023          	sd	zero,0(a2)
    8000452c:	025f8663          	beq	t6,t0,80004558 <core_bench_list+0x554>
    80004530:	0013131b          	slliw	t1,t1,0x1
    80004534:	000f0e63          	beqz	t5,80004550 <core_bench_list+0x54c>
    80004538:	000f0793          	mv	a5,t5
    8000453c:	00000f93          	li	t6,0
    80004540:	00000613          	li	a2,0
    80004544:	00000f13          	li	t5,0
    80004548:	00078413          	mv	s0,a5
    8000454c:	e85ff06f          	j	800043d0 <core_bench_list+0x3cc>
    80004550:	00003023          	sd	zero,0(zero) # 0 <_start-0x80000000>
    80004554:	00100073          	ebreak
    80004558:	000f3603          	ld	a2,0(t5)
    8000455c:	20060c63          	beqz	a2,80004774 <core_bench_list+0x770>
    80004560:	008f3703          	ld	a4,8(t5)
    80004564:	ffffa7b7          	lui	a5,0xffffa
    80004568:	00178793          	addi	a5,a5,1 # ffffffffffffa001 <_pmem_end+0xffffffff77ffa001>
    8000456c:	00071703          	lh	a4,0(a4)
    80004570:	00875693          	srli	a3,a4,0x8
    80004574:	0ff6f693          	zext.b	a3,a3
    80004578:	0ff77713          	zext.b	a4,a4
    8000457c:	00175993          	srli	s3,a4,0x1
    80004580:	00275493          	srli	s1,a4,0x2
    80004584:	00375413          	srli	s0,a4,0x3
    80004588:	00475393          	srli	t2,a4,0x4
    8000458c:	00575293          	srli	t0,a4,0x5
    80004590:	00675f93          	srli	t6,a4,0x6
    80004594:	00775f13          	srli	t5,a4,0x7
    80004598:	0016de93          	srli	t4,a3,0x1
    8000459c:	0026de13          	srli	t3,a3,0x2
    800045a0:	0036d313          	srli	t1,a3,0x3
    800045a4:	0046d893          	srli	a7,a3,0x4
    800045a8:	0056d813          	srli	a6,a3,0x5
    800045ac:	0066d513          	srli	a0,a3,0x6
    800045b0:	0076d593          	srli	a1,a3,0x7
    800045b4:	01274a33          	xor	s4,a4,s2
    800045b8:	001a7a13          	andi	s4,s4,1
    800045bc:	00195913          	srli	s2,s2,0x1
    800045c0:	000a0863          	beqz	s4,800045d0 <core_bench_list+0x5cc>
    800045c4:	00f94933          	xor	s2,s2,a5
    800045c8:	03091913          	slli	s2,s2,0x30
    800045cc:	03095913          	srli	s2,s2,0x30
    800045d0:	0129ca33          	xor	s4,s3,s2
    800045d4:	001a7a13          	andi	s4,s4,1
    800045d8:	00195913          	srli	s2,s2,0x1
    800045dc:	000a0863          	beqz	s4,800045ec <core_bench_list+0x5e8>
    800045e0:	00f94933          	xor	s2,s2,a5
    800045e4:	03091913          	slli	s2,s2,0x30
    800045e8:	03095913          	srli	s2,s2,0x30
    800045ec:	0124ca33          	xor	s4,s1,s2
    800045f0:	001a7a13          	andi	s4,s4,1
    800045f4:	00195913          	srli	s2,s2,0x1
    800045f8:	000a0863          	beqz	s4,80004608 <core_bench_list+0x604>
    800045fc:	00f94933          	xor	s2,s2,a5
    80004600:	03091913          	slli	s2,s2,0x30
    80004604:	03095913          	srli	s2,s2,0x30
    80004608:	01244a33          	xor	s4,s0,s2
    8000460c:	001a7a13          	andi	s4,s4,1
    80004610:	00195913          	srli	s2,s2,0x1
    80004614:	000a0863          	beqz	s4,80004624 <core_bench_list+0x620>
    80004618:	00f94933          	xor	s2,s2,a5
    8000461c:	03091913          	slli	s2,s2,0x30
    80004620:	03095913          	srli	s2,s2,0x30
    80004624:	0123ca33          	xor	s4,t2,s2
    80004628:	001a7a13          	andi	s4,s4,1
    8000462c:	00195913          	srli	s2,s2,0x1
    80004630:	000a0863          	beqz	s4,80004640 <core_bench_list+0x63c>
    80004634:	00f94933          	xor	s2,s2,a5
    80004638:	03091913          	slli	s2,s2,0x30
    8000463c:	03095913          	srli	s2,s2,0x30
    80004640:	0122ca33          	xor	s4,t0,s2
    80004644:	001a7a13          	andi	s4,s4,1
    80004648:	00195913          	srli	s2,s2,0x1
    8000464c:	000a0863          	beqz	s4,8000465c <core_bench_list+0x658>
    80004650:	00f94933          	xor	s2,s2,a5
    80004654:	03091913          	slli	s2,s2,0x30
    80004658:	03095913          	srli	s2,s2,0x30
    8000465c:	012fca33          	xor	s4,t6,s2
    80004660:	001a7a13          	andi	s4,s4,1
    80004664:	00195913          	srli	s2,s2,0x1
    80004668:	000a0863          	beqz	s4,80004678 <core_bench_list+0x674>
    8000466c:	00f94933          	xor	s2,s2,a5
    80004670:	03091913          	slli	s2,s2,0x30
    80004674:	03095913          	srli	s2,s2,0x30
    80004678:	00197a13          	andi	s4,s2,1
    8000467c:	00195913          	srli	s2,s2,0x1
    80004680:	01ea0863          	beq	s4,t5,80004690 <core_bench_list+0x68c>
    80004684:	00f94933          	xor	s2,s2,a5
    80004688:	03091913          	slli	s2,s2,0x30
    8000468c:	03095913          	srli	s2,s2,0x30
    80004690:	0126ca33          	xor	s4,a3,s2
    80004694:	001a7a13          	andi	s4,s4,1
    80004698:	00195913          	srli	s2,s2,0x1
    8000469c:	000a0863          	beqz	s4,800046ac <core_bench_list+0x6a8>
    800046a0:	00f94933          	xor	s2,s2,a5
    800046a4:	03091913          	slli	s2,s2,0x30
    800046a8:	03095913          	srli	s2,s2,0x30
    800046ac:	012eca33          	xor	s4,t4,s2
    800046b0:	001a7a13          	andi	s4,s4,1
    800046b4:	00195913          	srli	s2,s2,0x1
    800046b8:	000a0863          	beqz	s4,800046c8 <core_bench_list+0x6c4>
    800046bc:	00f94933          	xor	s2,s2,a5
    800046c0:	03091913          	slli	s2,s2,0x30
    800046c4:	03095913          	srli	s2,s2,0x30
    800046c8:	012e4a33          	xor	s4,t3,s2
    800046cc:	001a7a13          	andi	s4,s4,1
    800046d0:	00195913          	srli	s2,s2,0x1
    800046d4:	000a0863          	beqz	s4,800046e4 <core_bench_list+0x6e0>
    800046d8:	00f94933          	xor	s2,s2,a5
    800046dc:	03091913          	slli	s2,s2,0x30
    800046e0:	03095913          	srli	s2,s2,0x30
    800046e4:	01234a33          	xor	s4,t1,s2
    800046e8:	001a7a13          	andi	s4,s4,1
    800046ec:	00195913          	srli	s2,s2,0x1
    800046f0:	000a0863          	beqz	s4,80004700 <core_bench_list+0x6fc>
    800046f4:	00f94933          	xor	s2,s2,a5
    800046f8:	03091913          	slli	s2,s2,0x30
    800046fc:	03095913          	srli	s2,s2,0x30
    80004700:	0128ca33          	xor	s4,a7,s2
    80004704:	001a7a13          	andi	s4,s4,1
    80004708:	00195913          	srli	s2,s2,0x1
    8000470c:	000a0863          	beqz	s4,8000471c <core_bench_list+0x718>
    80004710:	00f94933          	xor	s2,s2,a5
    80004714:	03091913          	slli	s2,s2,0x30
    80004718:	03095913          	srli	s2,s2,0x30
    8000471c:	01284a33          	xor	s4,a6,s2
    80004720:	001a7a13          	andi	s4,s4,1
    80004724:	00195913          	srli	s2,s2,0x1
    80004728:	000a0863          	beqz	s4,80004738 <core_bench_list+0x734>
    8000472c:	00f94933          	xor	s2,s2,a5
    80004730:	03091913          	slli	s2,s2,0x30
    80004734:	03095913          	srli	s2,s2,0x30
    80004738:	01254a33          	xor	s4,a0,s2
    8000473c:	001a7a13          	andi	s4,s4,1
    80004740:	00195913          	srli	s2,s2,0x1
    80004744:	000a0863          	beqz	s4,80004754 <core_bench_list+0x750>
    80004748:	00f94933          	xor	s2,s2,a5
    8000474c:	03091913          	slli	s2,s2,0x30
    80004750:	03095913          	srli	s2,s2,0x30
    80004754:	00197a13          	andi	s4,s2,1
    80004758:	00195913          	srli	s2,s2,0x1
    8000475c:	00ba0863          	beq	s4,a1,8000476c <core_bench_list+0x768>
    80004760:	00f94933          	xor	s2,s2,a5
    80004764:	03091913          	slli	s2,s2,0x30
    80004768:	03095913          	srli	s2,s2,0x30
    8000476c:	00063603          	ld	a2,0(a2)
    80004770:	e40612e3          	bnez	a2,800045b4 <core_bench_list+0x5b0>
    80004774:	06813083          	ld	ra,104(sp)
    80004778:	06013403          	ld	s0,96(sp)
    8000477c:	05813483          	ld	s1,88(sp)
    80004780:	04813983          	ld	s3,72(sp)
    80004784:	04013a03          	ld	s4,64(sp)
    80004788:	03813a83          	ld	s5,56(sp)
    8000478c:	03013b03          	ld	s6,48(sp)
    80004790:	02813b83          	ld	s7,40(sp)
    80004794:	02013c03          	ld	s8,32(sp)
    80004798:	01813c83          	ld	s9,24(sp)
    8000479c:	01013d03          	ld	s10,16(sp)
    800047a0:	00813d83          	ld	s11,8(sp)
    800047a4:	00090513          	mv	a0,s2
    800047a8:	05013903          	ld	s2,80(sp)
    800047ac:	07010113          	addi	sp,sp,112
    800047b0:	00008067          	ret
    800047b4:	00100d13          	li	s10,1
    800047b8:	d8040ce3          	beqz	s0,80004550 <core_bench_list+0x54c>
    800047bc:	00000993          	li	s3,0
    800047c0:	00000b13          	li	s6,0
    800047c4:	00000b93          	li	s7,0
    800047c8:	001b8b9b          	addiw	s7,s7,1
    800047cc:	00040793          	mv	a5,s0
    800047d0:	00000493          	li	s1,0
    800047d4:	0007b783          	ld	a5,0(a5)
    800047d8:	0014849b          	addiw	s1,s1,1
    800047dc:	00078463          	beqz	a5,800047e4 <core_bench_list+0x7e0>
    800047e0:	ffa49ae3          	bne	s1,s10,800047d4 <core_bench_list+0x7d0>
    800047e4:	00040a93          	mv	s5,s0
    800047e8:	000d0a13          	mv	s4,s10
    800047ec:	00078413          	mv	s0,a5
    800047f0:	02048e63          	beqz	s1,8000482c <core_bench_list+0x828>
    800047f4:	040a0e63          	beqz	s4,80004850 <core_bench_list+0x84c>
    800047f8:	04040c63          	beqz	s0,80004850 <core_bench_list+0x84c>
    800047fc:	00843583          	ld	a1,8(s0)
    80004800:	008ab503          	ld	a0,8(s5)
    80004804:	000d8613          	mv	a2,s11
    80004808:	c01fe0ef          	jal	ra,80003408 <cmp_complex>
    8000480c:	04a05263          	blez	a0,80004850 <core_bench_list+0x84c>
    80004810:	00040793          	mv	a5,s0
    80004814:	00043403          	ld	s0,0(s0)
    80004818:	fffa0a1b          	addiw	s4,s4,-1
    8000481c:	02098463          	beqz	s3,80004844 <core_bench_list+0x840>
    80004820:	00f9b023          	sd	a5,0(s3)
    80004824:	00078993          	mv	s3,a5
    80004828:	fc0496e3          	bnez	s1,800047f4 <core_bench_list+0x7f0>
    8000482c:	020a0a63          	beqz	s4,80004860 <core_bench_list+0x85c>
    80004830:	02040a63          	beqz	s0,80004864 <core_bench_list+0x860>
    80004834:	00040793          	mv	a5,s0
    80004838:	fffa0a1b          	addiw	s4,s4,-1
    8000483c:	00043403          	ld	s0,0(s0)
    80004840:	fe0990e3          	bnez	s3,80004820 <core_bench_list+0x81c>
    80004844:	00078b13          	mv	s6,a5
    80004848:	00078993          	mv	s3,a5
    8000484c:	fddff06f          	j	80004828 <core_bench_list+0x824>
    80004850:	000a8793          	mv	a5,s5
    80004854:	fff4849b          	addiw	s1,s1,-1
    80004858:	000aba83          	ld	s5,0(s5)
    8000485c:	fc1ff06f          	j	8000481c <core_bench_list+0x818>
    80004860:	f60414e3          	bnez	s0,800047c8 <core_bench_list+0x7c4>
    80004864:	0009b023          	sd	zero,0(s3)
    80004868:	00100793          	li	a5,1
    8000486c:	00fb8863          	beq	s7,a5,8000487c <core_bench_list+0x878>
    80004870:	001d1d1b          	slliw	s10,s10,0x1
    80004874:	000b0413          	mv	s0,s6
    80004878:	f41ff06f          	j	800047b8 <core_bench_list+0x7b4>
    8000487c:	000b0413          	mv	s0,s6
    80004880:	8b9ff06f          	j	80004138 <core_bench_list+0x134>
    80004884:	00000913          	li	s2,0
    80004888:	00000c93          	li	s9,0
    8000488c:	8a9ff06f          	j	80004134 <core_bench_list+0x130>
    80004890:	00003783          	ld	a5,0(zero) # 0 <_start-0x80000000>
    80004894:	00100073          	ebreak

0000000080004898 <iterate>:
    80004898:	fd010113          	addi	sp,sp,-48
    8000489c:	00913c23          	sd	s1,24(sp)
    800048a0:	02c52483          	lw	s1,44(a0)
    800048a4:	02813023          	sd	s0,32(sp)
    800048a8:	01213823          	sd	s2,16(sp)
    800048ac:	01313423          	sd	s3,8(sp)
    800048b0:	02113423          	sd	ra,40(sp)
    800048b4:	ffffa937          	lui	s2,0xffffa
    800048b8:	06053023          	sd	zero,96(a0)
    800048bc:	00050993          	mv	s3,a0
    800048c0:	00000413          	li	s0,0
    800048c4:	00190913          	addi	s2,s2,1 # ffffffffffffa001 <_pmem_end+0xffffffff77ffa001>
    800048c8:	42048463          	beqz	s1,80004cf0 <iterate+0x458>
    800048cc:	00100593          	li	a1,1
    800048d0:	00098513          	mv	a0,s3
    800048d4:	f30ff0ef          	jal	ra,80004004 <core_bench_list>
    800048d8:	0609d783          	lhu	a5,96(s3)
    800048dc:	0ff57713          	zext.b	a4,a0
    800048e0:	00175613          	srli	a2,a4,0x1
    800048e4:	00f746b3          	xor	a3,a4,a5
    800048e8:	0016f693          	andi	a3,a3,1
    800048ec:	42069263          	bnez	a3,80004d10 <iterate+0x478>
    800048f0:	0017d793          	srli	a5,a5,0x1
    800048f4:	00f64633          	xor	a2,a2,a5
    800048f8:	00167613          	andi	a2,a2,1
    800048fc:	00275693          	srli	a3,a4,0x2
    80004900:	0017d793          	srli	a5,a5,0x1
    80004904:	00060863          	beqz	a2,80004914 <iterate+0x7c>
    80004908:	0127c7b3          	xor	a5,a5,s2
    8000490c:	03079793          	slli	a5,a5,0x30
    80004910:	0307d793          	srli	a5,a5,0x30
    80004914:	00f6c6b3          	xor	a3,a3,a5
    80004918:	0016f693          	andi	a3,a3,1
    8000491c:	00375613          	srli	a2,a4,0x3
    80004920:	0017d793          	srli	a5,a5,0x1
    80004924:	00068863          	beqz	a3,80004934 <iterate+0x9c>
    80004928:	0127c7b3          	xor	a5,a5,s2
    8000492c:	03079793          	slli	a5,a5,0x30
    80004930:	0307d793          	srli	a5,a5,0x30
    80004934:	00f64633          	xor	a2,a2,a5
    80004938:	00167613          	andi	a2,a2,1
    8000493c:	00475693          	srli	a3,a4,0x4
    80004940:	0017d793          	srli	a5,a5,0x1
    80004944:	00060863          	beqz	a2,80004954 <iterate+0xbc>
    80004948:	0127c7b3          	xor	a5,a5,s2
    8000494c:	03079793          	slli	a5,a5,0x30
    80004950:	0307d793          	srli	a5,a5,0x30
    80004954:	00f6c6b3          	xor	a3,a3,a5
    80004958:	0016f693          	andi	a3,a3,1
    8000495c:	00575613          	srli	a2,a4,0x5
    80004960:	0017d793          	srli	a5,a5,0x1
    80004964:	00068863          	beqz	a3,80004974 <iterate+0xdc>
    80004968:	0127c7b3          	xor	a5,a5,s2
    8000496c:	03079793          	slli	a5,a5,0x30
    80004970:	0307d793          	srli	a5,a5,0x30
    80004974:	00f64633          	xor	a2,a2,a5
    80004978:	00167613          	andi	a2,a2,1
    8000497c:	00675693          	srli	a3,a4,0x6
    80004980:	0017d793          	srli	a5,a5,0x1
    80004984:	00060863          	beqz	a2,80004994 <iterate+0xfc>
    80004988:	0127c7b3          	xor	a5,a5,s2
    8000498c:	03079793          	slli	a5,a5,0x30
    80004990:	0307d793          	srli	a5,a5,0x30
    80004994:	00f6c6b3          	xor	a3,a3,a5
    80004998:	0016f693          	andi	a3,a3,1
    8000499c:	00775713          	srli	a4,a4,0x7
    800049a0:	0017d793          	srli	a5,a5,0x1
    800049a4:	00068863          	beqz	a3,800049b4 <iterate+0x11c>
    800049a8:	0127c7b3          	xor	a5,a5,s2
    800049ac:	03079793          	slli	a5,a5,0x30
    800049b0:	0307d793          	srli	a5,a5,0x30
    800049b4:	0017f693          	andi	a3,a5,1
    800049b8:	0017d793          	srli	a5,a5,0x1
    800049bc:	00e68863          	beq	a3,a4,800049cc <iterate+0x134>
    800049c0:	0127c7b3          	xor	a5,a5,s2
    800049c4:	03079793          	slli	a5,a5,0x30
    800049c8:	0307d793          	srli	a5,a5,0x30
    800049cc:	0085551b          	srliw	a0,a0,0x8
    800049d0:	0ff57513          	zext.b	a0,a0
    800049d4:	00f54733          	xor	a4,a0,a5
    800049d8:	00177713          	andi	a4,a4,1
    800049dc:	00155693          	srli	a3,a0,0x1
    800049e0:	0017d793          	srli	a5,a5,0x1
    800049e4:	00070863          	beqz	a4,800049f4 <iterate+0x15c>
    800049e8:	0127c7b3          	xor	a5,a5,s2
    800049ec:	03079793          	slli	a5,a5,0x30
    800049f0:	0307d793          	srli	a5,a5,0x30
    800049f4:	00f6c6b3          	xor	a3,a3,a5
    800049f8:	0016f693          	andi	a3,a3,1
    800049fc:	00255713          	srli	a4,a0,0x2
    80004a00:	0017d793          	srli	a5,a5,0x1
    80004a04:	00068863          	beqz	a3,80004a14 <iterate+0x17c>
    80004a08:	0127c7b3          	xor	a5,a5,s2
    80004a0c:	03079793          	slli	a5,a5,0x30
    80004a10:	0307d793          	srli	a5,a5,0x30
    80004a14:	00f74733          	xor	a4,a4,a5
    80004a18:	00177713          	andi	a4,a4,1
    80004a1c:	00355693          	srli	a3,a0,0x3
    80004a20:	0017d793          	srli	a5,a5,0x1
    80004a24:	00070863          	beqz	a4,80004a34 <iterate+0x19c>
    80004a28:	0127c7b3          	xor	a5,a5,s2
    80004a2c:	03079793          	slli	a5,a5,0x30
    80004a30:	0307d793          	srli	a5,a5,0x30
    80004a34:	00f6c6b3          	xor	a3,a3,a5
    80004a38:	0016f693          	andi	a3,a3,1
    80004a3c:	00455713          	srli	a4,a0,0x4
    80004a40:	0017d793          	srli	a5,a5,0x1
    80004a44:	00068863          	beqz	a3,80004a54 <iterate+0x1bc>
    80004a48:	0127c7b3          	xor	a5,a5,s2
    80004a4c:	03079793          	slli	a5,a5,0x30
    80004a50:	0307d793          	srli	a5,a5,0x30
    80004a54:	00f74733          	xor	a4,a4,a5
    80004a58:	00177713          	andi	a4,a4,1
    80004a5c:	00555693          	srli	a3,a0,0x5
    80004a60:	0017d793          	srli	a5,a5,0x1
    80004a64:	00070863          	beqz	a4,80004a74 <iterate+0x1dc>
    80004a68:	0127c7b3          	xor	a5,a5,s2
    80004a6c:	03079793          	slli	a5,a5,0x30
    80004a70:	0307d793          	srli	a5,a5,0x30
    80004a74:	00f6c6b3          	xor	a3,a3,a5
    80004a78:	0016f693          	andi	a3,a3,1
    80004a7c:	00655713          	srli	a4,a0,0x6
    80004a80:	0017d793          	srli	a5,a5,0x1
    80004a84:	00068863          	beqz	a3,80004a94 <iterate+0x1fc>
    80004a88:	0127c7b3          	xor	a5,a5,s2
    80004a8c:	03079793          	slli	a5,a5,0x30
    80004a90:	0307d793          	srli	a5,a5,0x30
    80004a94:	00f74733          	xor	a4,a4,a5
    80004a98:	00177713          	andi	a4,a4,1
    80004a9c:	00755513          	srli	a0,a0,0x7
    80004aa0:	0017d793          	srli	a5,a5,0x1
    80004aa4:	00070863          	beqz	a4,80004ab4 <iterate+0x21c>
    80004aa8:	0127c7b3          	xor	a5,a5,s2
    80004aac:	03079793          	slli	a5,a5,0x30
    80004ab0:	0307d793          	srli	a5,a5,0x30
    80004ab4:	0017f713          	andi	a4,a5,1
    80004ab8:	0017d793          	srli	a5,a5,0x1
    80004abc:	00a70863          	beq	a4,a0,80004acc <iterate+0x234>
    80004ac0:	0127c7b3          	xor	a5,a5,s2
    80004ac4:	03079793          	slli	a5,a5,0x30
    80004ac8:	0307d793          	srli	a5,a5,0x30
    80004acc:	06f99023          	sh	a5,96(s3)
    80004ad0:	fff00593          	li	a1,-1
    80004ad4:	00098513          	mv	a0,s3
    80004ad8:	d2cff0ef          	jal	ra,80004004 <core_bench_list>
    80004adc:	0609d683          	lhu	a3,96(s3)
    80004ae0:	0ff57713          	zext.b	a4,a0
    80004ae4:	00175613          	srli	a2,a4,0x1
    80004ae8:	00d745b3          	xor	a1,a4,a3
    80004aec:	0015f593          	andi	a1,a1,1
    80004af0:	0016d793          	srli	a5,a3,0x1
    80004af4:	00058a63          	beqz	a1,80004b08 <iterate+0x270>
    80004af8:	0016d69b          	srliw	a3,a3,0x1
    80004afc:	00d946b3          	xor	a3,s2,a3
    80004b00:	03069793          	slli	a5,a3,0x30
    80004b04:	0307d793          	srli	a5,a5,0x30
    80004b08:	00f64633          	xor	a2,a2,a5
    80004b0c:	00167613          	andi	a2,a2,1
    80004b10:	00275693          	srli	a3,a4,0x2
    80004b14:	0017d793          	srli	a5,a5,0x1
    80004b18:	00060863          	beqz	a2,80004b28 <iterate+0x290>
    80004b1c:	0127c7b3          	xor	a5,a5,s2
    80004b20:	03079793          	slli	a5,a5,0x30
    80004b24:	0307d793          	srli	a5,a5,0x30
    80004b28:	00f6c6b3          	xor	a3,a3,a5
    80004b2c:	0016f693          	andi	a3,a3,1
    80004b30:	00375613          	srli	a2,a4,0x3
    80004b34:	0017d793          	srli	a5,a5,0x1
    80004b38:	00068863          	beqz	a3,80004b48 <iterate+0x2b0>
    80004b3c:	0127c7b3          	xor	a5,a5,s2
    80004b40:	03079793          	slli	a5,a5,0x30
    80004b44:	0307d793          	srli	a5,a5,0x30
    80004b48:	00f64633          	xor	a2,a2,a5
    80004b4c:	00167613          	andi	a2,a2,1
    80004b50:	00475693          	srli	a3,a4,0x4
    80004b54:	0017d793          	srli	a5,a5,0x1
    80004b58:	00060863          	beqz	a2,80004b68 <iterate+0x2d0>
    80004b5c:	0127c7b3          	xor	a5,a5,s2
    80004b60:	03079793          	slli	a5,a5,0x30
    80004b64:	0307d793          	srli	a5,a5,0x30
    80004b68:	00f6c6b3          	xor	a3,a3,a5
    80004b6c:	0016f693          	andi	a3,a3,1
    80004b70:	00575613          	srli	a2,a4,0x5
    80004b74:	0017d793          	srli	a5,a5,0x1
    80004b78:	00068863          	beqz	a3,80004b88 <iterate+0x2f0>
    80004b7c:	0127c7b3          	xor	a5,a5,s2
    80004b80:	03079793          	slli	a5,a5,0x30
    80004b84:	0307d793          	srli	a5,a5,0x30
    80004b88:	00f64633          	xor	a2,a2,a5
    80004b8c:	00167613          	andi	a2,a2,1
    80004b90:	00675693          	srli	a3,a4,0x6
    80004b94:	0017d793          	srli	a5,a5,0x1
    80004b98:	00060863          	beqz	a2,80004ba8 <iterate+0x310>
    80004b9c:	0127c7b3          	xor	a5,a5,s2
    80004ba0:	03079793          	slli	a5,a5,0x30
    80004ba4:	0307d793          	srli	a5,a5,0x30
    80004ba8:	00f6c6b3          	xor	a3,a3,a5
    80004bac:	0016f693          	andi	a3,a3,1
    80004bb0:	00775713          	srli	a4,a4,0x7
    80004bb4:	0017d793          	srli	a5,a5,0x1
    80004bb8:	00068863          	beqz	a3,80004bc8 <iterate+0x330>
    80004bbc:	0127c7b3          	xor	a5,a5,s2
    80004bc0:	03079793          	slli	a5,a5,0x30
    80004bc4:	0307d793          	srli	a5,a5,0x30
    80004bc8:	0017f693          	andi	a3,a5,1
    80004bcc:	0017d793          	srli	a5,a5,0x1
    80004bd0:	00e68863          	beq	a3,a4,80004be0 <iterate+0x348>
    80004bd4:	0127c7b3          	xor	a5,a5,s2
    80004bd8:	03079793          	slli	a5,a5,0x30
    80004bdc:	0307d793          	srli	a5,a5,0x30
    80004be0:	0085551b          	srliw	a0,a0,0x8
    80004be4:	0ff57513          	zext.b	a0,a0
    80004be8:	00f54733          	xor	a4,a0,a5
    80004bec:	00177713          	andi	a4,a4,1
    80004bf0:	00155693          	srli	a3,a0,0x1
    80004bf4:	0017d793          	srli	a5,a5,0x1
    80004bf8:	00070863          	beqz	a4,80004c08 <iterate+0x370>
    80004bfc:	0127c7b3          	xor	a5,a5,s2
    80004c00:	03079793          	slli	a5,a5,0x30
    80004c04:	0307d793          	srli	a5,a5,0x30
    80004c08:	00f6c6b3          	xor	a3,a3,a5
    80004c0c:	0016f693          	andi	a3,a3,1
    80004c10:	00255713          	srli	a4,a0,0x2
    80004c14:	0017d793          	srli	a5,a5,0x1
    80004c18:	00068863          	beqz	a3,80004c28 <iterate+0x390>
    80004c1c:	0127c7b3          	xor	a5,a5,s2
    80004c20:	03079793          	slli	a5,a5,0x30
    80004c24:	0307d793          	srli	a5,a5,0x30
    80004c28:	00f74733          	xor	a4,a4,a5
    80004c2c:	00177713          	andi	a4,a4,1
    80004c30:	00355693          	srli	a3,a0,0x3
    80004c34:	0017d793          	srli	a5,a5,0x1
    80004c38:	00070863          	beqz	a4,80004c48 <iterate+0x3b0>
    80004c3c:	0127c7b3          	xor	a5,a5,s2
    80004c40:	03079793          	slli	a5,a5,0x30
    80004c44:	0307d793          	srli	a5,a5,0x30
    80004c48:	00f6c6b3          	xor	a3,a3,a5
    80004c4c:	0016f693          	andi	a3,a3,1
    80004c50:	00455713          	srli	a4,a0,0x4
    80004c54:	0017d793          	srli	a5,a5,0x1
    80004c58:	00068863          	beqz	a3,80004c68 <iterate+0x3d0>
    80004c5c:	0127c7b3          	xor	a5,a5,s2
    80004c60:	03079793          	slli	a5,a5,0x30
    80004c64:	0307d793          	srli	a5,a5,0x30
    80004c68:	00f74733          	xor	a4,a4,a5
    80004c6c:	00177713          	andi	a4,a4,1
    80004c70:	00555693          	srli	a3,a0,0x5
    80004c74:	0017d793          	srli	a5,a5,0x1
    80004c78:	00070863          	beqz	a4,80004c88 <iterate+0x3f0>
    80004c7c:	0127c7b3          	xor	a5,a5,s2
    80004c80:	03079793          	slli	a5,a5,0x30
    80004c84:	0307d793          	srli	a5,a5,0x30
    80004c88:	00f6c6b3          	xor	a3,a3,a5
    80004c8c:	0016f693          	andi	a3,a3,1
    80004c90:	00655713          	srli	a4,a0,0x6
    80004c94:	0017d793          	srli	a5,a5,0x1
    80004c98:	00068863          	beqz	a3,80004ca8 <iterate+0x410>
    80004c9c:	0127c7b3          	xor	a5,a5,s2
    80004ca0:	03079793          	slli	a5,a5,0x30
    80004ca4:	0307d793          	srli	a5,a5,0x30
    80004ca8:	00f74733          	xor	a4,a4,a5
    80004cac:	00177713          	andi	a4,a4,1
    80004cb0:	00755513          	srli	a0,a0,0x7
    80004cb4:	0017d793          	srli	a5,a5,0x1
    80004cb8:	00070863          	beqz	a4,80004cc8 <iterate+0x430>
    80004cbc:	0127c7b3          	xor	a5,a5,s2
    80004cc0:	03079793          	slli	a5,a5,0x30
    80004cc4:	0307d793          	srli	a5,a5,0x30
    80004cc8:	0017f713          	andi	a4,a5,1
    80004ccc:	0017d793          	srli	a5,a5,0x1
    80004cd0:	00a70863          	beq	a4,a0,80004ce0 <iterate+0x448>
    80004cd4:	0127c7b3          	xor	a5,a5,s2
    80004cd8:	03079793          	slli	a5,a5,0x30
    80004cdc:	0307d793          	srli	a5,a5,0x30
    80004ce0:	06f99023          	sh	a5,96(s3)
    80004ce4:	04040063          	beqz	s0,80004d24 <iterate+0x48c>
    80004ce8:	0014041b          	addiw	s0,s0,1
    80004cec:	be8490e3          	bne	s1,s0,800048cc <iterate+0x34>
    80004cf0:	02813083          	ld	ra,40(sp)
    80004cf4:	02013403          	ld	s0,32(sp)
    80004cf8:	01813483          	ld	s1,24(sp)
    80004cfc:	01013903          	ld	s2,16(sp)
    80004d00:	00813983          	ld	s3,8(sp)
    80004d04:	00000513          	li	a0,0
    80004d08:	03010113          	addi	sp,sp,48
    80004d0c:	00008067          	ret
    80004d10:	0017d79b          	srliw	a5,a5,0x1
    80004d14:	00f947b3          	xor	a5,s2,a5
    80004d18:	03079793          	slli	a5,a5,0x30
    80004d1c:	0307d793          	srli	a5,a5,0x30
    80004d20:	bd5ff06f          	j	800048f4 <iterate+0x5c>
    80004d24:	06f99123          	sh	a5,98(s3)
    80004d28:	00100793          	li	a5,1
    80004d2c:	fcf482e3          	beq	s1,a5,80004cf0 <iterate+0x458>
    80004d30:	00100413          	li	s0,1
    80004d34:	b99ff06f          	j	800048cc <iterate+0x34>

0000000080004d38 <get_seed_32>:
    80004d38:	00500793          	li	a5,5
    80004d3c:	04a7ee63          	bltu	a5,a0,80004d98 <get_seed_32+0x60>
    80004d40:	00003717          	auipc	a4,0x3
    80004d44:	cd870713          	addi	a4,a4,-808 # 80007a18 <printf_+0x54>
    80004d48:	00251513          	slli	a0,a0,0x2
    80004d4c:	00e50533          	add	a0,a0,a4
    80004d50:	00052783          	lw	a5,0(a0)
    80004d54:	00e787b3          	add	a5,a5,a4
    80004d58:	00078067          	jr	a5
    80004d5c:	00004517          	auipc	a0,0x4
    80004d60:	91c52503          	lw	a0,-1764(a0) # 80008678 <seed5_volatile>
    80004d64:	00008067          	ret
    80004d68:	00004517          	auipc	a0,0x4
    80004d6c:	91852503          	lw	a0,-1768(a0) # 80008680 <seed1_volatile>
    80004d70:	00008067          	ret
    80004d74:	00004517          	auipc	a0,0x4
    80004d78:	90852503          	lw	a0,-1784(a0) # 8000867c <seed2_volatile>
    80004d7c:	00008067          	ret
    80004d80:	00003517          	auipc	a0,0x3
    80004d84:	11052503          	lw	a0,272(a0) # 80007e90 <seed3_volatile>
    80004d88:	00008067          	ret
    80004d8c:	00003517          	auipc	a0,0x3
    80004d90:	10052503          	lw	a0,256(a0) # 80007e8c <seed4_volatile>
    80004d94:	00008067          	ret
    80004d98:	00000513          	li	a0,0
    80004d9c:	00008067          	ret

0000000080004da0 <crcu8>:
    80004da0:	00b546b3          	xor	a3,a0,a1
    80004da4:	0016f693          	andi	a3,a3,1
    80004da8:	00155713          	srli	a4,a0,0x1
    80004dac:	0015d793          	srli	a5,a1,0x1
    80004db0:	00068c63          	beqz	a3,80004dc8 <crcu8+0x28>
    80004db4:	ffffa6b7          	lui	a3,0xffffa
    80004db8:	00168693          	addi	a3,a3,1 # ffffffffffffa001 <_pmem_end+0xffffffff77ffa001>
    80004dbc:	00d7c7b3          	xor	a5,a5,a3
    80004dc0:	03079793          	slli	a5,a5,0x30
    80004dc4:	0307d793          	srli	a5,a5,0x30
    80004dc8:	00f74733          	xor	a4,a4,a5
    80004dcc:	00177713          	andi	a4,a4,1
    80004dd0:	00255693          	srli	a3,a0,0x2
    80004dd4:	0017d793          	srli	a5,a5,0x1
    80004dd8:	00070c63          	beqz	a4,80004df0 <crcu8+0x50>
    80004ddc:	ffffa737          	lui	a4,0xffffa
    80004de0:	00170713          	addi	a4,a4,1 # ffffffffffffa001 <_pmem_end+0xffffffff77ffa001>
    80004de4:	00e7c7b3          	xor	a5,a5,a4
    80004de8:	03079793          	slli	a5,a5,0x30
    80004dec:	0307d793          	srli	a5,a5,0x30
    80004df0:	00f6c6b3          	xor	a3,a3,a5
    80004df4:	0016f693          	andi	a3,a3,1
    80004df8:	00355713          	srli	a4,a0,0x3
    80004dfc:	0017d793          	srli	a5,a5,0x1
    80004e00:	00068c63          	beqz	a3,80004e18 <crcu8+0x78>
    80004e04:	ffffa6b7          	lui	a3,0xffffa
    80004e08:	00168693          	addi	a3,a3,1 # ffffffffffffa001 <_pmem_end+0xffffffff77ffa001>
    80004e0c:	00d7c7b3          	xor	a5,a5,a3
    80004e10:	03079793          	slli	a5,a5,0x30
    80004e14:	0307d793          	srli	a5,a5,0x30
    80004e18:	00f74733          	xor	a4,a4,a5
    80004e1c:	00177713          	andi	a4,a4,1
    80004e20:	00455693          	srli	a3,a0,0x4
    80004e24:	0017d793          	srli	a5,a5,0x1
    80004e28:	00070c63          	beqz	a4,80004e40 <crcu8+0xa0>
    80004e2c:	ffffa737          	lui	a4,0xffffa
    80004e30:	00170713          	addi	a4,a4,1 # ffffffffffffa001 <_pmem_end+0xffffffff77ffa001>
    80004e34:	00e7c7b3          	xor	a5,a5,a4
    80004e38:	03079793          	slli	a5,a5,0x30
    80004e3c:	0307d793          	srli	a5,a5,0x30
    80004e40:	00f6c6b3          	xor	a3,a3,a5
    80004e44:	0016f693          	andi	a3,a3,1
    80004e48:	00555713          	srli	a4,a0,0x5
    80004e4c:	0017d793          	srli	a5,a5,0x1
    80004e50:	00068c63          	beqz	a3,80004e68 <crcu8+0xc8>
    80004e54:	ffffa6b7          	lui	a3,0xffffa
    80004e58:	00168693          	addi	a3,a3,1 # ffffffffffffa001 <_pmem_end+0xffffffff77ffa001>
    80004e5c:	00d7c7b3          	xor	a5,a5,a3
    80004e60:	03079793          	slli	a5,a5,0x30
    80004e64:	0307d793          	srli	a5,a5,0x30
    80004e68:	00f74733          	xor	a4,a4,a5
    80004e6c:	00177713          	andi	a4,a4,1
    80004e70:	00655693          	srli	a3,a0,0x6
    80004e74:	0017d793          	srli	a5,a5,0x1
    80004e78:	00070c63          	beqz	a4,80004e90 <crcu8+0xf0>
    80004e7c:	ffffa737          	lui	a4,0xffffa
    80004e80:	00170713          	addi	a4,a4,1 # ffffffffffffa001 <_pmem_end+0xffffffff77ffa001>
    80004e84:	00e7c7b3          	xor	a5,a5,a4
    80004e88:	03079793          	slli	a5,a5,0x30
    80004e8c:	0307d793          	srli	a5,a5,0x30
    80004e90:	00f6c6b3          	xor	a3,a3,a5
    80004e94:	0016f693          	andi	a3,a3,1
    80004e98:	00755713          	srli	a4,a0,0x7
    80004e9c:	0017d793          	srli	a5,a5,0x1
    80004ea0:	00068c63          	beqz	a3,80004eb8 <crcu8+0x118>
    80004ea4:	ffffa6b7          	lui	a3,0xffffa
    80004ea8:	00168693          	addi	a3,a3,1 # ffffffffffffa001 <_pmem_end+0xffffffff77ffa001>
    80004eac:	00d7c7b3          	xor	a5,a5,a3
    80004eb0:	03079793          	slli	a5,a5,0x30
    80004eb4:	0307d793          	srli	a5,a5,0x30
    80004eb8:	0017f693          	andi	a3,a5,1
    80004ebc:	0017d513          	srli	a0,a5,0x1
    80004ec0:	00e68c63          	beq	a3,a4,80004ed8 <crcu8+0x138>
    80004ec4:	ffffa7b7          	lui	a5,0xffffa
    80004ec8:	00178793          	addi	a5,a5,1 # ffffffffffffa001 <_pmem_end+0xffffffff77ffa001>
    80004ecc:	00f54533          	xor	a0,a0,a5
    80004ed0:	03051513          	slli	a0,a0,0x30
    80004ed4:	03055513          	srli	a0,a0,0x30
    80004ed8:	00008067          	ret

0000000080004edc <crcu16>:
    80004edc:	0ff57793          	zext.b	a5,a0
    80004ee0:	00b7c6b3          	xor	a3,a5,a1
    80004ee4:	0016f693          	andi	a3,a3,1
    80004ee8:	00050713          	mv	a4,a0
    80004eec:	0017d613          	srli	a2,a5,0x1
    80004ef0:	0015d513          	srli	a0,a1,0x1
    80004ef4:	00068c63          	beqz	a3,80004f0c <crcu16+0x30>
    80004ef8:	ffffa6b7          	lui	a3,0xffffa
    80004efc:	00168693          	addi	a3,a3,1 # ffffffffffffa001 <_pmem_end+0xffffffff77ffa001>
    80004f00:	00d54533          	xor	a0,a0,a3
    80004f04:	03051513          	slli	a0,a0,0x30
    80004f08:	03055513          	srli	a0,a0,0x30
    80004f0c:	00a64633          	xor	a2,a2,a0
    80004f10:	00167613          	andi	a2,a2,1
    80004f14:	0027d693          	srli	a3,a5,0x2
    80004f18:	00155513          	srli	a0,a0,0x1
    80004f1c:	00060c63          	beqz	a2,80004f34 <crcu16+0x58>
    80004f20:	ffffa637          	lui	a2,0xffffa
    80004f24:	00160613          	addi	a2,a2,1 # ffffffffffffa001 <_pmem_end+0xffffffff77ffa001>
    80004f28:	00c54533          	xor	a0,a0,a2
    80004f2c:	03051513          	slli	a0,a0,0x30
    80004f30:	03055513          	srli	a0,a0,0x30
    80004f34:	00a6c6b3          	xor	a3,a3,a0
    80004f38:	0016f693          	andi	a3,a3,1
    80004f3c:	0037d613          	srli	a2,a5,0x3
    80004f40:	00155513          	srli	a0,a0,0x1
    80004f44:	00068c63          	beqz	a3,80004f5c <crcu16+0x80>
    80004f48:	ffffa6b7          	lui	a3,0xffffa
    80004f4c:	00168693          	addi	a3,a3,1 # ffffffffffffa001 <_pmem_end+0xffffffff77ffa001>
    80004f50:	00d54533          	xor	a0,a0,a3
    80004f54:	03051513          	slli	a0,a0,0x30
    80004f58:	03055513          	srli	a0,a0,0x30
    80004f5c:	00a64633          	xor	a2,a2,a0
    80004f60:	00167613          	andi	a2,a2,1
    80004f64:	0047d693          	srli	a3,a5,0x4
    80004f68:	00155513          	srli	a0,a0,0x1
    80004f6c:	00060c63          	beqz	a2,80004f84 <crcu16+0xa8>
    80004f70:	ffffa637          	lui	a2,0xffffa
    80004f74:	00160613          	addi	a2,a2,1 # ffffffffffffa001 <_pmem_end+0xffffffff77ffa001>
    80004f78:	00c54533          	xor	a0,a0,a2
    80004f7c:	03051513          	slli	a0,a0,0x30
    80004f80:	03055513          	srli	a0,a0,0x30
    80004f84:	00a6c6b3          	xor	a3,a3,a0
    80004f88:	0016f693          	andi	a3,a3,1
    80004f8c:	0057d613          	srli	a2,a5,0x5
    80004f90:	00155513          	srli	a0,a0,0x1
    80004f94:	00068c63          	beqz	a3,80004fac <crcu16+0xd0>
    80004f98:	ffffa6b7          	lui	a3,0xffffa
    80004f9c:	00168693          	addi	a3,a3,1 # ffffffffffffa001 <_pmem_end+0xffffffff77ffa001>
    80004fa0:	00d54533          	xor	a0,a0,a3
    80004fa4:	03051513          	slli	a0,a0,0x30
    80004fa8:	03055513          	srli	a0,a0,0x30
    80004fac:	00a64633          	xor	a2,a2,a0
    80004fb0:	00167613          	andi	a2,a2,1
    80004fb4:	0067d693          	srli	a3,a5,0x6
    80004fb8:	00155513          	srli	a0,a0,0x1
    80004fbc:	00060c63          	beqz	a2,80004fd4 <crcu16+0xf8>
    80004fc0:	ffffa637          	lui	a2,0xffffa
    80004fc4:	00160613          	addi	a2,a2,1 # ffffffffffffa001 <_pmem_end+0xffffffff77ffa001>
    80004fc8:	00c54533          	xor	a0,a0,a2
    80004fcc:	03051513          	slli	a0,a0,0x30
    80004fd0:	03055513          	srli	a0,a0,0x30
    80004fd4:	00a6c6b3          	xor	a3,a3,a0
    80004fd8:	0016f693          	andi	a3,a3,1
    80004fdc:	0077d793          	srli	a5,a5,0x7
    80004fe0:	00155513          	srli	a0,a0,0x1
    80004fe4:	00068c63          	beqz	a3,80004ffc <crcu16+0x120>
    80004fe8:	ffffa6b7          	lui	a3,0xffffa
    80004fec:	00168693          	addi	a3,a3,1 # ffffffffffffa001 <_pmem_end+0xffffffff77ffa001>
    80004ff0:	00d54533          	xor	a0,a0,a3
    80004ff4:	03051513          	slli	a0,a0,0x30
    80004ff8:	03055513          	srli	a0,a0,0x30
    80004ffc:	00157693          	andi	a3,a0,1
    80005000:	00155513          	srli	a0,a0,0x1
    80005004:	00f68c63          	beq	a3,a5,8000501c <crcu16+0x140>
    80005008:	ffffa7b7          	lui	a5,0xffffa
    8000500c:	00178793          	addi	a5,a5,1 # ffffffffffffa001 <_pmem_end+0xffffffff77ffa001>
    80005010:	00f54533          	xor	a0,a0,a5
    80005014:	03051513          	slli	a0,a0,0x30
    80005018:	03055513          	srli	a0,a0,0x30
    8000501c:	00875793          	srli	a5,a4,0x8
    80005020:	00a7c6b3          	xor	a3,a5,a0
    80005024:	0016f693          	andi	a3,a3,1
    80005028:	00975713          	srli	a4,a4,0x9
    8000502c:	00155513          	srli	a0,a0,0x1
    80005030:	00068c63          	beqz	a3,80005048 <crcu16+0x16c>
    80005034:	ffffa6b7          	lui	a3,0xffffa
    80005038:	00168693          	addi	a3,a3,1 # ffffffffffffa001 <_pmem_end+0xffffffff77ffa001>
    8000503c:	00d54533          	xor	a0,a0,a3
    80005040:	03051513          	slli	a0,a0,0x30
    80005044:	03055513          	srli	a0,a0,0x30
    80005048:	00a74733          	xor	a4,a4,a0
    8000504c:	00177713          	andi	a4,a4,1
    80005050:	0027d693          	srli	a3,a5,0x2
    80005054:	00155513          	srli	a0,a0,0x1
    80005058:	00070c63          	beqz	a4,80005070 <crcu16+0x194>
    8000505c:	ffffa737          	lui	a4,0xffffa
    80005060:	00170713          	addi	a4,a4,1 # ffffffffffffa001 <_pmem_end+0xffffffff77ffa001>
    80005064:	00e54533          	xor	a0,a0,a4
    80005068:	03051513          	slli	a0,a0,0x30
    8000506c:	03055513          	srli	a0,a0,0x30
    80005070:	00a6c733          	xor	a4,a3,a0
    80005074:	00177713          	andi	a4,a4,1
    80005078:	0037d693          	srli	a3,a5,0x3
    8000507c:	00155513          	srli	a0,a0,0x1
    80005080:	00070c63          	beqz	a4,80005098 <crcu16+0x1bc>
    80005084:	ffffa737          	lui	a4,0xffffa
    80005088:	00170713          	addi	a4,a4,1 # ffffffffffffa001 <_pmem_end+0xffffffff77ffa001>
    8000508c:	00e54533          	xor	a0,a0,a4
    80005090:	03051513          	slli	a0,a0,0x30
    80005094:	03055513          	srli	a0,a0,0x30
    80005098:	00a6c6b3          	xor	a3,a3,a0
    8000509c:	0016f693          	andi	a3,a3,1
    800050a0:	0047d713          	srli	a4,a5,0x4
    800050a4:	00155513          	srli	a0,a0,0x1
    800050a8:	00068c63          	beqz	a3,800050c0 <crcu16+0x1e4>
    800050ac:	ffffa6b7          	lui	a3,0xffffa
    800050b0:	00168693          	addi	a3,a3,1 # ffffffffffffa001 <_pmem_end+0xffffffff77ffa001>
    800050b4:	00d54533          	xor	a0,a0,a3
    800050b8:	03051513          	slli	a0,a0,0x30
    800050bc:	03055513          	srli	a0,a0,0x30
    800050c0:	00a74733          	xor	a4,a4,a0
    800050c4:	00177713          	andi	a4,a4,1
    800050c8:	0057d693          	srli	a3,a5,0x5
    800050cc:	00155513          	srli	a0,a0,0x1
    800050d0:	00070c63          	beqz	a4,800050e8 <crcu16+0x20c>
    800050d4:	ffffa737          	lui	a4,0xffffa
    800050d8:	00170713          	addi	a4,a4,1 # ffffffffffffa001 <_pmem_end+0xffffffff77ffa001>
    800050dc:	00e54533          	xor	a0,a0,a4
    800050e0:	03051513          	slli	a0,a0,0x30
    800050e4:	03055513          	srli	a0,a0,0x30
    800050e8:	00a6c6b3          	xor	a3,a3,a0
    800050ec:	0016f693          	andi	a3,a3,1
    800050f0:	0067d713          	srli	a4,a5,0x6
    800050f4:	00155513          	srli	a0,a0,0x1
    800050f8:	00068c63          	beqz	a3,80005110 <crcu16+0x234>
    800050fc:	ffffa6b7          	lui	a3,0xffffa
    80005100:	00168693          	addi	a3,a3,1 # ffffffffffffa001 <_pmem_end+0xffffffff77ffa001>
    80005104:	00d54533          	xor	a0,a0,a3
    80005108:	03051513          	slli	a0,a0,0x30
    8000510c:	03055513          	srli	a0,a0,0x30
    80005110:	00a74733          	xor	a4,a4,a0
    80005114:	00177713          	andi	a4,a4,1
    80005118:	0077d793          	srli	a5,a5,0x7
    8000511c:	00155513          	srli	a0,a0,0x1
    80005120:	00070c63          	beqz	a4,80005138 <crcu16+0x25c>
    80005124:	ffffa737          	lui	a4,0xffffa
    80005128:	00170713          	addi	a4,a4,1 # ffffffffffffa001 <_pmem_end+0xffffffff77ffa001>
    8000512c:	00e54533          	xor	a0,a0,a4
    80005130:	03051513          	slli	a0,a0,0x30
    80005134:	03055513          	srli	a0,a0,0x30
    80005138:	00a7c7b3          	xor	a5,a5,a0
    8000513c:	0017f793          	andi	a5,a5,1
    80005140:	00155513          	srli	a0,a0,0x1
    80005144:	00078c63          	beqz	a5,8000515c <crcu16+0x280>
    80005148:	ffffa7b7          	lui	a5,0xffffa
    8000514c:	00178793          	addi	a5,a5,1 # ffffffffffffa001 <_pmem_end+0xffffffff77ffa001>
    80005150:	00f54533          	xor	a0,a0,a5
    80005154:	03051513          	slli	a0,a0,0x30
    80005158:	03055513          	srli	a0,a0,0x30
    8000515c:	00008067          	ret

0000000080005160 <crcu32>:
    80005160:	0ff57713          	zext.b	a4,a0
    80005164:	00b74833          	xor	a6,a4,a1
    80005168:	03051693          	slli	a3,a0,0x30
    8000516c:	00187813          	andi	a6,a6,1
    80005170:	00050793          	mv	a5,a0
    80005174:	0306d693          	srli	a3,a3,0x30
    80005178:	00175613          	srli	a2,a4,0x1
    8000517c:	0015d513          	srli	a0,a1,0x1
    80005180:	00080c63          	beqz	a6,80005198 <crcu32+0x38>
    80005184:	ffffa5b7          	lui	a1,0xffffa
    80005188:	00158593          	addi	a1,a1,1 # ffffffffffffa001 <_pmem_end+0xffffffff77ffa001>
    8000518c:	00b54533          	xor	a0,a0,a1
    80005190:	03051513          	slli	a0,a0,0x30
    80005194:	03055513          	srli	a0,a0,0x30
    80005198:	00a645b3          	xor	a1,a2,a0
    8000519c:	0015f593          	andi	a1,a1,1
    800051a0:	00275613          	srli	a2,a4,0x2
    800051a4:	00155513          	srli	a0,a0,0x1
    800051a8:	00058c63          	beqz	a1,800051c0 <crcu32+0x60>
    800051ac:	ffffa5b7          	lui	a1,0xffffa
    800051b0:	00158593          	addi	a1,a1,1 # ffffffffffffa001 <_pmem_end+0xffffffff77ffa001>
    800051b4:	00b54533          	xor	a0,a0,a1
    800051b8:	03051513          	slli	a0,a0,0x30
    800051bc:	03055513          	srli	a0,a0,0x30
    800051c0:	00a64633          	xor	a2,a2,a0
    800051c4:	00167613          	andi	a2,a2,1
    800051c8:	00375593          	srli	a1,a4,0x3
    800051cc:	00155513          	srli	a0,a0,0x1
    800051d0:	00060c63          	beqz	a2,800051e8 <crcu32+0x88>
    800051d4:	ffffa637          	lui	a2,0xffffa
    800051d8:	00160613          	addi	a2,a2,1 # ffffffffffffa001 <_pmem_end+0xffffffff77ffa001>
    800051dc:	00c54533          	xor	a0,a0,a2
    800051e0:	03051513          	slli	a0,a0,0x30
    800051e4:	03055513          	srli	a0,a0,0x30
    800051e8:	00a5c5b3          	xor	a1,a1,a0
    800051ec:	0015f593          	andi	a1,a1,1
    800051f0:	00475613          	srli	a2,a4,0x4
    800051f4:	00155513          	srli	a0,a0,0x1
    800051f8:	00058c63          	beqz	a1,80005210 <crcu32+0xb0>
    800051fc:	ffffa5b7          	lui	a1,0xffffa
    80005200:	00158593          	addi	a1,a1,1 # ffffffffffffa001 <_pmem_end+0xffffffff77ffa001>
    80005204:	00b54533          	xor	a0,a0,a1
    80005208:	03051513          	slli	a0,a0,0x30
    8000520c:	03055513          	srli	a0,a0,0x30
    80005210:	00a64633          	xor	a2,a2,a0
    80005214:	00167613          	andi	a2,a2,1
    80005218:	00575593          	srli	a1,a4,0x5
    8000521c:	00155513          	srli	a0,a0,0x1
    80005220:	00060c63          	beqz	a2,80005238 <crcu32+0xd8>
    80005224:	ffffa637          	lui	a2,0xffffa
    80005228:	00160613          	addi	a2,a2,1 # ffffffffffffa001 <_pmem_end+0xffffffff77ffa001>
    8000522c:	00c54533          	xor	a0,a0,a2
    80005230:	03051513          	slli	a0,a0,0x30
    80005234:	03055513          	srli	a0,a0,0x30
    80005238:	00a5c5b3          	xor	a1,a1,a0
    8000523c:	0015f593          	andi	a1,a1,1
    80005240:	00675613          	srli	a2,a4,0x6
    80005244:	00155513          	srli	a0,a0,0x1
    80005248:	00058c63          	beqz	a1,80005260 <crcu32+0x100>
    8000524c:	ffffa5b7          	lui	a1,0xffffa
    80005250:	00158593          	addi	a1,a1,1 # ffffffffffffa001 <_pmem_end+0xffffffff77ffa001>
    80005254:	00b54533          	xor	a0,a0,a1
    80005258:	03051513          	slli	a0,a0,0x30
    8000525c:	03055513          	srli	a0,a0,0x30
    80005260:	00a64633          	xor	a2,a2,a0
    80005264:	00167613          	andi	a2,a2,1
    80005268:	00775713          	srli	a4,a4,0x7
    8000526c:	00155513          	srli	a0,a0,0x1
    80005270:	00060c63          	beqz	a2,80005288 <crcu32+0x128>
    80005274:	ffffa637          	lui	a2,0xffffa
    80005278:	00160613          	addi	a2,a2,1 # ffffffffffffa001 <_pmem_end+0xffffffff77ffa001>
    8000527c:	00c54533          	xor	a0,a0,a2
    80005280:	03051513          	slli	a0,a0,0x30
    80005284:	03055513          	srli	a0,a0,0x30
    80005288:	00157613          	andi	a2,a0,1
    8000528c:	00155513          	srli	a0,a0,0x1
    80005290:	3ce61a63          	bne	a2,a4,80005664 <crcu32+0x504>
    80005294:	0086d713          	srli	a4,a3,0x8
    80005298:	00a74633          	xor	a2,a4,a0
    8000529c:	00167613          	andi	a2,a2,1
    800052a0:	0096d693          	srli	a3,a3,0x9
    800052a4:	00155513          	srli	a0,a0,0x1
    800052a8:	00060c63          	beqz	a2,800052c0 <crcu32+0x160>
    800052ac:	ffffa637          	lui	a2,0xffffa
    800052b0:	00160613          	addi	a2,a2,1 # ffffffffffffa001 <_pmem_end+0xffffffff77ffa001>
    800052b4:	00c54533          	xor	a0,a0,a2
    800052b8:	03051513          	slli	a0,a0,0x30
    800052bc:	03055513          	srli	a0,a0,0x30
    800052c0:	00a6c6b3          	xor	a3,a3,a0
    800052c4:	0016f693          	andi	a3,a3,1
    800052c8:	00275613          	srli	a2,a4,0x2
    800052cc:	00155513          	srli	a0,a0,0x1
    800052d0:	00068c63          	beqz	a3,800052e8 <crcu32+0x188>
    800052d4:	ffffa6b7          	lui	a3,0xffffa
    800052d8:	00168693          	addi	a3,a3,1 # ffffffffffffa001 <_pmem_end+0xffffffff77ffa001>
    800052dc:	00d54533          	xor	a0,a0,a3
    800052e0:	03051513          	slli	a0,a0,0x30
    800052e4:	03055513          	srli	a0,a0,0x30
    800052e8:	00a646b3          	xor	a3,a2,a0
    800052ec:	0016f693          	andi	a3,a3,1
    800052f0:	00375613          	srli	a2,a4,0x3
    800052f4:	00155513          	srli	a0,a0,0x1
    800052f8:	00068c63          	beqz	a3,80005310 <crcu32+0x1b0>
    800052fc:	ffffa6b7          	lui	a3,0xffffa
    80005300:	00168693          	addi	a3,a3,1 # ffffffffffffa001 <_pmem_end+0xffffffff77ffa001>
    80005304:	00d54533          	xor	a0,a0,a3
    80005308:	03051513          	slli	a0,a0,0x30
    8000530c:	03055513          	srli	a0,a0,0x30
    80005310:	00a64633          	xor	a2,a2,a0
    80005314:	00167613          	andi	a2,a2,1
    80005318:	00475693          	srli	a3,a4,0x4
    8000531c:	00155513          	srli	a0,a0,0x1
    80005320:	00060c63          	beqz	a2,80005338 <crcu32+0x1d8>
    80005324:	ffffa637          	lui	a2,0xffffa
    80005328:	00160613          	addi	a2,a2,1 # ffffffffffffa001 <_pmem_end+0xffffffff77ffa001>
    8000532c:	00c54533          	xor	a0,a0,a2
    80005330:	03051513          	slli	a0,a0,0x30
    80005334:	03055513          	srli	a0,a0,0x30
    80005338:	00a6c6b3          	xor	a3,a3,a0
    8000533c:	0016f693          	andi	a3,a3,1
    80005340:	00575613          	srli	a2,a4,0x5
    80005344:	00155513          	srli	a0,a0,0x1
    80005348:	00068c63          	beqz	a3,80005360 <crcu32+0x200>
    8000534c:	ffffa6b7          	lui	a3,0xffffa
    80005350:	00168693          	addi	a3,a3,1 # ffffffffffffa001 <_pmem_end+0xffffffff77ffa001>
    80005354:	00d54533          	xor	a0,a0,a3
    80005358:	03051513          	slli	a0,a0,0x30
    8000535c:	03055513          	srli	a0,a0,0x30
    80005360:	00a64633          	xor	a2,a2,a0
    80005364:	00167613          	andi	a2,a2,1
    80005368:	00675693          	srli	a3,a4,0x6
    8000536c:	00155513          	srli	a0,a0,0x1
    80005370:	00060c63          	beqz	a2,80005388 <crcu32+0x228>
    80005374:	ffffa637          	lui	a2,0xffffa
    80005378:	00160613          	addi	a2,a2,1 # ffffffffffffa001 <_pmem_end+0xffffffff77ffa001>
    8000537c:	00c54533          	xor	a0,a0,a2
    80005380:	03051513          	slli	a0,a0,0x30
    80005384:	03055513          	srli	a0,a0,0x30
    80005388:	00a6c6b3          	xor	a3,a3,a0
    8000538c:	0016f693          	andi	a3,a3,1
    80005390:	00775713          	srli	a4,a4,0x7
    80005394:	00155513          	srli	a0,a0,0x1
    80005398:	00068c63          	beqz	a3,800053b0 <crcu32+0x250>
    8000539c:	ffffa6b7          	lui	a3,0xffffa
    800053a0:	00168693          	addi	a3,a3,1 # ffffffffffffa001 <_pmem_end+0xffffffff77ffa001>
    800053a4:	00d54533          	xor	a0,a0,a3
    800053a8:	03051513          	slli	a0,a0,0x30
    800053ac:	03055513          	srli	a0,a0,0x30
    800053b0:	00a74733          	xor	a4,a4,a0
    800053b4:	00177713          	andi	a4,a4,1
    800053b8:	00155513          	srli	a0,a0,0x1
    800053bc:	28071863          	bnez	a4,8000564c <crcu32+0x4ec>
    800053c0:	0107d71b          	srliw	a4,a5,0x10
    800053c4:	0ff77713          	zext.b	a4,a4
    800053c8:	00a746b3          	xor	a3,a4,a0
    800053cc:	0016f693          	andi	a3,a3,1
    800053d0:	0107d79b          	srliw	a5,a5,0x10
    800053d4:	00175613          	srli	a2,a4,0x1
    800053d8:	00155513          	srli	a0,a0,0x1
    800053dc:	00068c63          	beqz	a3,800053f4 <crcu32+0x294>
    800053e0:	ffffa6b7          	lui	a3,0xffffa
    800053e4:	00168693          	addi	a3,a3,1 # ffffffffffffa001 <_pmem_end+0xffffffff77ffa001>
    800053e8:	00d54533          	xor	a0,a0,a3
    800053ec:	03051513          	slli	a0,a0,0x30
    800053f0:	03055513          	srli	a0,a0,0x30
    800053f4:	00a64633          	xor	a2,a2,a0
    800053f8:	00167613          	andi	a2,a2,1
    800053fc:	00275693          	srli	a3,a4,0x2
    80005400:	00155513          	srli	a0,a0,0x1
    80005404:	00060c63          	beqz	a2,8000541c <crcu32+0x2bc>
    80005408:	ffffa637          	lui	a2,0xffffa
    8000540c:	00160613          	addi	a2,a2,1 # ffffffffffffa001 <_pmem_end+0xffffffff77ffa001>
    80005410:	00c54533          	xor	a0,a0,a2
    80005414:	03051513          	slli	a0,a0,0x30
    80005418:	03055513          	srli	a0,a0,0x30
    8000541c:	00a6c6b3          	xor	a3,a3,a0
    80005420:	0016f693          	andi	a3,a3,1
    80005424:	00375613          	srli	a2,a4,0x3
    80005428:	00155513          	srli	a0,a0,0x1
    8000542c:	00068c63          	beqz	a3,80005444 <crcu32+0x2e4>
    80005430:	ffffa6b7          	lui	a3,0xffffa
    80005434:	00168693          	addi	a3,a3,1 # ffffffffffffa001 <_pmem_end+0xffffffff77ffa001>
    80005438:	00d54533          	xor	a0,a0,a3
    8000543c:	03051513          	slli	a0,a0,0x30
    80005440:	03055513          	srli	a0,a0,0x30
    80005444:	00a64633          	xor	a2,a2,a0
    80005448:	00167613          	andi	a2,a2,1
    8000544c:	00475693          	srli	a3,a4,0x4
    80005450:	00155513          	srli	a0,a0,0x1
    80005454:	00060c63          	beqz	a2,8000546c <crcu32+0x30c>
    80005458:	ffffa637          	lui	a2,0xffffa
    8000545c:	00160613          	addi	a2,a2,1 # ffffffffffffa001 <_pmem_end+0xffffffff77ffa001>
    80005460:	00c54533          	xor	a0,a0,a2
    80005464:	03051513          	slli	a0,a0,0x30
    80005468:	03055513          	srli	a0,a0,0x30
    8000546c:	00a6c6b3          	xor	a3,a3,a0
    80005470:	0016f693          	andi	a3,a3,1
    80005474:	00575613          	srli	a2,a4,0x5
    80005478:	00155513          	srli	a0,a0,0x1
    8000547c:	00068c63          	beqz	a3,80005494 <crcu32+0x334>
    80005480:	ffffa6b7          	lui	a3,0xffffa
    80005484:	00168693          	addi	a3,a3,1 # ffffffffffffa001 <_pmem_end+0xffffffff77ffa001>
    80005488:	00d54533          	xor	a0,a0,a3
    8000548c:	03051513          	slli	a0,a0,0x30
    80005490:	03055513          	srli	a0,a0,0x30
    80005494:	00a64633          	xor	a2,a2,a0
    80005498:	00167613          	andi	a2,a2,1
    8000549c:	00675693          	srli	a3,a4,0x6
    800054a0:	00155513          	srli	a0,a0,0x1
    800054a4:	00060c63          	beqz	a2,800054bc <crcu32+0x35c>
    800054a8:	ffffa637          	lui	a2,0xffffa
    800054ac:	00160613          	addi	a2,a2,1 # ffffffffffffa001 <_pmem_end+0xffffffff77ffa001>
    800054b0:	00c54533          	xor	a0,a0,a2
    800054b4:	03051513          	slli	a0,a0,0x30
    800054b8:	03055513          	srli	a0,a0,0x30
    800054bc:	00a6c6b3          	xor	a3,a3,a0
    800054c0:	0016f693          	andi	a3,a3,1
    800054c4:	00775713          	srli	a4,a4,0x7
    800054c8:	00155513          	srli	a0,a0,0x1
    800054cc:	00068c63          	beqz	a3,800054e4 <crcu32+0x384>
    800054d0:	ffffa6b7          	lui	a3,0xffffa
    800054d4:	00168693          	addi	a3,a3,1 # ffffffffffffa001 <_pmem_end+0xffffffff77ffa001>
    800054d8:	00d54533          	xor	a0,a0,a3
    800054dc:	03051513          	slli	a0,a0,0x30
    800054e0:	03055513          	srli	a0,a0,0x30
    800054e4:	00157693          	andi	a3,a0,1
    800054e8:	00155513          	srli	a0,a0,0x1
    800054ec:	14e69463          	bne	a3,a4,80005634 <crcu32+0x4d4>
    800054f0:	0087d713          	srli	a4,a5,0x8
    800054f4:	00a746b3          	xor	a3,a4,a0
    800054f8:	0016f693          	andi	a3,a3,1
    800054fc:	0097d793          	srli	a5,a5,0x9
    80005500:	00155513          	srli	a0,a0,0x1
    80005504:	00068c63          	beqz	a3,8000551c <crcu32+0x3bc>
    80005508:	ffffa6b7          	lui	a3,0xffffa
    8000550c:	00168693          	addi	a3,a3,1 # ffffffffffffa001 <_pmem_end+0xffffffff77ffa001>
    80005510:	00d54533          	xor	a0,a0,a3
    80005514:	03051513          	slli	a0,a0,0x30
    80005518:	03055513          	srli	a0,a0,0x30
    8000551c:	00a7c7b3          	xor	a5,a5,a0
    80005520:	0017f793          	andi	a5,a5,1
    80005524:	00275693          	srli	a3,a4,0x2
    80005528:	00155513          	srli	a0,a0,0x1
    8000552c:	00078c63          	beqz	a5,80005544 <crcu32+0x3e4>
    80005530:	ffffa7b7          	lui	a5,0xffffa
    80005534:	00178793          	addi	a5,a5,1 # ffffffffffffa001 <_pmem_end+0xffffffff77ffa001>
    80005538:	00f54533          	xor	a0,a0,a5
    8000553c:	03051513          	slli	a0,a0,0x30
    80005540:	03055513          	srli	a0,a0,0x30
    80005544:	00a6c7b3          	xor	a5,a3,a0
    80005548:	0017f793          	andi	a5,a5,1
    8000554c:	00375693          	srli	a3,a4,0x3
    80005550:	00155513          	srli	a0,a0,0x1
    80005554:	00078c63          	beqz	a5,8000556c <crcu32+0x40c>
    80005558:	ffffa7b7          	lui	a5,0xffffa
    8000555c:	00178793          	addi	a5,a5,1 # ffffffffffffa001 <_pmem_end+0xffffffff77ffa001>
    80005560:	00f54533          	xor	a0,a0,a5
    80005564:	03051513          	slli	a0,a0,0x30
    80005568:	03055513          	srli	a0,a0,0x30
    8000556c:	00a6c6b3          	xor	a3,a3,a0
    80005570:	0016f693          	andi	a3,a3,1
    80005574:	00475793          	srli	a5,a4,0x4
    80005578:	00155513          	srli	a0,a0,0x1
    8000557c:	00068c63          	beqz	a3,80005594 <crcu32+0x434>
    80005580:	ffffa6b7          	lui	a3,0xffffa
    80005584:	00168693          	addi	a3,a3,1 # ffffffffffffa001 <_pmem_end+0xffffffff77ffa001>
    80005588:	00d54533          	xor	a0,a0,a3
    8000558c:	03051513          	slli	a0,a0,0x30
    80005590:	03055513          	srli	a0,a0,0x30
    80005594:	00a7c7b3          	xor	a5,a5,a0
    80005598:	0017f793          	andi	a5,a5,1
    8000559c:	00575693          	srli	a3,a4,0x5
    800055a0:	00155513          	srli	a0,a0,0x1
    800055a4:	00078c63          	beqz	a5,800055bc <crcu32+0x45c>
    800055a8:	ffffa7b7          	lui	a5,0xffffa
    800055ac:	00178793          	addi	a5,a5,1 # ffffffffffffa001 <_pmem_end+0xffffffff77ffa001>
    800055b0:	00f54533          	xor	a0,a0,a5
    800055b4:	03051513          	slli	a0,a0,0x30
    800055b8:	03055513          	srli	a0,a0,0x30
    800055bc:	00a6c6b3          	xor	a3,a3,a0
    800055c0:	0016f693          	andi	a3,a3,1
    800055c4:	00675793          	srli	a5,a4,0x6
    800055c8:	00155513          	srli	a0,a0,0x1
    800055cc:	00068c63          	beqz	a3,800055e4 <crcu32+0x484>
    800055d0:	ffffa6b7          	lui	a3,0xffffa
    800055d4:	00168693          	addi	a3,a3,1 # ffffffffffffa001 <_pmem_end+0xffffffff77ffa001>
    800055d8:	00d54533          	xor	a0,a0,a3
    800055dc:	03051513          	slli	a0,a0,0x30
    800055e0:	03055513          	srli	a0,a0,0x30
    800055e4:	00a7c7b3          	xor	a5,a5,a0
    800055e8:	0017f793          	andi	a5,a5,1
    800055ec:	00775713          	srli	a4,a4,0x7
    800055f0:	00155513          	srli	a0,a0,0x1
    800055f4:	00078c63          	beqz	a5,8000560c <crcu32+0x4ac>
    800055f8:	ffffa7b7          	lui	a5,0xffffa
    800055fc:	00178793          	addi	a5,a5,1 # ffffffffffffa001 <_pmem_end+0xffffffff77ffa001>
    80005600:	00f54533          	xor	a0,a0,a5
    80005604:	03051513          	slli	a0,a0,0x30
    80005608:	03055513          	srli	a0,a0,0x30
    8000560c:	00a74733          	xor	a4,a4,a0
    80005610:	00177713          	andi	a4,a4,1
    80005614:	00155513          	srli	a0,a0,0x1
    80005618:	00070c63          	beqz	a4,80005630 <crcu32+0x4d0>
    8000561c:	ffffa7b7          	lui	a5,0xffffa
    80005620:	00178793          	addi	a5,a5,1 # ffffffffffffa001 <_pmem_end+0xffffffff77ffa001>
    80005624:	00f54533          	xor	a0,a0,a5
    80005628:	03051513          	slli	a0,a0,0x30
    8000562c:	03055513          	srli	a0,a0,0x30
    80005630:	00008067          	ret
    80005634:	ffffa737          	lui	a4,0xffffa
    80005638:	00170713          	addi	a4,a4,1 # ffffffffffffa001 <_pmem_end+0xffffffff77ffa001>
    8000563c:	00e54533          	xor	a0,a0,a4
    80005640:	03051513          	slli	a0,a0,0x30
    80005644:	03055513          	srli	a0,a0,0x30
    80005648:	ea9ff06f          	j	800054f0 <crcu32+0x390>
    8000564c:	ffffa737          	lui	a4,0xffffa
    80005650:	00170713          	addi	a4,a4,1 # ffffffffffffa001 <_pmem_end+0xffffffff77ffa001>
    80005654:	00e54533          	xor	a0,a0,a4
    80005658:	03051513          	slli	a0,a0,0x30
    8000565c:	03055513          	srli	a0,a0,0x30
    80005660:	d61ff06f          	j	800053c0 <crcu32+0x260>
    80005664:	ffffa737          	lui	a4,0xffffa
    80005668:	00170713          	addi	a4,a4,1 # ffffffffffffa001 <_pmem_end+0xffffffff77ffa001>
    8000566c:	00e54533          	xor	a0,a0,a4
    80005670:	03051513          	slli	a0,a0,0x30
    80005674:	03055513          	srli	a0,a0,0x30
    80005678:	c1dff06f          	j	80005294 <crcu32+0x134>

000000008000567c <crc16>:
    8000567c:	0ff57793          	zext.b	a5,a0
    80005680:	00b7c6b3          	xor	a3,a5,a1
    80005684:	03051713          	slli	a4,a0,0x30
    80005688:	0016f693          	andi	a3,a3,1
    8000568c:	03075713          	srli	a4,a4,0x30
    80005690:	0017d613          	srli	a2,a5,0x1
    80005694:	0015d513          	srli	a0,a1,0x1
    80005698:	00068c63          	beqz	a3,800056b0 <crc16+0x34>
    8000569c:	ffffa6b7          	lui	a3,0xffffa
    800056a0:	00168693          	addi	a3,a3,1 # ffffffffffffa001 <_pmem_end+0xffffffff77ffa001>
    800056a4:	00d54533          	xor	a0,a0,a3
    800056a8:	03051513          	slli	a0,a0,0x30
    800056ac:	03055513          	srli	a0,a0,0x30
    800056b0:	00a64633          	xor	a2,a2,a0
    800056b4:	00167613          	andi	a2,a2,1
    800056b8:	0027d693          	srli	a3,a5,0x2
    800056bc:	00155513          	srli	a0,a0,0x1
    800056c0:	00060c63          	beqz	a2,800056d8 <crc16+0x5c>
    800056c4:	ffffa637          	lui	a2,0xffffa
    800056c8:	00160613          	addi	a2,a2,1 # ffffffffffffa001 <_pmem_end+0xffffffff77ffa001>
    800056cc:	00c54533          	xor	a0,a0,a2
    800056d0:	03051513          	slli	a0,a0,0x30
    800056d4:	03055513          	srli	a0,a0,0x30
    800056d8:	00a6c6b3          	xor	a3,a3,a0
    800056dc:	0016f693          	andi	a3,a3,1
    800056e0:	0037d613          	srli	a2,a5,0x3
    800056e4:	00155513          	srli	a0,a0,0x1
    800056e8:	00068c63          	beqz	a3,80005700 <crc16+0x84>
    800056ec:	ffffa6b7          	lui	a3,0xffffa
    800056f0:	00168693          	addi	a3,a3,1 # ffffffffffffa001 <_pmem_end+0xffffffff77ffa001>
    800056f4:	00d54533          	xor	a0,a0,a3
    800056f8:	03051513          	slli	a0,a0,0x30
    800056fc:	03055513          	srli	a0,a0,0x30
    80005700:	00a64633          	xor	a2,a2,a0
    80005704:	00167613          	andi	a2,a2,1
    80005708:	0047d693          	srli	a3,a5,0x4
    8000570c:	00155513          	srli	a0,a0,0x1
    80005710:	00060c63          	beqz	a2,80005728 <crc16+0xac>
    80005714:	ffffa637          	lui	a2,0xffffa
    80005718:	00160613          	addi	a2,a2,1 # ffffffffffffa001 <_pmem_end+0xffffffff77ffa001>
    8000571c:	00c54533          	xor	a0,a0,a2
    80005720:	03051513          	slli	a0,a0,0x30
    80005724:	03055513          	srli	a0,a0,0x30
    80005728:	00a6c6b3          	xor	a3,a3,a0
    8000572c:	0016f693          	andi	a3,a3,1
    80005730:	0057d613          	srli	a2,a5,0x5
    80005734:	00155513          	srli	a0,a0,0x1
    80005738:	00068c63          	beqz	a3,80005750 <crc16+0xd4>
    8000573c:	ffffa6b7          	lui	a3,0xffffa
    80005740:	00168693          	addi	a3,a3,1 # ffffffffffffa001 <_pmem_end+0xffffffff77ffa001>
    80005744:	00d54533          	xor	a0,a0,a3
    80005748:	03051513          	slli	a0,a0,0x30
    8000574c:	03055513          	srli	a0,a0,0x30
    80005750:	00a64633          	xor	a2,a2,a0
    80005754:	00167613          	andi	a2,a2,1
    80005758:	0067d693          	srli	a3,a5,0x6
    8000575c:	00155513          	srli	a0,a0,0x1
    80005760:	00060c63          	beqz	a2,80005778 <crc16+0xfc>
    80005764:	ffffa637          	lui	a2,0xffffa
    80005768:	00160613          	addi	a2,a2,1 # ffffffffffffa001 <_pmem_end+0xffffffff77ffa001>
    8000576c:	00c54533          	xor	a0,a0,a2
    80005770:	03051513          	slli	a0,a0,0x30
    80005774:	03055513          	srli	a0,a0,0x30
    80005778:	00a6c6b3          	xor	a3,a3,a0
    8000577c:	0016f693          	andi	a3,a3,1
    80005780:	0077d793          	srli	a5,a5,0x7
    80005784:	00155513          	srli	a0,a0,0x1
    80005788:	00068c63          	beqz	a3,800057a0 <crc16+0x124>
    8000578c:	ffffa6b7          	lui	a3,0xffffa
    80005790:	00168693          	addi	a3,a3,1 # ffffffffffffa001 <_pmem_end+0xffffffff77ffa001>
    80005794:	00d54533          	xor	a0,a0,a3
    80005798:	03051513          	slli	a0,a0,0x30
    8000579c:	03055513          	srli	a0,a0,0x30
    800057a0:	00157693          	andi	a3,a0,1
    800057a4:	00155513          	srli	a0,a0,0x1
    800057a8:	14f69463          	bne	a3,a5,800058f0 <crc16+0x274>
    800057ac:	00875793          	srli	a5,a4,0x8
    800057b0:	00a7c6b3          	xor	a3,a5,a0
    800057b4:	0016f693          	andi	a3,a3,1
    800057b8:	00975713          	srli	a4,a4,0x9
    800057bc:	00155513          	srli	a0,a0,0x1
    800057c0:	00068c63          	beqz	a3,800057d8 <crc16+0x15c>
    800057c4:	ffffa6b7          	lui	a3,0xffffa
    800057c8:	00168693          	addi	a3,a3,1 # ffffffffffffa001 <_pmem_end+0xffffffff77ffa001>
    800057cc:	00d54533          	xor	a0,a0,a3
    800057d0:	03051513          	slli	a0,a0,0x30
    800057d4:	03055513          	srli	a0,a0,0x30
    800057d8:	00a74733          	xor	a4,a4,a0
    800057dc:	00177713          	andi	a4,a4,1
    800057e0:	0027d693          	srli	a3,a5,0x2
    800057e4:	00155513          	srli	a0,a0,0x1
    800057e8:	00070c63          	beqz	a4,80005800 <crc16+0x184>
    800057ec:	ffffa737          	lui	a4,0xffffa
    800057f0:	00170713          	addi	a4,a4,1 # ffffffffffffa001 <_pmem_end+0xffffffff77ffa001>
    800057f4:	00e54533          	xor	a0,a0,a4
    800057f8:	03051513          	slli	a0,a0,0x30
    800057fc:	03055513          	srli	a0,a0,0x30
    80005800:	00a6c733          	xor	a4,a3,a0
    80005804:	00177713          	andi	a4,a4,1
    80005808:	0037d693          	srli	a3,a5,0x3
    8000580c:	00155513          	srli	a0,a0,0x1
    80005810:	00070c63          	beqz	a4,80005828 <crc16+0x1ac>
    80005814:	ffffa737          	lui	a4,0xffffa
    80005818:	00170713          	addi	a4,a4,1 # ffffffffffffa001 <_pmem_end+0xffffffff77ffa001>
    8000581c:	00e54533          	xor	a0,a0,a4
    80005820:	03051513          	slli	a0,a0,0x30
    80005824:	03055513          	srli	a0,a0,0x30
    80005828:	00a6c6b3          	xor	a3,a3,a0
    8000582c:	0016f693          	andi	a3,a3,1
    80005830:	0047d713          	srli	a4,a5,0x4
    80005834:	00155513          	srli	a0,a0,0x1
    80005838:	00068c63          	beqz	a3,80005850 <crc16+0x1d4>
    8000583c:	ffffa6b7          	lui	a3,0xffffa
    80005840:	00168693          	addi	a3,a3,1 # ffffffffffffa001 <_pmem_end+0xffffffff77ffa001>
    80005844:	00d54533          	xor	a0,a0,a3
    80005848:	03051513          	slli	a0,a0,0x30
    8000584c:	03055513          	srli	a0,a0,0x30
    80005850:	00a74733          	xor	a4,a4,a0
    80005854:	00177713          	andi	a4,a4,1
    80005858:	0057d693          	srli	a3,a5,0x5
    8000585c:	00155513          	srli	a0,a0,0x1
    80005860:	00070c63          	beqz	a4,80005878 <crc16+0x1fc>
    80005864:	ffffa737          	lui	a4,0xffffa
    80005868:	00170713          	addi	a4,a4,1 # ffffffffffffa001 <_pmem_end+0xffffffff77ffa001>
    8000586c:	00e54533          	xor	a0,a0,a4
    80005870:	03051513          	slli	a0,a0,0x30
    80005874:	03055513          	srli	a0,a0,0x30
    80005878:	00a6c6b3          	xor	a3,a3,a0
    8000587c:	0016f693          	andi	a3,a3,1
    80005880:	0067d713          	srli	a4,a5,0x6
    80005884:	00155513          	srli	a0,a0,0x1
    80005888:	00068c63          	beqz	a3,800058a0 <crc16+0x224>
    8000588c:	ffffa6b7          	lui	a3,0xffffa
    80005890:	00168693          	addi	a3,a3,1 # ffffffffffffa001 <_pmem_end+0xffffffff77ffa001>
    80005894:	00d54533          	xor	a0,a0,a3
    80005898:	03051513          	slli	a0,a0,0x30
    8000589c:	03055513          	srli	a0,a0,0x30
    800058a0:	00a74733          	xor	a4,a4,a0
    800058a4:	00177713          	andi	a4,a4,1
    800058a8:	0077d793          	srli	a5,a5,0x7
    800058ac:	00155513          	srli	a0,a0,0x1
    800058b0:	00070c63          	beqz	a4,800058c8 <crc16+0x24c>
    800058b4:	ffffa737          	lui	a4,0xffffa
    800058b8:	00170713          	addi	a4,a4,1 # ffffffffffffa001 <_pmem_end+0xffffffff77ffa001>
    800058bc:	00e54533          	xor	a0,a0,a4
    800058c0:	03051513          	slli	a0,a0,0x30
    800058c4:	03055513          	srli	a0,a0,0x30
    800058c8:	00a7c7b3          	xor	a5,a5,a0
    800058cc:	0017f793          	andi	a5,a5,1
    800058d0:	00155513          	srli	a0,a0,0x1
    800058d4:	00078c63          	beqz	a5,800058ec <crc16+0x270>
    800058d8:	ffffa7b7          	lui	a5,0xffffa
    800058dc:	00178793          	addi	a5,a5,1 # ffffffffffffa001 <_pmem_end+0xffffffff77ffa001>
    800058e0:	00f54533          	xor	a0,a0,a5
    800058e4:	03051513          	slli	a0,a0,0x30
    800058e8:	03055513          	srli	a0,a0,0x30
    800058ec:	00008067          	ret
    800058f0:	ffffa7b7          	lui	a5,0xffffa
    800058f4:	00178793          	addi	a5,a5,1 # ffffffffffffa001 <_pmem_end+0xffffffff77ffa001>
    800058f8:	00f54533          	xor	a0,a0,a5
    800058fc:	03051513          	slli	a0,a0,0x30
    80005900:	03055513          	srli	a0,a0,0x30
    80005904:	ea9ff06f          	j	800057ac <crc16+0x130>

0000000080005908 <check_data_types>:
    80005908:	00000513          	li	a0,0
    8000590c:	00008067          	ret

0000000080005910 <start_time>:
    80005910:	b00027f3          	csrr	a5,mcycle
    80005914:	02079793          	slli	a5,a5,0x20
    80005918:	0207d793          	srli	a5,a5,0x20
    8000591c:	00003717          	auipc	a4,0x3
    80005920:	d4f73a23          	sd	a5,-684(a4) # 80008670 <start_time_val>
    80005924:	00008067          	ret

0000000080005928 <stop_time>:
    80005928:	b00027f3          	csrr	a5,mcycle
    8000592c:	02079793          	slli	a5,a5,0x20
    80005930:	0207d793          	srli	a5,a5,0x20
    80005934:	00003717          	auipc	a4,0x3
    80005938:	d2f73a23          	sd	a5,-716(a4) # 80008668 <stop_time_val>
    8000593c:	00008067          	ret

0000000080005940 <get_time>:
    80005940:	00003517          	auipc	a0,0x3
    80005944:	d2853503          	ld	a0,-728(a0) # 80008668 <stop_time_val>
    80005948:	00003797          	auipc	a5,0x3
    8000594c:	d287b783          	ld	a5,-728(a5) # 80008670 <start_time_val>
    80005950:	40f50533          	sub	a0,a0,a5
    80005954:	00008067          	ret

0000000080005958 <time_in_secs>:
    80005958:	3e800793          	li	a5,1000
    8000595c:	02f5553b          	divuw	a0,a0,a5
    80005960:	00008067          	ret

0000000080005964 <portable_init>:
    80005964:	00100793          	li	a5,1
    80005968:	00f50023          	sb	a5,0(a0)
    8000596c:	00008067          	ret

0000000080005970 <portable_fini>:
    80005970:	00050023          	sb	zero,0(a0)
    80005974:	00008067          	ret

Disassembly of section .text.startup:

0000000080005978 <main>:
    80005978:	f4010113          	addi	sp,sp,-192
    8000597c:	00003697          	auipc	a3,0x3
    80005980:	d046a683          	lw	a3,-764(a3) # 80008680 <seed1_volatile>
    80005984:	09313c23          	sd	s3,152(sp)
    80005988:	00003717          	auipc	a4,0x3
    8000598c:	cf472703          	lw	a4,-780(a4) # 8000867c <seed2_volatile>
    80005990:	00100613          	li	a2,1
    80005994:	00002797          	auipc	a5,0x2
    80005998:	4fc7a783          	lw	a5,1276(a5) # 80007e90 <seed3_volatile>
    8000599c:	00002997          	auipc	s3,0x2
    800059a0:	4f09a983          	lw	s3,1264(s3) # 80007e8c <seed4_volatile>
    800059a4:	00f11223          	sh	a5,4(sp)
    800059a8:	0a113c23          	sd	ra,184(sp)
    800059ac:	0a813823          	sd	s0,176(sp)
    800059b0:	0a913423          	sd	s1,168(sp)
    800059b4:	0b213023          	sd	s2,160(sp)
    800059b8:	09413823          	sd	s4,144(sp)
    800059bc:	09513423          	sd	s5,136(sp)
    800059c0:	09613023          	sd	s6,128(sp)
    800059c4:	07713c23          	sd	s7,120(sp)
    800059c8:	06c10523          	sb	a2,106(sp)
    800059cc:	00d11023          	sh	a3,0(sp)
    800059d0:	00e11123          	sh	a4,2(sp)
    800059d4:	03312623          	sw	s3,44(sp)
    800059d8:	00003797          	auipc	a5,0x3
    800059dc:	ca07a783          	lw	a5,-864(a5) # 80008678 <seed5_volatile>
    800059e0:	00079463          	bnez	a5,800059e8 <main+0x70>
    800059e4:	00700793          	li	a5,7
    800059e8:	00013703          	ld	a4,0(sp)
    800059ec:	02f12823          	sw	a5,48(sp)
    800059f0:	01071693          	slli	a3,a4,0x10
    800059f4:	00069a63          	bnez	a3,80005a08 <main+0x90>
    800059f8:	06600713          	li	a4,102
    800059fc:	00012023          	sw	zero,0(sp)
    80005a00:	00e11223          	sh	a4,4(sp)
    80005a04:	00013703          	ld	a4,0(sp)
    80005a08:	01071713          	slli	a4,a4,0x10
    80005a0c:	01075713          	srli	a4,a4,0x10
    80005a10:	00100693          	li	a3,1
    80005a14:	00d71c63          	bne	a4,a3,80005a2c <main+0xb4>
    80005a18:	34153737          	lui	a4,0x34153
    80005a1c:	41570713          	addi	a4,a4,1045 # 34153415 <_start-0x4beacbeb>
    80005a20:	00e12023          	sw	a4,0(sp)
    80005a24:	06600713          	li	a4,102
    80005a28:	00e11223          	sh	a4,4(sp)
    80005a2c:	0027f913          	andi	s2,a5,2
    80005a30:	0017f613          	andi	a2,a5,1
    80005a34:	0047f493          	andi	s1,a5,4
    80005a38:	01203733          	snez	a4,s2
    80005a3c:	00e60733          	add	a4,a2,a4
    80005a40:	009035b3          	snez	a1,s1
    80005a44:	00b705b3          	add	a1,a4,a1
    80005a48:	7d000693          	li	a3,2000
    80005a4c:	02b6d43b          	divuw	s0,a3,a1
    80005a50:	00002597          	auipc	a1,0x2
    80005a54:	44858593          	addi	a1,a1,1096 # 80007e98 <static_memblk>
    80005a58:	00b13423          	sd	a1,8(sp)
    80005a5c:	06011423          	sh	zero,104(sp)
    80005a60:	00060793          	mv	a5,a2
    80005a64:	02812423          	sw	s0,40(sp)
    80005a68:	00040693          	mv	a3,s0
    80005a6c:	060610e3          	bnez	a2,800062cc <__perf_end+0x808>
    80005a70:	040910e3          	bnez	s2,800062b0 <__perf_end+0x7ec>
    80005a74:	020490e3          	bnez	s1,80006294 <__perf_end+0x7d0>
    80005a78:	1c079263          	bnez	a5,80005c3c <__perf_end+0x178>
    80005a7c:	18091c63          	bnez	s2,80005c14 <__perf_end+0x150>
    80005a80:	00048a63          	beqz	s1,80005a94 <main+0x11c>
    80005a84:	02013603          	ld	a2,32(sp)
    80005a88:	00011583          	lh	a1,0(sp)
    80005a8c:	00040513          	mv	a0,s0
    80005a90:	988fc0ef          	jal	ra,80001c18 <core_init_state>
    80005a94:	22098663          	beqz	s3,80005cc0 <__perf_end+0x1fc>
    80005a98:	00003a97          	auipc	s5,0x3
    80005a9c:	bd8a8a93          	addi	s5,s5,-1064 # 80008670 <start_time_val>
    80005aa0:	00003a17          	auipc	s4,0x3
    80005aa4:	bc8a0a13          	addi	s4,s4,-1080 # 80008668 <stop_time_val>
    80005aa8:	00010493          	mv	s1,sp
    80005aac:	b00027f3          	csrr	a5,mcycle
    80005ab0:	02079793          	slli	a5,a5,0x20
    80005ab4:	0207d793          	srli	a5,a5,0x20
    80005ab8:	00fab023          	sd	a5,0(s5)

0000000080005abc <__perf_start>:
    80005abc:	00048513          	mv	a0,s1
    80005ac0:	dd9fe0ef          	jal	ra,80004898 <iterate>

0000000080005ac4 <__perf_end>:
    80005ac4:	b00027f3          	csrr	a5,mcycle
    80005ac8:	00015503          	lhu	a0,0(sp)
    80005acc:	02079793          	slli	a5,a5,0x20
    80005ad0:	0207d793          	srli	a5,a5,0x20
    80005ad4:	00000593          	li	a1,0
    80005ad8:	00fa3023          	sd	a5,0(s4)
    80005adc:	c00ff0ef          	jal	ra,80004edc <crcu16>
    80005ae0:	00050593          	mv	a1,a0
    80005ae4:	00215503          	lhu	a0,2(sp)
    80005ae8:	bf4ff0ef          	jal	ra,80004edc <crcu16>
    80005aec:	00050593          	mv	a1,a0
    80005af0:	00415503          	lhu	a0,4(sp)
    80005af4:	be8ff0ef          	jal	ra,80004edc <crcu16>
    80005af8:	00050593          	mv	a1,a0
    80005afc:	02815503          	lhu	a0,40(sp)
    80005b00:	bdcff0ef          	jal	ra,80004edc <crcu16>
    80005b04:	00008737          	lui	a4,0x8
    80005b08:	0005079b          	sext.w	a5,a0
    80005b0c:	b0570713          	addi	a4,a4,-1275 # 7b05 <_start-0x7fff84fb>
    80005b10:	06e784e3          	beq	a5,a4,80006378 <__perf_end+0x8b4>
    80005b14:	16f77e63          	bgeu	a4,a5,80005c90 <__perf_end+0x1cc>
    80005b18:	00009537          	lui	a0,0x9
    80005b1c:	a0250713          	addi	a4,a0,-1534 # 8a02 <_start-0x7fff75fe>
    80005b20:	7ae78c63          	beq	a5,a4,800062d8 <__perf_end+0x814>
    80005b24:	0000f737          	lui	a4,0xf
    80005b28:	9f570713          	addi	a4,a4,-1547 # e9f5 <_start-0x7fff160b>
    80005b2c:	06e794e3          	bne	a5,a4,80006394 <__perf_end+0x8d0>
    80005b30:	000028b7          	lui	a7,0x2
    80005b34:	0000e337          	lui	t1,0xe
    80005b38:	e3a50513          	addi	a0,a0,-454
    80005b3c:	fd788893          	addi	a7,a7,-41 # 1fd7 <_start-0x7fffe029>
    80005b40:	71430313          	addi	t1,t1,1812 # e714 <_start-0x7fff18ec>
    80005b44:	00002f17          	auipc	t5,0x2
    80005b48:	344f0f13          	addi	t5,t5,836 # 80007e88 <default_num_contexts>
    80005b4c:	000f2e03          	lw	t3,0(t5)
    80005b50:	00000693          	li	a3,0
    80005b54:	00000593          	li	a1,0
    80005b58:	100e0663          	beqz	t3,80005c64 <__perf_end+0x1a0>
    80005b5c:	00100e93          	li	t4,1
    80005b60:	0003031b          	sext.w	t1,t1
    80005b64:	0008889b          	sext.w	a7,a7
    80005b68:	0005051b          	sext.w	a0,a0
    80005b6c:	0780006f          	j	80005be4 <__perf_end+0x120>
    80005b70:	ff27d803          	lhu	a6,-14(a5)
    80005b74:	08680a63          	beq	a6,t1,80005c08 <__perf_end+0x144>
    80005b78:	ffd79c23          	sh	t4,-8(a5)
    80005b7c:	00300f93          	li	t6,3
    80005b80:	00200813          	li	a6,2
    80005b84:	00267793          	andi	a5,a2,2
    80005b88:	02078263          	beqz	a5,80005bac <__perf_end+0xe8>
    80005b8c:	40b707b3          	sub	a5,a4,a1
    80005b90:	00479793          	slli	a5,a5,0x4
    80005b94:	07078793          	addi	a5,a5,112
    80005b98:	002787b3          	add	a5,a5,sp
    80005b9c:	ff47d283          	lhu	t0,-12(a5)
    80005ba0:	01128663          	beq	t0,a7,80005bac <__perf_end+0xe8>
    80005ba4:	ff079c23          	sh	a6,-8(a5)
    80005ba8:	000f8813          	mv	a6,t6
    80005bac:	00467613          	andi	a2,a2,4
    80005bb0:	02060063          	beqz	a2,80005bd0 <__perf_end+0x10c>
    80005bb4:	40b707b3          	sub	a5,a4,a1
    80005bb8:	00479793          	slli	a5,a5,0x4
    80005bbc:	07078793          	addi	a5,a5,112
    80005bc0:	002787b3          	add	a5,a5,sp
    80005bc4:	ff67d703          	lhu	a4,-10(a5)
    80005bc8:	00a70463          	beq	a4,a0,80005bd0 <__perf_end+0x10c>
    80005bcc:	ff079c23          	sh	a6,-8(a5)
    80005bd0:	0016869b          	addiw	a3,a3,1
    80005bd4:	03069693          	slli	a3,a3,0x30
    80005bd8:	0306d693          	srli	a3,a3,0x30
    80005bdc:	0006859b          	sext.w	a1,a3
    80005be0:	07c6fc63          	bgeu	a3,t3,80005c58 <__perf_end+0x194>
    80005be4:	00359713          	slli	a4,a1,0x3
    80005be8:	40b707b3          	sub	a5,a4,a1
    80005bec:	00479793          	slli	a5,a5,0x4
    80005bf0:	07078793          	addi	a5,a5,112
    80005bf4:	002787b3          	add	a5,a5,sp
    80005bf8:	fc07a603          	lw	a2,-64(a5)
    80005bfc:	fe079c23          	sh	zero,-8(a5)
    80005c00:	00167813          	andi	a6,a2,1
    80005c04:	f60816e3          	bnez	a6,80005b70 <__perf_end+0xac>
    80005c08:	00200f93          	li	t6,2
    80005c0c:	00100813          	li	a6,1
    80005c10:	f75ff06f          	j	80005b84 <__perf_end+0xc0>
    80005c14:	00211603          	lh	a2,2(sp)
    80005c18:	00011783          	lh	a5,0(sp)
    80005c1c:	01813583          	ld	a1,24(sp)
    80005c20:	0106161b          	slliw	a2,a2,0x10
    80005c24:	00f66633          	or	a2,a2,a5
    80005c28:	04010693          	addi	a3,sp,64
    80005c2c:	0006061b          	sext.w	a2,a2
    80005c30:	00040513          	mv	a0,s0
    80005c34:	b7dfb0ef          	jal	ra,800017b0 <core_init_matrix>
    80005c38:	e49ff06f          	j	80005a80 <main+0x108>
    80005c3c:	00011603          	lh	a2,0(sp)
    80005c40:	01013583          	ld	a1,16(sp)
    80005c44:	00040513          	mv	a0,s0
    80005c48:	c38fa0ef          	jal	ra,80000080 <core_list_init>
    80005c4c:	02a13c23          	sd	a0,56(sp)
    80005c50:	e20908e3          	beqz	s2,80005a80 <main+0x108>
    80005c54:	fc1ff06f          	j	80005c14 <__perf_end+0x150>
    80005c58:	03012e83          	lw	t4,48(sp)
    80005c5c:	001ef793          	andi	a5,t4,1
    80005c60:	52079a63          	bnez	a5,80006194 <__perf_end+0x6d0>
    80005c64:	0b813083          	ld	ra,184(sp)
    80005c68:	0b013403          	ld	s0,176(sp)
    80005c6c:	0a813483          	ld	s1,168(sp)
    80005c70:	0a013903          	ld	s2,160(sp)
    80005c74:	09813983          	ld	s3,152(sp)
    80005c78:	09013a03          	ld	s4,144(sp)
    80005c7c:	08813a83          	ld	s5,136(sp)
    80005c80:	08013b03          	ld	s6,128(sp)
    80005c84:	07813b83          	ld	s7,120(sp)
    80005c88:	0c010113          	addi	sp,sp,192
    80005c8c:	00008067          	ret
    80005c90:	00002737          	lui	a4,0x2
    80005c94:	8f270713          	addi	a4,a4,-1806 # 18f2 <_start-0x7fffe70e>
    80005c98:	64e78e63          	beq	a5,a4,800062f4 <__perf_end+0x830>
    80005c9c:	000058b7          	lui	a7,0x5
    80005ca0:	eaf88713          	addi	a4,a7,-337 # 4eaf <_start-0x7fffb151>
    80005ca4:	6ee79863          	bne	a5,a4,80006394 <__perf_end+0x8d0>
    80005ca8:	0000e537          	lui	a0,0xe
    80005cac:	00007337          	lui	t1,0x7
    80005cb0:	5a450513          	addi	a0,a0,1444 # e5a4 <_start-0x7fff1a5c>
    80005cb4:	60888893          	addi	a7,a7,1544
    80005cb8:	a7930313          	addi	t1,t1,-1415 # 6a79 <_start-0x7fff9587>
    80005cbc:	e89ff06f          	j	80005b44 <__perf_end+0x80>
    80005cc0:	00100793          	li	a5,1
    80005cc4:	ffffabb7          	lui	s7,0xffffa
    80005cc8:	02f12623          	sw	a5,44(sp)
    80005ccc:	00003a97          	auipc	s5,0x3
    80005cd0:	9a4a8a93          	addi	s5,s5,-1628 # 80008670 <start_time_val>
    80005cd4:	00003a17          	auipc	s4,0x3
    80005cd8:	994a0a13          	addi	s4,s4,-1644 # 80008668 <stop_time_val>
    80005cdc:	00010493          	mv	s1,sp
    80005ce0:	001b8b93          	addi	s7,s7,1 # ffffffffffffa001 <_pmem_end+0xffffffff77ffa001>
    80005ce4:	3e700b13          	li	s6,999
    80005ce8:	02c12703          	lw	a4,44(sp)
    80005cec:	0027179b          	slliw	a5,a4,0x2
    80005cf0:	00e787bb          	addw	a5,a5,a4
    80005cf4:	0017991b          	slliw	s2,a5,0x1
    80005cf8:	03212623          	sw	s2,44(sp)
    80005cfc:	b00029f3          	csrr	s3,mcycle
    80005d00:	02099793          	slli	a5,s3,0x20
    80005d04:	0207d793          	srli	a5,a5,0x20
    80005d08:	00fab023          	sd	a5,0(s5)
    80005d0c:	06013023          	sd	zero,96(sp)
    80005d10:	00000413          	li	s0,0
    80005d14:	42090c63          	beqz	s2,8000614c <__perf_end+0x688>
    80005d18:	00100593          	li	a1,1
    80005d1c:	00048513          	mv	a0,s1
    80005d20:	ae4fe0ef          	jal	ra,80004004 <core_bench_list>
    80005d24:	06015683          	lhu	a3,96(sp)
    80005d28:	0ff57713          	zext.b	a4,a0
    80005d2c:	00175613          	srli	a2,a4,0x1
    80005d30:	00d745b3          	xor	a1,a4,a3
    80005d34:	0015f593          	andi	a1,a1,1
    80005d38:	0016d793          	srli	a5,a3,0x1
    80005d3c:	00058a63          	beqz	a1,80005d50 <__perf_end+0x28c>
    80005d40:	0016d69b          	srliw	a3,a3,0x1
    80005d44:	00dbc6b3          	xor	a3,s7,a3
    80005d48:	03069793          	slli	a5,a3,0x30
    80005d4c:	0307d793          	srli	a5,a5,0x30
    80005d50:	00f64633          	xor	a2,a2,a5
    80005d54:	00167613          	andi	a2,a2,1
    80005d58:	00275693          	srli	a3,a4,0x2
    80005d5c:	0017d793          	srli	a5,a5,0x1
    80005d60:	00060863          	beqz	a2,80005d70 <__perf_end+0x2ac>
    80005d64:	0177c7b3          	xor	a5,a5,s7
    80005d68:	03079793          	slli	a5,a5,0x30
    80005d6c:	0307d793          	srli	a5,a5,0x30
    80005d70:	00f6c6b3          	xor	a3,a3,a5
    80005d74:	0016f693          	andi	a3,a3,1
    80005d78:	00375613          	srli	a2,a4,0x3
    80005d7c:	0017d793          	srli	a5,a5,0x1
    80005d80:	00068863          	beqz	a3,80005d90 <__perf_end+0x2cc>
    80005d84:	0177c7b3          	xor	a5,a5,s7
    80005d88:	03079793          	slli	a5,a5,0x30
    80005d8c:	0307d793          	srli	a5,a5,0x30
    80005d90:	00f64633          	xor	a2,a2,a5
    80005d94:	00167613          	andi	a2,a2,1
    80005d98:	00475693          	srli	a3,a4,0x4
    80005d9c:	0017d793          	srli	a5,a5,0x1
    80005da0:	00060863          	beqz	a2,80005db0 <__perf_end+0x2ec>
    80005da4:	0177c7b3          	xor	a5,a5,s7
    80005da8:	03079793          	slli	a5,a5,0x30
    80005dac:	0307d793          	srli	a5,a5,0x30
    80005db0:	00f6c6b3          	xor	a3,a3,a5
    80005db4:	0016f693          	andi	a3,a3,1
    80005db8:	00575613          	srli	a2,a4,0x5
    80005dbc:	0017d793          	srli	a5,a5,0x1
    80005dc0:	00068863          	beqz	a3,80005dd0 <__perf_end+0x30c>
    80005dc4:	0177c7b3          	xor	a5,a5,s7
    80005dc8:	03079793          	slli	a5,a5,0x30
    80005dcc:	0307d793          	srli	a5,a5,0x30
    80005dd0:	00f64633          	xor	a2,a2,a5
    80005dd4:	00167613          	andi	a2,a2,1
    80005dd8:	00675693          	srli	a3,a4,0x6
    80005ddc:	0017d793          	srli	a5,a5,0x1
    80005de0:	00060863          	beqz	a2,80005df0 <__perf_end+0x32c>
    80005de4:	0177c7b3          	xor	a5,a5,s7
    80005de8:	03079793          	slli	a5,a5,0x30
    80005dec:	0307d793          	srli	a5,a5,0x30
    80005df0:	00f6c6b3          	xor	a3,a3,a5
    80005df4:	0016f693          	andi	a3,a3,1
    80005df8:	00775713          	srli	a4,a4,0x7
    80005dfc:	0017d793          	srli	a5,a5,0x1
    80005e00:	00068863          	beqz	a3,80005e10 <__perf_end+0x34c>
    80005e04:	0177c7b3          	xor	a5,a5,s7
    80005e08:	03079793          	slli	a5,a5,0x30
    80005e0c:	0307d793          	srli	a5,a5,0x30
    80005e10:	0017f693          	andi	a3,a5,1
    80005e14:	0017d793          	srli	a5,a5,0x1
    80005e18:	00e68863          	beq	a3,a4,80005e28 <__perf_end+0x364>
    80005e1c:	0177c7b3          	xor	a5,a5,s7
    80005e20:	03079793          	slli	a5,a5,0x30
    80005e24:	0307d793          	srli	a5,a5,0x30
    80005e28:	0085551b          	srliw	a0,a0,0x8
    80005e2c:	0ff57513          	zext.b	a0,a0
    80005e30:	00f54733          	xor	a4,a0,a5
    80005e34:	00177713          	andi	a4,a4,1
    80005e38:	00155693          	srli	a3,a0,0x1
    80005e3c:	0017d793          	srli	a5,a5,0x1
    80005e40:	00070863          	beqz	a4,80005e50 <__perf_end+0x38c>
    80005e44:	0177c7b3          	xor	a5,a5,s7
    80005e48:	03079793          	slli	a5,a5,0x30
    80005e4c:	0307d793          	srli	a5,a5,0x30
    80005e50:	00f6c6b3          	xor	a3,a3,a5
    80005e54:	0016f693          	andi	a3,a3,1
    80005e58:	00255713          	srli	a4,a0,0x2
    80005e5c:	0017d793          	srli	a5,a5,0x1
    80005e60:	00068863          	beqz	a3,80005e70 <__perf_end+0x3ac>
    80005e64:	0177c7b3          	xor	a5,a5,s7
    80005e68:	03079793          	slli	a5,a5,0x30
    80005e6c:	0307d793          	srli	a5,a5,0x30
    80005e70:	00f74733          	xor	a4,a4,a5
    80005e74:	00177713          	andi	a4,a4,1
    80005e78:	00355693          	srli	a3,a0,0x3
    80005e7c:	0017d793          	srli	a5,a5,0x1
    80005e80:	00070863          	beqz	a4,80005e90 <__perf_end+0x3cc>
    80005e84:	0177c7b3          	xor	a5,a5,s7
    80005e88:	03079793          	slli	a5,a5,0x30
    80005e8c:	0307d793          	srli	a5,a5,0x30
    80005e90:	00f6c6b3          	xor	a3,a3,a5
    80005e94:	0016f693          	andi	a3,a3,1
    80005e98:	00455713          	srli	a4,a0,0x4
    80005e9c:	0017d793          	srli	a5,a5,0x1
    80005ea0:	00068863          	beqz	a3,80005eb0 <__perf_end+0x3ec>
    80005ea4:	0177c7b3          	xor	a5,a5,s7
    80005ea8:	03079793          	slli	a5,a5,0x30
    80005eac:	0307d793          	srli	a5,a5,0x30
    80005eb0:	00f74733          	xor	a4,a4,a5
    80005eb4:	00177713          	andi	a4,a4,1
    80005eb8:	00555693          	srli	a3,a0,0x5
    80005ebc:	0017d793          	srli	a5,a5,0x1
    80005ec0:	00070863          	beqz	a4,80005ed0 <__perf_end+0x40c>
    80005ec4:	0177c7b3          	xor	a5,a5,s7
    80005ec8:	03079793          	slli	a5,a5,0x30
    80005ecc:	0307d793          	srli	a5,a5,0x30
    80005ed0:	00f6c6b3          	xor	a3,a3,a5
    80005ed4:	0016f693          	andi	a3,a3,1
    80005ed8:	00655713          	srli	a4,a0,0x6
    80005edc:	0017d793          	srli	a5,a5,0x1
    80005ee0:	00068863          	beqz	a3,80005ef0 <__perf_end+0x42c>
    80005ee4:	0177c7b3          	xor	a5,a5,s7
    80005ee8:	03079793          	slli	a5,a5,0x30
    80005eec:	0307d793          	srli	a5,a5,0x30
    80005ef0:	00f74733          	xor	a4,a4,a5
    80005ef4:	00177713          	andi	a4,a4,1
    80005ef8:	00755513          	srli	a0,a0,0x7
    80005efc:	0017d793          	srli	a5,a5,0x1
    80005f00:	00070863          	beqz	a4,80005f10 <__perf_end+0x44c>
    80005f04:	0177c7b3          	xor	a5,a5,s7
    80005f08:	03079793          	slli	a5,a5,0x30
    80005f0c:	0307d793          	srli	a5,a5,0x30
    80005f10:	0017f713          	andi	a4,a5,1
    80005f14:	0017d793          	srli	a5,a5,0x1
    80005f18:	00a70863          	beq	a4,a0,80005f28 <__perf_end+0x464>
    80005f1c:	0177c7b3          	xor	a5,a5,s7
    80005f20:	03079793          	slli	a5,a5,0x30
    80005f24:	0307d793          	srli	a5,a5,0x30
    80005f28:	fff00593          	li	a1,-1
    80005f2c:	00048513          	mv	a0,s1
    80005f30:	06f11023          	sh	a5,96(sp)
    80005f34:	8d0fe0ef          	jal	ra,80004004 <core_bench_list>
    80005f38:	06015683          	lhu	a3,96(sp)
    80005f3c:	0ff57713          	zext.b	a4,a0
    80005f40:	00175613          	srli	a2,a4,0x1
    80005f44:	00d745b3          	xor	a1,a4,a3
    80005f48:	0015f593          	andi	a1,a1,1
    80005f4c:	0016d793          	srli	a5,a3,0x1
    80005f50:	00058a63          	beqz	a1,80005f64 <__perf_end+0x4a0>
    80005f54:	0016d69b          	srliw	a3,a3,0x1
    80005f58:	00dbc6b3          	xor	a3,s7,a3
    80005f5c:	03069793          	slli	a5,a3,0x30
    80005f60:	0307d793          	srli	a5,a5,0x30
    80005f64:	00f64633          	xor	a2,a2,a5
    80005f68:	00167613          	andi	a2,a2,1
    80005f6c:	00275693          	srli	a3,a4,0x2
    80005f70:	0017d793          	srli	a5,a5,0x1
    80005f74:	00060863          	beqz	a2,80005f84 <__perf_end+0x4c0>
    80005f78:	0177c7b3          	xor	a5,a5,s7
    80005f7c:	03079793          	slli	a5,a5,0x30
    80005f80:	0307d793          	srli	a5,a5,0x30
    80005f84:	00f6c6b3          	xor	a3,a3,a5
    80005f88:	0016f693          	andi	a3,a3,1
    80005f8c:	00375613          	srli	a2,a4,0x3
    80005f90:	0017d793          	srli	a5,a5,0x1
    80005f94:	00068863          	beqz	a3,80005fa4 <__perf_end+0x4e0>
    80005f98:	0177c7b3          	xor	a5,a5,s7
    80005f9c:	03079793          	slli	a5,a5,0x30
    80005fa0:	0307d793          	srli	a5,a5,0x30
    80005fa4:	00f64633          	xor	a2,a2,a5
    80005fa8:	00167613          	andi	a2,a2,1
    80005fac:	00475693          	srli	a3,a4,0x4
    80005fb0:	0017d793          	srli	a5,a5,0x1
    80005fb4:	00060863          	beqz	a2,80005fc4 <__perf_end+0x500>
    80005fb8:	0177c7b3          	xor	a5,a5,s7
    80005fbc:	03079793          	slli	a5,a5,0x30
    80005fc0:	0307d793          	srli	a5,a5,0x30
    80005fc4:	00f6c6b3          	xor	a3,a3,a5
    80005fc8:	0016f693          	andi	a3,a3,1
    80005fcc:	00575613          	srli	a2,a4,0x5
    80005fd0:	0017d793          	srli	a5,a5,0x1
    80005fd4:	00068863          	beqz	a3,80005fe4 <__perf_end+0x520>
    80005fd8:	0177c7b3          	xor	a5,a5,s7
    80005fdc:	03079793          	slli	a5,a5,0x30
    80005fe0:	0307d793          	srli	a5,a5,0x30
    80005fe4:	00f64633          	xor	a2,a2,a5
    80005fe8:	00167613          	andi	a2,a2,1
    80005fec:	00675693          	srli	a3,a4,0x6
    80005ff0:	0017d793          	srli	a5,a5,0x1
    80005ff4:	00060863          	beqz	a2,80006004 <__perf_end+0x540>
    80005ff8:	0177c7b3          	xor	a5,a5,s7
    80005ffc:	03079793          	slli	a5,a5,0x30
    80006000:	0307d793          	srli	a5,a5,0x30
    80006004:	00f6c6b3          	xor	a3,a3,a5
    80006008:	0016f693          	andi	a3,a3,1
    8000600c:	00775713          	srli	a4,a4,0x7
    80006010:	0017d793          	srli	a5,a5,0x1
    80006014:	00068863          	beqz	a3,80006024 <__perf_end+0x560>
    80006018:	0177c7b3          	xor	a5,a5,s7
    8000601c:	03079793          	slli	a5,a5,0x30
    80006020:	0307d793          	srli	a5,a5,0x30
    80006024:	0017f693          	andi	a3,a5,1
    80006028:	0017d793          	srli	a5,a5,0x1
    8000602c:	00e68863          	beq	a3,a4,8000603c <__perf_end+0x578>
    80006030:	0177c7b3          	xor	a5,a5,s7
    80006034:	03079793          	slli	a5,a5,0x30
    80006038:	0307d793          	srli	a5,a5,0x30
    8000603c:	0085551b          	srliw	a0,a0,0x8
    80006040:	0ff57513          	zext.b	a0,a0
    80006044:	00f54733          	xor	a4,a0,a5
    80006048:	00177713          	andi	a4,a4,1
    8000604c:	00155693          	srli	a3,a0,0x1
    80006050:	0017d793          	srli	a5,a5,0x1
    80006054:	00070863          	beqz	a4,80006064 <__perf_end+0x5a0>
    80006058:	0177c7b3          	xor	a5,a5,s7
    8000605c:	03079793          	slli	a5,a5,0x30
    80006060:	0307d793          	srli	a5,a5,0x30
    80006064:	00f6c6b3          	xor	a3,a3,a5
    80006068:	0016f693          	andi	a3,a3,1
    8000606c:	00255713          	srli	a4,a0,0x2
    80006070:	0017d793          	srli	a5,a5,0x1
    80006074:	00068863          	beqz	a3,80006084 <__perf_end+0x5c0>
    80006078:	0177c7b3          	xor	a5,a5,s7
    8000607c:	03079793          	slli	a5,a5,0x30
    80006080:	0307d793          	srli	a5,a5,0x30
    80006084:	00f74733          	xor	a4,a4,a5
    80006088:	00177713          	andi	a4,a4,1
    8000608c:	00355693          	srli	a3,a0,0x3
    80006090:	0017d793          	srli	a5,a5,0x1
    80006094:	00070863          	beqz	a4,800060a4 <__perf_end+0x5e0>
    80006098:	0177c7b3          	xor	a5,a5,s7
    8000609c:	03079793          	slli	a5,a5,0x30
    800060a0:	0307d793          	srli	a5,a5,0x30
    800060a4:	00f6c6b3          	xor	a3,a3,a5
    800060a8:	0016f693          	andi	a3,a3,1
    800060ac:	00455713          	srli	a4,a0,0x4
    800060b0:	0017d793          	srli	a5,a5,0x1
    800060b4:	00068863          	beqz	a3,800060c4 <__perf_end+0x600>
    800060b8:	0177c7b3          	xor	a5,a5,s7
    800060bc:	03079793          	slli	a5,a5,0x30
    800060c0:	0307d793          	srli	a5,a5,0x30
    800060c4:	00f74733          	xor	a4,a4,a5
    800060c8:	00177713          	andi	a4,a4,1
    800060cc:	00555693          	srli	a3,a0,0x5
    800060d0:	0017d793          	srli	a5,a5,0x1
    800060d4:	00070863          	beqz	a4,800060e4 <__perf_end+0x620>
    800060d8:	0177c7b3          	xor	a5,a5,s7
    800060dc:	03079793          	slli	a5,a5,0x30
    800060e0:	0307d793          	srli	a5,a5,0x30
    800060e4:	00f6c6b3          	xor	a3,a3,a5
    800060e8:	0016f693          	andi	a3,a3,1
    800060ec:	00655713          	srli	a4,a0,0x6
    800060f0:	0017d793          	srli	a5,a5,0x1
    800060f4:	00068863          	beqz	a3,80006104 <__perf_end+0x640>
    800060f8:	0177c7b3          	xor	a5,a5,s7
    800060fc:	03079793          	slli	a5,a5,0x30
    80006100:	0307d793          	srli	a5,a5,0x30
    80006104:	00f74733          	xor	a4,a4,a5
    80006108:	00177713          	andi	a4,a4,1
    8000610c:	00755513          	srli	a0,a0,0x7
    80006110:	0017d793          	srli	a5,a5,0x1
    80006114:	00070863          	beqz	a4,80006124 <__perf_end+0x660>
    80006118:	0177c7b3          	xor	a5,a5,s7
    8000611c:	03079793          	slli	a5,a5,0x30
    80006120:	0307d793          	srli	a5,a5,0x30
    80006124:	0017f713          	andi	a4,a5,1
    80006128:	0017d793          	srli	a5,a5,0x1
    8000612c:	00a70863          	beq	a4,a0,8000613c <__perf_end+0x678>
    80006130:	0177c7b3          	xor	a5,a5,s7
    80006134:	03079793          	slli	a5,a5,0x30
    80006138:	0307d793          	srli	a5,a5,0x30
    8000613c:	06f11023          	sh	a5,96(sp)
    80006140:	04040463          	beqz	s0,80006188 <__perf_end+0x6c4>
    80006144:	0014041b          	addiw	s0,s0,1
    80006148:	bc8918e3          	bne	s2,s0,80005d18 <__perf_end+0x254>
    8000614c:	b00027f3          	csrr	a5,mcycle
    80006150:	02079713          	slli	a4,a5,0x20
    80006154:	02075713          	srli	a4,a4,0x20
    80006158:	00ea3023          	sd	a4,0(s4)
    8000615c:	413787bb          	subw	a5,a5,s3
    80006160:	b8fb74e3          	bgeu	s6,a5,80005ce8 <__perf_end+0x224>
    80006164:	3e800713          	li	a4,1000
    80006168:	02e7d7bb          	divuw	a5,a5,a4
    8000616c:	00a00713          	li	a4,10
    80006170:	02c12683          	lw	a3,44(sp)
    80006174:	02f757bb          	divuw	a5,a4,a5
    80006178:	0017879b          	addiw	a5,a5,1
    8000617c:	02d787bb          	mulw	a5,a5,a3
    80006180:	02f12623          	sw	a5,44(sp)
    80006184:	929ff06f          	j	80005aac <main+0x134>
    80006188:	06f11123          	sh	a5,98(sp)
    8000618c:	00100413          	li	s0,1
    80006190:	b89ff06f          	j	80005d18 <__perf_end+0x254>
    80006194:	000f2803          	lw	a6,0(t5)
    80006198:	002ef793          	andi	a5,t4,2
    8000619c:	004efe93          	andi	t4,t4,4
    800061a0:	ac0782e3          	beqz	a5,80005c64 <__perf_end+0x1a0>
    800061a4:	000107b7          	lui	a5,0x10
    800061a8:	feb8071b          	addiw	a4,a6,-21
    800061ac:	fea78793          	addi	a5,a5,-22 # ffea <_start-0x7fff0016>
    800061b0:	16e7e663          	bltu	a5,a4,8000631c <__perf_end+0x858>
    800061b4:	ffc87f93          	andi	t6,a6,-4
    800061b8:	030f9913          	slli	s2,t6,0x30
    800061bc:	03095913          	srli	s2,s2,0x30
    800061c0:	0019049b          	addiw	s1,s2,1
    800061c4:	0029041b          	addiw	s0,s2,2
    800061c8:	03049493          	slli	s1,s1,0x30
    800061cc:	03041413          	slli	s0,s0,0x30
    800061d0:	0304d493          	srli	s1,s1,0x30
    800061d4:	03045413          	srli	s0,s0,0x30
    800061d8:	00285e1b          	srliw	t3,a6,0x2
    800061dc:	0004829b          	sext.w	t0,s1
    800061e0:	0004039b          	sext.w	t2,s0
    800061e4:	00002517          	auipc	a0,0x2
    800061e8:	bf453503          	ld	a0,-1036(a0) # 80007dd8 <pow10.0+0x58>
    800061ec:	00002317          	auipc	t1,0x2
    800061f0:	bf433303          	ld	t1,-1036(t1) # 80007de0 <pow10.0+0x60>
    800061f4:	00002897          	auipc	a7,0x2
    800061f8:	bf48b883          	ld	a7,-1036(a7) # 80007de8 <pow10.0+0x68>
    800061fc:	00002f17          	auipc	t5,0x2
    80006200:	bd4f3f03          	ld	t5,-1068(t5) # 80007dd0 <pow10.0+0x50>
    80006204:	00000713          	li	a4,0
    80006208:	0140006f          	j	8000621c <__perf_end+0x758>
    8000620c:	0017871b          	addiw	a4,a5,1
    80006210:	03071713          	slli	a4,a4,0x30
    80006214:	03075713          	srli	a4,a4,0x30
    80006218:	07077463          	bgeu	a4,a6,80006280 <__perf_end+0x7bc>
    8000621c:	00070793          	mv	a5,a4
    80006220:	fe0e86e3          	beqz	t4,8000620c <__perf_end+0x748>
    80006224:	00000613          	li	a2,0
    80006228:	000f0793          	mv	a5,t5
    8000622c:	00a7c6b3          	xor	a3,a5,a0
    80006230:	0117f733          	and	a4,a5,a7
    80006234:	0066f6b3          	and	a3,a3,t1
    80006238:	00a70733          	add	a4,a4,a0
    8000623c:	0016061b          	addiw	a2,a2,1
    80006240:	00078593          	mv	a1,a5
    80006244:	00e6c7b3          	xor	a5,a3,a4
    80006248:	ffc662e3          	bltu	a2,t3,8000622c <__perf_end+0x768>
    8000624c:	0305d593          	srli	a1,a1,0x30
    80006250:	01f80863          	beq	a6,t6,80006260 <__perf_end+0x79c>
    80006254:	1102fa63          	bgeu	t0,a6,80006368 <__perf_end+0x8a4>
    80006258:	1103fc63          	bgeu	t2,a6,80006370 <__perf_end+0x8ac>
    8000625c:	00040593          	mv	a1,s0
    80006260:	0025859b          	addiw	a1,a1,2
    80006264:	03059793          	slli	a5,a1,0x30
    80006268:	0307d793          	srli	a5,a5,0x30
    8000626c:	fb07ece3          	bltu	a5,a6,80006224 <__perf_end+0x760>
    80006270:	0017871b          	addiw	a4,a5,1
    80006274:	03071713          	slli	a4,a4,0x30
    80006278:	03075713          	srli	a4,a4,0x30
    8000627c:	fb0760e3          	bltu	a4,a6,8000621c <__perf_end+0x758>
    80006280:	0027879b          	addiw	a5,a5,2
    80006284:	03079793          	slli	a5,a5,0x30
    80006288:	0307d793          	srli	a5,a5,0x30
    8000628c:	f707ece3          	bltu	a5,a6,80006204 <__perf_end+0x740>
    80006290:	9d5ff06f          	j	80005c64 <__perf_end+0x1a0>
    80006294:	02d7073b          	mulw	a4,a4,a3
    80006298:	02071713          	slli	a4,a4,0x20
    8000629c:	02075713          	srli	a4,a4,0x20
    800062a0:	00e585b3          	add	a1,a1,a4
    800062a4:	02b13023          	sd	a1,32(sp)
    800062a8:	fc078a63          	beqz	a5,80005a7c <main+0x104>
    800062ac:	991ff06f          	j	80005c3c <__perf_end+0x178>
    800062b0:	02d6063b          	mulw	a2,a2,a3
    800062b4:	02061613          	slli	a2,a2,0x20
    800062b8:	02065613          	srli	a2,a2,0x20
    800062bc:	00c58633          	add	a2,a1,a2
    800062c0:	00c13c23          	sd	a2,24(sp)
    800062c4:	fa048a63          	beqz	s1,80005a78 <main+0x100>
    800062c8:	fcdff06f          	j	80006294 <__perf_end+0x7d0>
    800062cc:	00b13823          	sd	a1,16(sp)
    800062d0:	fa090263          	beqz	s2,80005a74 <main+0xfc>
    800062d4:	fddff06f          	j	800062b0 <__perf_end+0x7ec>
    800062d8:	00006537          	lui	a0,0x6
    800062dc:	0000c8b7          	lui	a7,0xc
    800062e0:	0000d337          	lui	t1,0xd
    800062e4:	e4750513          	addi	a0,a0,-441 # 5e47 <_start-0x7fffa1b9>
    800062e8:	e5288893          	addi	a7,a7,-430 # be52 <_start-0x7fff41ae>
    800062ec:	4b030313          	addi	t1,t1,1200 # d4b0 <_start-0x7fff2b50>
    800062f0:	855ff06f          	j	80005b44 <__perf_end+0x80>
    800062f4:	00009537          	lui	a0,0x9
    800062f8:	0000e337          	lui	t1,0xe
    800062fc:	d8450513          	addi	a0,a0,-636 # 8d84 <_start-0x7fff727c>
    80006300:	74700893          	li	a7,1863
    80006304:	3c130313          	addi	t1,t1,961 # e3c1 <_start-0x7fff1c3f>
    80006308:	83dff06f          	j	80005b44 <__perf_end+0x80>
    8000630c:	0027879b          	addiw	a5,a5,2
    80006310:	03079793          	slli	a5,a5,0x30
    80006314:	0307d793          	srli	a5,a5,0x30
    80006318:	9507f6e3          	bgeu	a5,a6,80005c64 <__perf_end+0x1a0>
    8000631c:	00000713          	li	a4,0
    80006320:	0140006f          	j	80006334 <__perf_end+0x870>
    80006324:	0017871b          	addiw	a4,a5,1
    80006328:	03071713          	slli	a4,a4,0x30
    8000632c:	03075713          	srli	a4,a4,0x30
    80006330:	fd077ee3          	bgeu	a4,a6,8000630c <__perf_end+0x848>
    80006334:	00070793          	mv	a5,a4
    80006338:	fe0e86e3          	beqz	t4,80006324 <__perf_end+0x860>
    8000633c:	00000793          	li	a5,0
    80006340:	0017871b          	addiw	a4,a5,1
    80006344:	00078693          	mv	a3,a5
    80006348:	03071793          	slli	a5,a4,0x30
    8000634c:	0307d793          	srli	a5,a5,0x30
    80006350:	ff07e8e3          	bltu	a5,a6,80006340 <__perf_end+0x87c>
    80006354:	0026879b          	addiw	a5,a3,2
    80006358:	03079793          	slli	a5,a5,0x30
    8000635c:	0307d793          	srli	a5,a5,0x30
    80006360:	fd07eee3          	bltu	a5,a6,8000633c <__perf_end+0x878>
    80006364:	fc1ff06f          	j	80006324 <__perf_end+0x860>
    80006368:	00090593          	mv	a1,s2
    8000636c:	ef5ff06f          	j	80006260 <__perf_end+0x79c>
    80006370:	00048593          	mv	a1,s1
    80006374:	eedff06f          	j	80006260 <__perf_end+0x79c>
    80006378:	00004537          	lui	a0,0x4
    8000637c:	000018b7          	lui	a7,0x1
    80006380:	00003337          	lui	t1,0x3
    80006384:	9bf50513          	addi	a0,a0,-1601 # 39bf <_start-0x7fffc641>
    80006388:	19988893          	addi	a7,a7,409 # 1199 <_start-0x7fffee67>
    8000638c:	34030313          	addi	t1,t1,832 # 3340 <_start-0x7fffccc0>
    80006390:	fb4ff06f          	j	80005b44 <__perf_end+0x80>
    80006394:	03012e83          	lw	t4,48(sp)
    80006398:	001ef793          	andi	a5,t4,1
    8000639c:	8c0784e3          	beqz	a5,80005c64 <__perf_end+0x1a0>
    800063a0:	00002817          	auipc	a6,0x2
    800063a4:	ae882803          	lw	a6,-1304(a6) # 80007e88 <default_num_contexts>
    800063a8:	de0818e3          	bnez	a6,80006198 <__perf_end+0x6d4>
    800063ac:	8b9ff06f          	j	80005c64 <__perf_end+0x1a0>

Disassembly of section .text._putc:

00000000800063b0 <_putc>:
    800063b0:	00008067          	ret

Disassembly of section .text._halt:

00000000800063b4 <_halt>:
    800063b4:	ff010113          	addi	sp,sp,-16
    800063b8:	00113423          	sd	ra,8(sp)
    800063bc:	00050593          	mv	a1,a0
    800063c0:	00050513          	mv	a0,a0
    800063c4:	0005006b          	.word	0x0005006b
    800063c8:	00001517          	auipc	a0,0x1
    800063cc:	7e050513          	addi	a0,a0,2016 # 80007ba8 <errpat+0x118>
    800063d0:	5f4010ef          	jal	ra,800079c4 <printf_>
    800063d4:	0000006f          	j	800063d4 <_halt+0x20>

Disassembly of section .text._trm_init:

00000000800063d8 <_trm_init>:
    800063d8:	ff010113          	addi	sp,sp,-16
    800063dc:	00001517          	auipc	a0,0x1
    800063e0:	7e150513          	addi	a0,a0,2017 # 80007bbd <__am_mainargs>
    800063e4:	00113423          	sd	ra,8(sp)
    800063e8:	d90ff0ef          	jal	ra,80005978 <main>
    800063ec:	fc9ff0ef          	jal	ra,800063b4 <_halt>

Disassembly of section .text._out_null:

00000000800063f0 <_out_null>:
    800063f0:	00008067          	ret

Disassembly of section .text._out_rev:

00000000800063f4 <_out_rev>:
    800063f4:	fa010113          	addi	sp,sp,-96
    800063f8:	04913423          	sd	s1,72(sp)
    800063fc:	05213023          	sd	s2,64(sp)
    80006400:	03313c23          	sd	s3,56(sp)
    80006404:	03413823          	sd	s4,48(sp)
    80006408:	03513423          	sd	s5,40(sp)
    8000640c:	03613023          	sd	s6,32(sp)
    80006410:	00060a93          	mv	s5,a2
    80006414:	01813823          	sd	s8,16(sp)
    80006418:	01913423          	sd	s9,8(sp)
    8000641c:	01a13023          	sd	s10,0(sp)
    80006420:	04113c23          	sd	ra,88(sp)
    80006424:	04813823          	sd	s0,80(sp)
    80006428:	01713c23          	sd	s7,24(sp)
    8000642c:	0038f613          	andi	a2,a7,3
    80006430:	00088c93          	mv	s9,a7
    80006434:	00050913          	mv	s2,a0
    80006438:	00058993          	mv	s3,a1
    8000643c:	00068a13          	mv	s4,a3
    80006440:	00070b13          	mv	s6,a4
    80006444:	00078d13          	mv	s10,a5
    80006448:	00080c13          	mv	s8,a6
    8000644c:	000a8493          	mv	s1,s5
    80006450:	02061c63          	bnez	a2,80006488 <_out_rev+0x94>
    80006454:	02081793          	slli	a5,a6,0x20
    80006458:	0207d793          	srli	a5,a5,0x20
    8000645c:	41a784b3          	sub	s1,a5,s10
    80006460:	015484b3          	add	s1,s1,s5
    80006464:	000a8413          	mv	s0,s5
    80006468:	0cfd7063          	bgeu	s10,a5,80006528 <_out_rev+0x134>
    8000646c:	00040613          	mv	a2,s0
    80006470:	000a0693          	mv	a3,s4
    80006474:	00140413          	addi	s0,s0,1
    80006478:	00098593          	mv	a1,s3
    8000647c:	02000513          	li	a0,32
    80006480:	000900e7          	jalr	s2
    80006484:	fe9414e3          	bne	s0,s1,8000646c <_out_rev+0x78>
    80006488:	01ab0433          	add	s0,s6,s10
    8000648c:	00940bb3          	add	s7,s0,s1
    80006490:	020d0263          	beqz	s10,800064b4 <_out_rev+0xc0>
    80006494:	fff44503          	lbu	a0,-1(s0)
    80006498:	408b8633          	sub	a2,s7,s0
    8000649c:	000a0693          	mv	a3,s4
    800064a0:	fff40413          	addi	s0,s0,-1
    800064a4:	00098593          	mv	a1,s3
    800064a8:	000900e7          	jalr	s2
    800064ac:	fe8b14e3          	bne	s6,s0,80006494 <_out_rev+0xa0>
    800064b0:	01a484b3          	add	s1,s1,s10
    800064b4:	002cfc93          	andi	s9,s9,2
    800064b8:	020c8a63          	beqz	s9,800064ec <_out_rev+0xf8>
    800064bc:	020c1c13          	slli	s8,s8,0x20
    800064c0:	41548ab3          	sub	s5,s1,s5
    800064c4:	020c5c13          	srli	s8,s8,0x20
    800064c8:	038af263          	bgeu	s5,s8,800064ec <_out_rev+0xf8>
    800064cc:	00048613          	mv	a2,s1
    800064d0:	001a8a93          	addi	s5,s5,1
    800064d4:	000a0693          	mv	a3,s4
    800064d8:	00098593          	mv	a1,s3
    800064dc:	02000513          	li	a0,32
    800064e0:	00148493          	addi	s1,s1,1
    800064e4:	000900e7          	jalr	s2
    800064e8:	ff8ae2e3          	bltu	s5,s8,800064cc <_out_rev+0xd8>
    800064ec:	05813083          	ld	ra,88(sp)
    800064f0:	05013403          	ld	s0,80(sp)
    800064f4:	04013903          	ld	s2,64(sp)
    800064f8:	03813983          	ld	s3,56(sp)
    800064fc:	03013a03          	ld	s4,48(sp)
    80006500:	02813a83          	ld	s5,40(sp)
    80006504:	02013b03          	ld	s6,32(sp)
    80006508:	01813b83          	ld	s7,24(sp)
    8000650c:	01013c03          	ld	s8,16(sp)
    80006510:	00813c83          	ld	s9,8(sp)
    80006514:	00013d03          	ld	s10,0(sp)
    80006518:	00048513          	mv	a0,s1
    8000651c:	04813483          	ld	s1,72(sp)
    80006520:	06010113          	addi	sp,sp,96
    80006524:	00008067          	ret
    80006528:	000a8493          	mv	s1,s5
    8000652c:	f5dff06f          	j	80006488 <_out_rev+0x94>

Disassembly of section .text._ntoa_long:

0000000080006530 <_ntoa_long>:
    80006530:	fb010113          	addi	sp,sp,-80
    80006534:	04113423          	sd	ra,72(sp)
    80006538:	05812083          	lw	ra,88(sp)
    8000653c:	02913c23          	sd	s1,56(sp)
    80006540:	03313423          	sd	s3,40(sp)
    80006544:	04813023          	sd	s0,64(sp)
    80006548:	03213823          	sd	s2,48(sp)
    8000654c:	00080e93          	mv	t4,a6
    80006550:	00070e13          	mv	t3,a4
    80006554:	05012803          	lw	a6,80(sp)
    80006558:	00078493          	mv	s1,a5
    8000655c:	4000f993          	andi	s3,ra,1024
    80006560:	0c071e63          	bnez	a4,8000663c <_ntoa_long+0x10c>
    80006564:	00008913          	mv	s2,ra
    80006568:	fef0f093          	andi	ra,ra,-17
    8000656c:	0e099463          	bnez	s3,80006654 <_ntoa_long+0x124>
    80006570:	0200f793          	andi	a5,ra,32
    80006574:	00000913          	li	s2,0
    80006578:	06100293          	li	t0,97
    8000657c:	0c079863          	bnez	a5,8000664c <_ntoa_long+0x11c>
    80006580:	00000793          	li	a5,0
    80006584:	00010713          	mv	a4,sp
    80006588:	00900393          	li	t2,9
    8000658c:	ff62829b          	addiw	t0,t0,-10
    80006590:	02000413          	li	s0,32
    80006594:	00c0006f          	j	800065a0 <_ntoa_long+0x70>
    80006598:	02878c63          	beq	a5,s0,800065d0 <_ntoa_long+0xa0>
    8000659c:	00030e13          	mv	t3,t1
    800065a0:	03de7f33          	remu	t5,t3,t4
    800065a4:	0fff7313          	zext.b	t1,t5
    800065a8:	03030f9b          	addiw	t6,t1,48
    800065ac:	0062833b          	addw	t1,t0,t1
    800065b0:	0ff37313          	zext.b	t1,t1
    800065b4:	01e3e463          	bltu	t2,t5,800065bc <_ntoa_long+0x8c>
    800065b8:	0ffff313          	zext.b	t1,t6
    800065bc:	00178793          	addi	a5,a5,1
    800065c0:	00f70f33          	add	t5,a4,a5
    800065c4:	fe6f0fa3          	sb	t1,-1(t5)
    800065c8:	03de5333          	divu	t1,t3,t4
    800065cc:	fdde76e3          	bgeu	t3,t4,80006598 <_ntoa_long+0x68>
    800065d0:	0020f313          	andi	t1,ra,2
    800065d4:	08030863          	beqz	t1,80006664 <_ntoa_long+0x134>
    800065d8:	14090863          	beqz	s2,80006728 <_ntoa_long+0x1f8>
    800065dc:	10099e63          	bnez	s3,800066f8 <_ntoa_long+0x1c8>
    800065e0:	10079063          	bnez	a5,800066e0 <_ntoa_long+0x1b0>
    800065e4:	01000793          	li	a5,16
    800065e8:	26fe8063          	beq	t4,a5,80006848 <_ntoa_long+0x318>
    800065ec:	00200793          	li	a5,2
    800065f0:	28fe8063          	beq	t4,a5,80006870 <_ntoa_long+0x340>
    800065f4:	03000793          	li	a5,48
    800065f8:	00f10023          	sb	a5,0(sp)
    800065fc:	00100793          	li	a5,1
    80006600:	16048463          	beqz	s1,80006768 <_ntoa_long+0x238>
    80006604:	02078893          	addi	a7,a5,32
    80006608:	002888b3          	add	a7,a7,sp
    8000660c:	02d00313          	li	t1,45
    80006610:	fe688023          	sb	t1,-32(a7)
    80006614:	00178793          	addi	a5,a5,1
    80006618:	00008893          	mv	a7,ra
    8000661c:	dd9ff0ef          	jal	ra,800063f4 <_out_rev>
    80006620:	04813083          	ld	ra,72(sp)
    80006624:	04013403          	ld	s0,64(sp)
    80006628:	03813483          	ld	s1,56(sp)
    8000662c:	03013903          	ld	s2,48(sp)
    80006630:	02813983          	ld	s3,40(sp)
    80006634:	05010113          	addi	sp,sp,80
    80006638:	00008067          	ret
    8000663c:	0200f793          	andi	a5,ra,32
    80006640:	0100f913          	andi	s2,ra,16
    80006644:	06100293          	li	t0,97
    80006648:	f2078ce3          	beqz	a5,80006580 <_ntoa_long+0x50>
    8000664c:	04100293          	li	t0,65
    80006650:	f31ff06f          	j	80006580 <_ntoa_long+0x50>
    80006654:	00297913          	andi	s2,s2,2
    80006658:	00000793          	li	a5,0
    8000665c:	00010713          	mv	a4,sp
    80006660:	fa0910e3          	bnez	s2,80006600 <_ntoa_long+0xd0>
    80006664:	02089e13          	slli	t3,a7,0x20
    80006668:	020e5e13          	srli	t3,t3,0x20
    8000666c:	00008313          	mv	t1,ra
    80006670:	0010f293          	andi	t0,ra,1
    80006674:	0c081263          	bnez	a6,80006738 <_ntoa_long+0x208>
    80006678:	03c7f663          	bgeu	a5,t3,800066a4 <_ntoa_long+0x174>
    8000667c:	02000313          	li	t1,32
    80006680:	02678263          	beq	a5,t1,800066a4 <_ntoa_long+0x174>
    80006684:	03000f13          	li	t5,48
    80006688:	02000f93          	li	t6,32
    8000668c:	0080006f          	j	80006694 <_ntoa_long+0x164>
    80006690:	01f78a63          	beq	a5,t6,800066a4 <_ntoa_long+0x174>
    80006694:	00178793          	addi	a5,a5,1
    80006698:	00f70333          	add	t1,a4,a5
    8000669c:	ffe30fa3          	sb	t5,-1(t1)
    800066a0:	ffc7e8e3          	bltu	a5,t3,80006690 <_ntoa_long+0x160>
    800066a4:	f2028ae3          	beqz	t0,800065d8 <_ntoa_long+0xa8>
    800066a8:	02081f13          	slli	t5,a6,0x20
    800066ac:	020f5f13          	srli	t5,t5,0x20
    800066b0:	f3e7f4e3          	bgeu	a5,t5,800065d8 <_ntoa_long+0xa8>
    800066b4:	02000313          	li	t1,32
    800066b8:	03000f93          	li	t6,48
    800066bc:	02000293          	li	t0,32
    800066c0:	00679663          	bne	a5,t1,800066cc <_ntoa_long+0x19c>
    800066c4:	0940006f          	j	80006758 <_ntoa_long+0x228>
    800066c8:	08578863          	beq	a5,t0,80006758 <_ntoa_long+0x228>
    800066cc:	00178793          	addi	a5,a5,1
    800066d0:	00f70333          	add	t1,a4,a5
    800066d4:	fff30fa3          	sb	t6,-1(t1)
    800066d8:	ffe798e3          	bne	a5,t5,800066c8 <_ntoa_long+0x198>
    800066dc:	efdff06f          	j	800065d8 <_ntoa_long+0xa8>
    800066e0:	02089e13          	slli	t3,a7,0x20
    800066e4:	020e5e13          	srli	t3,t3,0x20
    800066e8:	0efe0a63          	beq	t3,a5,800067dc <_ntoa_long+0x2ac>
    800066ec:	02081893          	slli	a7,a6,0x20
    800066f0:	0208d893          	srli	a7,a7,0x20
    800066f4:	0ef88463          	beq	a7,a5,800067dc <_ntoa_long+0x2ac>
    800066f8:	01000893          	li	a7,16
    800066fc:	111e8463          	beq	t4,a7,80006804 <_ntoa_long+0x2d4>
    80006700:	00200893          	li	a7,2
    80006704:	0b1e8e63          	beq	t4,a7,800067c0 <_ntoa_long+0x290>
    80006708:	02000893          	li	a7,32
    8000670c:	f11786e3          	beq	a5,a7,80006618 <_ntoa_long+0xe8>
    80006710:	00078893          	mv	a7,a5
    80006714:	02088793          	addi	a5,a7,32
    80006718:	00278333          	add	t1,a5,sp
    8000671c:	00188793          	addi	a5,a7,1
    80006720:	03000893          	li	a7,48
    80006724:	ff130023          	sb	a7,-32(t1)
    80006728:	02000893          	li	a7,32
    8000672c:	ed179ae3          	bne	a5,a7,80006600 <_ntoa_long+0xd0>
    80006730:	02000793          	li	a5,32
    80006734:	ee5ff06f          	j	80006618 <_ntoa_long+0xe8>
    80006738:	04028c63          	beqz	t0,80006790 <_ntoa_long+0x260>
    8000673c:	08049c63          	bnez	s1,800067d4 <_ntoa_long+0x2a4>
    80006740:	00c37313          	andi	t1,t1,12
    80006744:	08031863          	bnez	t1,800067d4 <_ntoa_long+0x2a4>
    80006748:	f7c7f0e3          	bgeu	a5,t3,800066a8 <_ntoa_long+0x178>
    8000674c:	02000313          	li	t1,32
    80006750:	f2679ae3          	bne	a5,t1,80006684 <_ntoa_long+0x154>
    80006754:	e907f2e3          	bgeu	a5,a6,800065d8 <_ntoa_long+0xa8>
    80006758:	fc090ce3          	beqz	s2,80006730 <_ntoa_long+0x200>
    8000675c:	02000793          	li	a5,32
    80006760:	f80984e3          	beqz	s3,800066e8 <_ntoa_long+0x1b8>
    80006764:	f95ff06f          	j	800066f8 <_ntoa_long+0x1c8>
    80006768:	0040f893          	andi	a7,ra,4
    8000676c:	02089e63          	bnez	a7,800067a8 <_ntoa_long+0x278>
    80006770:	0080f893          	andi	a7,ra,8
    80006774:	ea0882e3          	beqz	a7,80006618 <_ntoa_long+0xe8>
    80006778:	02078893          	addi	a7,a5,32
    8000677c:	002888b3          	add	a7,a7,sp
    80006780:	02000313          	li	t1,32
    80006784:	fe688023          	sb	t1,-32(a7)
    80006788:	00178793          	addi	a5,a5,1
    8000678c:	e8dff06f          	j	80006618 <_ntoa_long+0xe8>
    80006790:	e5c7f4e3          	bgeu	a5,t3,800065d8 <_ntoa_long+0xa8>
    80006794:	02000313          	li	t1,32
    80006798:	ee6796e3          	bne	a5,t1,80006684 <_ntoa_long+0x154>
    8000679c:	e40910e3          	bnez	s2,800065dc <_ntoa_long+0xac>
    800067a0:	02000793          	li	a5,32
    800067a4:	e75ff06f          	j	80006618 <_ntoa_long+0xe8>
    800067a8:	02078893          	addi	a7,a5,32
    800067ac:	002888b3          	add	a7,a7,sp
    800067b0:	02b00313          	li	t1,43
    800067b4:	fe688023          	sb	t1,-32(a7)
    800067b8:	00178793          	addi	a5,a5,1
    800067bc:	e5dff06f          	j	80006618 <_ntoa_long+0xe8>
    800067c0:	02000893          	li	a7,32
    800067c4:	e5178ae3          	beq	a5,a7,80006618 <_ntoa_long+0xe8>
    800067c8:	00f708b3          	add	a7,a4,a5
    800067cc:	00178793          	addi	a5,a5,1
    800067d0:	0280006f          	j	800067f8 <_ntoa_long+0x2c8>
    800067d4:	fff8081b          	addiw	a6,a6,-1
    800067d8:	f71ff06f          	j	80006748 <_ntoa_long+0x218>
    800067dc:	fff78893          	addi	a7,a5,-1
    800067e0:	e00882e3          	beqz	a7,800065e4 <_ntoa_long+0xb4>
    800067e4:	01000313          	li	t1,16
    800067e8:	086e8c63          	beq	t4,t1,80006880 <_ntoa_long+0x350>
    800067ec:	00200313          	li	t1,2
    800067f0:	f26e92e3          	bne	t4,t1,80006714 <_ntoa_long+0x1e4>
    800067f4:	011708b3          	add	a7,a4,a7
    800067f8:	06200313          	li	t1,98
    800067fc:	00688023          	sb	t1,0(a7)
    80006800:	f09ff06f          	j	80006708 <_ntoa_long+0x1d8>
    80006804:	0200f893          	andi	a7,ra,32
    80006808:	02089063          	bnez	a7,80006828 <_ntoa_long+0x2f8>
    8000680c:	02000893          	li	a7,32
    80006810:	e11784e3          	beq	a5,a7,80006618 <_ntoa_long+0xe8>
    80006814:	00f70333          	add	t1,a4,a5
    80006818:	00178793          	addi	a5,a5,1
    8000681c:	07800893          	li	a7,120
    80006820:	01130023          	sb	a7,0(t1)
    80006824:	ee5ff06f          	j	80006708 <_ntoa_long+0x1d8>
    80006828:	02000893          	li	a7,32
    8000682c:	df1786e3          	beq	a5,a7,80006618 <_ntoa_long+0xe8>
    80006830:	02078893          	addi	a7,a5,32
    80006834:	002888b3          	add	a7,a7,sp
    80006838:	05800313          	li	t1,88
    8000683c:	fe688023          	sb	t1,-32(a7)
    80006840:	00178793          	addi	a5,a5,1
    80006844:	ec5ff06f          	j	80006708 <_ntoa_long+0x1d8>
    80006848:	0200f793          	andi	a5,ra,32
    8000684c:	00079a63          	bnez	a5,80006860 <_ntoa_long+0x330>
    80006850:	07800793          	li	a5,120
    80006854:	00f10023          	sb	a5,0(sp)
    80006858:	00100893          	li	a7,1
    8000685c:	eb9ff06f          	j	80006714 <_ntoa_long+0x1e4>
    80006860:	05800793          	li	a5,88
    80006864:	00f10023          	sb	a5,0(sp)
    80006868:	00100893          	li	a7,1
    8000686c:	ea9ff06f          	j	80006714 <_ntoa_long+0x1e4>
    80006870:	06200793          	li	a5,98
    80006874:	00f10023          	sb	a5,0(sp)
    80006878:	00100893          	li	a7,1
    8000687c:	e99ff06f          	j	80006714 <_ntoa_long+0x1e4>
    80006880:	0200f313          	andi	t1,ra,32
    80006884:	ffe78793          	addi	a5,a5,-2
    80006888:	fa0314e3          	bnez	t1,80006830 <_ntoa_long+0x300>
    8000688c:	00f70333          	add	t1,a4,a5
    80006890:	00088793          	mv	a5,a7
    80006894:	f89ff06f          	j	8000681c <_ntoa_long+0x2ec>

Disassembly of section .text._out_char:

0000000080006898 <_out_char>:
    80006898:	00051463          	bnez	a0,800068a0 <_out_char+0x8>
    8000689c:	00008067          	ret
    800068a0:	b11ff06f          	j	800063b0 <_putc>

Disassembly of section .text._ftoa:

00000000800068a4 <_ftoa>:
    800068a4:	a2a52353          	feq.d	t1,fa0,fa0
    800068a8:	00078f93          	mv	t6,a5
    800068ac:	00080893          	mv	a7,a6
    800068b0:	1e030863          	beqz	t1,80006aa0 <_ftoa+0x1fc>
    800068b4:	00001797          	auipc	a5,0x1
    800068b8:	53c7b787          	fld	fa5,1340(a5) # 80007df0 <pow10.0+0x70>
    800068bc:	a2f517d3          	flt.d	a5,fa0,fa5
    800068c0:	2c079263          	bnez	a5,80006b84 <_ftoa+0x2e0>
    800068c4:	00001797          	auipc	a5,0x1
    800068c8:	5347b787          	fld	fa5,1332(a5) # 80007df8 <pow10.0+0x78>
    800068cc:	a2a797d3          	flt.d	a5,fa5,fa0
    800068d0:	fc010113          	addi	sp,sp,-64
    800068d4:	02813823          	sd	s0,48(sp)
    800068d8:	02913423          	sd	s1,40(sp)
    800068dc:	02113c23          	sd	ra,56(sp)
    800068e0:	00050293          	mv	t0,a0
    800068e4:	00058393          	mv	t2,a1
    800068e8:	00060413          	mv	s0,a2
    800068ec:	00068493          	mv	s1,a3
    800068f0:	16079a63          	bnez	a5,80006a64 <_ftoa+0x1c0>
    800068f4:	00001797          	auipc	a5,0x1
    800068f8:	50c7b787          	fld	fa5,1292(a5) # 80007e00 <pow10.0+0x80>
    800068fc:	a2a797d3          	flt.d	a5,fa5,fa0
    80006900:	24079c63          	bnez	a5,80006b58 <_ftoa+0x2b4>
    80006904:	00001797          	auipc	a5,0x1
    80006908:	5047b787          	fld	fa5,1284(a5) # 80007e08 <pow10.0+0x88>
    8000690c:	a2f517d3          	flt.d	a5,fa0,fa5
    80006910:	24079463          	bnez	a5,80006b58 <_ftoa+0x2b4>
    80006914:	f20007d3          	fmv.d.x	fa5,zero
    80006918:	00000593          	li	a1,0
    8000691c:	a2f517d3          	flt.d	a5,fa0,fa5
    80006920:	22079663          	bnez	a5,80006b4c <_ftoa+0x2a8>
    80006924:	4008f793          	andi	a5,a7,1024
    80006928:	00079463          	bnez	a5,80006930 <_ftoa+0x8c>
    8000692c:	00600713          	li	a4,6
    80006930:	00000313          	li	t1,0
    80006934:	00900793          	li	a5,9
    80006938:	03000613          	li	a2,48
    8000693c:	02000693          	li	a3,32
    80006940:	00e7fc63          	bgeu	a5,a4,80006958 <_ftoa+0xb4>
    80006944:	00130313          	addi	t1,t1,1
    80006948:	00610e33          	add	t3,sp,t1
    8000694c:	fece0fa3          	sb	a2,-1(t3)
    80006950:	fff7071b          	addiw	a4,a4,-1
    80006954:	fed316e3          	bne	t1,a3,80006940 <_ftoa+0x9c>
    80006958:	c20516d3          	fcvt.w.d	a3,fa0,rtz
    8000695c:	02071793          	slli	a5,a4,0x20
    80006960:	01d7d613          	srli	a2,a5,0x1d
    80006964:	d20687d3          	fcvt.d.w	fa5,a3
    80006968:	00001797          	auipc	a5,0x1
    8000696c:	41878793          	addi	a5,a5,1048 # 80007d80 <pow10.0>
    80006970:	00c787b3          	add	a5,a5,a2
    80006974:	0af577d3          	fsub.d	fa5,fa0,fa5
    80006978:	0007b687          	fld	fa3,0(a5)
    8000697c:	00001797          	auipc	a5,0x1
    80006980:	4947b707          	fld	fa4,1172(a5) # 80007e10 <pow10.0+0x90>
    80006984:	00068e1b          	sext.w	t3,a3
    80006988:	12d7f7d3          	fmul.d	fa5,fa5,fa3
    8000698c:	c2379f53          	fcvt.lu.d	t5,fa5,rtz
    80006990:	d23f7653          	fcvt.d.lu	fa2,t5
    80006994:	0ac7f7d3          	fsub.d	fa5,fa5,fa2
    80006998:	a2f717d3          	flt.d	a5,fa4,fa5
    8000699c:	10078c63          	beqz	a5,80006ab4 <_ftoa+0x210>
    800069a0:	001f0f13          	addi	t5,t5,1
    800069a4:	d23f77d3          	fcvt.d.lu	fa5,t5
    800069a8:	a2f687d3          	fle.d	a5,fa3,fa5
    800069ac:	00078663          	beqz	a5,800069b8 <_ftoa+0x114>
    800069b0:	00168e1b          	addiw	t3,a3,1
    800069b4:	00000f13          	li	t5,0
    800069b8:	10071863          	bnez	a4,80006ac8 <_ftoa+0x224>
    800069bc:	d20e07d3          	fcvt.d.w	fa5,t3
    800069c0:	0af57553          	fsub.d	fa0,fa0,fa5
    800069c4:	a2e517d3          	flt.d	a5,fa0,fa4
    800069c8:	00078663          	beqz	a5,800069d4 <_ftoa+0x130>
    800069cc:	a2a717d3          	flt.d	a5,fa4,fa0
    800069d0:	00078863          	beqz	a5,800069e0 <_ftoa+0x13c>
    800069d4:	001e7793          	andi	a5,t3,1
    800069d8:	00078463          	beqz	a5,800069e0 <_ftoa+0x13c>
    800069dc:	001e0e1b          	addiw	t3,t3,1
    800069e0:	02000613          	li	a2,32
    800069e4:	00a00793          	li	a5,10
    800069e8:	12c30263          	beq	t1,a2,80006b0c <_ftoa+0x268>
    800069ec:	02fe673b          	remw	a4,t3,a5
    800069f0:	00130313          	addi	t1,t1,1
    800069f4:	006106b3          	add	a3,sp,t1
    800069f8:	02fe4e3b          	divw	t3,t3,a5
    800069fc:	0307071b          	addiw	a4,a4,48
    80006a00:	fee68fa3          	sb	a4,-1(a3)
    80006a04:	fe0e12e3          	bnez	t3,800069e8 <_ftoa+0x144>
    80006a08:	0038f793          	andi	a5,a7,3
    80006a0c:	00100713          	li	a4,1
    80006a10:	24e78463          	beq	a5,a4,80006c58 <_ftoa+0x3b4>
    80006a14:	02000713          	li	a4,32
    80006a18:	10e30e63          	beq	t1,a4,80006b34 <_ftoa+0x290>
    80006a1c:	16058e63          	beqz	a1,80006b98 <_ftoa+0x2f4>
    80006a20:	02030793          	addi	a5,t1,32
    80006a24:	00278733          	add	a4,a5,sp
    80006a28:	02d00693          	li	a3,45
    80006a2c:	00130793          	addi	a5,t1,1
    80006a30:	fed70023          	sb	a3,-32(a4)
    80006a34:	00010713          	mv	a4,sp
    80006a38:	00048693          	mv	a3,s1
    80006a3c:	00040613          	mv	a2,s0
    80006a40:	000f8813          	mv	a6,t6
    80006a44:	00038593          	mv	a1,t2
    80006a48:	00028513          	mv	a0,t0
    80006a4c:	9a9ff0ef          	jal	ra,800063f4 <_out_rev>
    80006a50:	03813083          	ld	ra,56(sp)
    80006a54:	03013403          	ld	s0,48(sp)
    80006a58:	02813483          	ld	s1,40(sp)
    80006a5c:	04010113          	addi	sp,sp,64
    80006a60:	00008067          	ret
    80006a64:	00487793          	andi	a5,a6,4
    80006a68:	0c079a63          	bnez	a5,80006b3c <_ftoa+0x298>
    80006a6c:	00001717          	auipc	a4,0x1
    80006a70:	15c70713          	addi	a4,a4,348 # 80007bc8 <__am_mainargs+0xb>
    80006a74:	00300793          	li	a5,3
    80006a78:	00040613          	mv	a2,s0
    80006a7c:	03013403          	ld	s0,48(sp)
    80006a80:	03813083          	ld	ra,56(sp)
    80006a84:	00048693          	mv	a3,s1
    80006a88:	02813483          	ld	s1,40(sp)
    80006a8c:	000f8813          	mv	a6,t6
    80006a90:	00038593          	mv	a1,t2
    80006a94:	00028513          	mv	a0,t0
    80006a98:	04010113          	addi	sp,sp,64
    80006a9c:	959ff06f          	j	800063f4 <_out_rev>
    80006aa0:	00078813          	mv	a6,a5
    80006aa4:	00001717          	auipc	a4,0x1
    80006aa8:	12c70713          	addi	a4,a4,300 # 80007bd0 <__am_mainargs+0x13>
    80006aac:	00300793          	li	a5,3
    80006ab0:	945ff06f          	j	800063f4 <_out_rev>
    80006ab4:	a2e797d3          	flt.d	a5,fa5,fa4
    80006ab8:	f00790e3          	bnez	a5,800069b8 <_ftoa+0x114>
    80006abc:	160f1863          	bnez	t5,80006c2c <_ftoa+0x388>
    80006ac0:	001f0f13          	addi	t5,t5,1
    80006ac4:	ee070ce3          	beqz	a4,800069bc <_ftoa+0x118>
    80006ac8:	fe07081b          	addiw	a6,a4,-32
    80006acc:	0068083b          	addw	a6,a6,t1
    80006ad0:	00a00693          	li	a3,10
    80006ad4:	00900093          	li	ra,9
    80006ad8:	0280006f          	j	80006b00 <_ftoa+0x25c>
    80006adc:	02df77b3          	remu	a5,t5,a3
    80006ae0:	fff7051b          	addiw	a0,a4,-1
    80006ae4:	0307879b          	addiw	a5,a5,48
    80006ae8:	fef60fa3          	sb	a5,-1(a2)
    80006aec:	02df57b3          	divu	a5,t5,a3
    80006af0:	0de0f863          	bgeu	ra,t5,80006bc0 <_ftoa+0x31c>
    80006af4:	00050713          	mv	a4,a0
    80006af8:	000e8313          	mv	t1,t4
    80006afc:	00078f13          	mv	t5,a5
    80006b00:	00130e93          	addi	t4,t1,1
    80006b04:	01d10633          	add	a2,sp,t4
    80006b08:	fd071ae3          	bne	a4,a6,80006adc <_ftoa+0x238>
    80006b0c:	0038f793          	andi	a5,a7,3
    80006b10:	00100713          	li	a4,1
    80006b14:	02e79063          	bne	a5,a4,80006b34 <_ftoa+0x290>
    80006b18:	02000793          	li	a5,32
    80006b1c:	f00f8ce3          	beqz	t6,80006a34 <_ftoa+0x190>
    80006b20:	10059e63          	bnez	a1,80006c3c <_ftoa+0x398>
    80006b24:	00c8f713          	andi	a4,a7,12
    80006b28:	10070e63          	beqz	a4,80006c44 <_ftoa+0x3a0>
    80006b2c:	ffff8f9b          	addiw	t6,t6,-1
    80006b30:	f1f7e2e3          	bltu	a5,t6,80006a34 <_ftoa+0x190>
    80006b34:	02000793          	li	a5,32
    80006b38:	efdff06f          	j	80006a34 <_ftoa+0x190>
    80006b3c:	00001717          	auipc	a4,0x1
    80006b40:	08470713          	addi	a4,a4,132 # 80007bc0 <__am_mainargs+0x3>
    80006b44:	00400793          	li	a5,4
    80006b48:	f31ff06f          	j	80006a78 <_ftoa+0x1d4>
    80006b4c:	0aa7f553          	fsub.d	fa0,fa5,fa0
    80006b50:	00100593          	li	a1,1
    80006b54:	dd1ff06f          	j	80006924 <_ftoa+0x80>
    80006b58:	00040613          	mv	a2,s0
    80006b5c:	03013403          	ld	s0,48(sp)
    80006b60:	03813083          	ld	ra,56(sp)
    80006b64:	00048693          	mv	a3,s1
    80006b68:	02813483          	ld	s1,40(sp)
    80006b6c:	00088813          	mv	a6,a7
    80006b70:	000f8793          	mv	a5,t6
    80006b74:	00038593          	mv	a1,t2
    80006b78:	00028513          	mv	a0,t0
    80006b7c:	04010113          	addi	sp,sp,64
    80006b80:	12c0006f          	j	80006cac <_etoa>
    80006b84:	000f8813          	mv	a6,t6
    80006b88:	00400793          	li	a5,4
    80006b8c:	00001717          	auipc	a4,0x1
    80006b90:	04c70713          	addi	a4,a4,76 # 80007bd8 <__am_mainargs+0x1b>
    80006b94:	861ff06f          	j	800063f4 <_out_rev>
    80006b98:	0048f793          	andi	a5,a7,4
    80006b9c:	06079c63          	bnez	a5,80006c14 <_ftoa+0x370>
    80006ba0:	0088f693          	andi	a3,a7,8
    80006ba4:	00030793          	mv	a5,t1
    80006ba8:	e80686e3          	beqz	a3,80006a34 <_ftoa+0x190>
    80006bac:	02030693          	addi	a3,t1,32
    80006bb0:	00268333          	add	t1,a3,sp
    80006bb4:	00178793          	addi	a5,a5,1
    80006bb8:	fee30023          	sb	a4,-32(t1)
    80006bbc:	e79ff06f          	j	80006a34 <_ftoa+0x190>
    80006bc0:	02000793          	li	a5,32
    80006bc4:	f4fe84e3          	beq	t4,a5,80006b0c <_ftoa+0x268>
    80006bc8:	ffe7071b          	addiw	a4,a4,-2
    80006bcc:	08050263          	beqz	a0,80006c50 <_ftoa+0x3ac>
    80006bd0:	02071713          	slli	a4,a4,0x20
    80006bd4:	02075713          	srli	a4,a4,0x20
    80006bd8:	00230313          	addi	t1,t1,2
    80006bdc:	00e30333          	add	t1,t1,a4
    80006be0:	03000693          	li	a3,48
    80006be4:	02000713          	li	a4,32
    80006be8:	001e8e93          	addi	t4,t4,1
    80006bec:	01d107b3          	add	a5,sp,t4
    80006bf0:	fed78fa3          	sb	a3,-1(a5)
    80006bf4:	f0ee8ce3          	beq	t4,a4,80006b0c <_ftoa+0x268>
    80006bf8:	fe6e98e3          	bne	t4,t1,80006be8 <_ftoa+0x344>
    80006bfc:	02030793          	addi	a5,t1,32
    80006c00:	002787b3          	add	a5,a5,sp
    80006c04:	02e00713          	li	a4,46
    80006c08:	00130313          	addi	t1,t1,1
    80006c0c:	fee78023          	sb	a4,-32(a5)
    80006c10:	dd1ff06f          	j	800069e0 <_ftoa+0x13c>
    80006c14:	02030793          	addi	a5,t1,32
    80006c18:	00278733          	add	a4,a5,sp
    80006c1c:	02b00693          	li	a3,43
    80006c20:	00130793          	addi	a5,t1,1
    80006c24:	fed70023          	sb	a3,-32(a4)
    80006c28:	e0dff06f          	j	80006a34 <_ftoa+0x190>
    80006c2c:	001f7793          	andi	a5,t5,1
    80006c30:	d80784e3          	beqz	a5,800069b8 <_ftoa+0x114>
    80006c34:	001f0f13          	addi	t5,t5,1
    80006c38:	e8dff06f          	j	80006ac4 <_ftoa+0x220>
    80006c3c:	ffff8f9b          	addiw	t6,t6,-1
    80006c40:	df5ff06f          	j	80006a34 <_ftoa+0x190>
    80006c44:	dff7e8e3          	bltu	a5,t6,80006a34 <_ftoa+0x190>
    80006c48:	02000313          	li	t1,32
    80006c4c:	dc9ff06f          	j	80006a14 <_ftoa+0x170>
    80006c50:	000e8313          	mv	t1,t4
    80006c54:	fa9ff06f          	j	80006bfc <_ftoa+0x358>
    80006c58:	da0f8ee3          	beqz	t6,80006a14 <_ftoa+0x170>
    80006c5c:	00059663          	bnez	a1,80006c68 <_ftoa+0x3c4>
    80006c60:	00c8f793          	andi	a5,a7,12
    80006c64:	00078463          	beqz	a5,80006c6c <_ftoa+0x3c8>
    80006c68:	ffff8f9b          	addiw	t6,t6,-1
    80006c6c:	020f9513          	slli	a0,t6,0x20
    80006c70:	02055513          	srli	a0,a0,0x20
    80006c74:	daa370e3          	bgeu	t1,a0,80006a14 <_ftoa+0x170>
    80006c78:	02000713          	li	a4,32
    80006c7c:	00030793          	mv	a5,t1
    80006c80:	03000613          	li	a2,48
    80006c84:	02000693          	li	a3,32
    80006c88:	00e31663          	bne	t1,a4,80006c94 <_ftoa+0x3f0>
    80006c8c:	da9ff06f          	j	80006a34 <_ftoa+0x190>
    80006c90:	dad782e3          	beq	a5,a3,80006a34 <_ftoa+0x190>
    80006c94:	00178793          	addi	a5,a5,1
    80006c98:	00f10733          	add	a4,sp,a5
    80006c9c:	fec70fa3          	sb	a2,-1(a4)
    80006ca0:	fea798e3          	bne	a5,a0,80006c90 <_ftoa+0x3ec>
    80006ca4:	00078313          	mv	t1,a5
    80006ca8:	d6dff06f          	j	80006a14 <_ftoa+0x170>

Disassembly of section .text._etoa:

0000000080006cac <_etoa>:
    80006cac:	a2a528d3          	feq.d	a7,fa0,fa0
    80006cb0:	f9010113          	addi	sp,sp,-112
    80006cb4:	06813023          	sd	s0,96(sp)
    80006cb8:	04913c23          	sd	s1,88(sp)
    80006cbc:	05213823          	sd	s2,80(sp)
    80006cc0:	05413023          	sd	s4,64(sp)
    80006cc4:	03613823          	sd	s6,48(sp)
    80006cc8:	03713423          	sd	s7,40(sp)
    80006ccc:	06113423          	sd	ra,104(sp)
    80006cd0:	05313423          	sd	s3,72(sp)
    80006cd4:	03513c23          	sd	s5,56(sp)
    80006cd8:	03813023          	sd	s8,32(sp)
    80006cdc:	01913c23          	sd	s9,24(sp)
    80006ce0:	00050b13          	mv	s6,a0
    80006ce4:	00058493          	mv	s1,a1
    80006ce8:	00060b93          	mv	s7,a2
    80006cec:	00068913          	mv	s2,a3
    80006cf0:	00078a13          	mv	s4,a5
    80006cf4:	00080413          	mv	s0,a6
    80006cf8:	2e088463          	beqz	a7,80006fe0 <_etoa+0x334>
    80006cfc:	00001797          	auipc	a5,0x1
    80006d00:	0fc7b787          	fld	fa5,252(a5) # 80007df8 <pow10.0+0x78>
    80006d04:	a2a797d3          	flt.d	a5,fa5,fa0
    80006d08:	2c079c63          	bnez	a5,80006fe0 <_etoa+0x334>
    80006d0c:	00001797          	auipc	a5,0x1
    80006d10:	0e47b787          	fld	fa5,228(a5) # 80007df0 <pow10.0+0x70>
    80006d14:	a2f517d3          	flt.d	a5,fa0,fa5
    80006d18:	2c079463          	bnez	a5,80006fe0 <_etoa+0x334>
    80006d1c:	f20007d3          	fmv.d.x	fa5,zero
    80006d20:	e20506d3          	fmv.x.d	a3,fa0
    80006d24:	a2f517d3          	flt.d	a5,fa0,fa5
    80006d28:	00078663          	beqz	a5,80006d34 <_etoa+0x88>
    80006d2c:	22a517d3          	fneg.d	fa5,fa0
    80006d30:	e20786d3          	fmv.x.d	a3,fa5
    80006d34:	40047613          	andi	a2,s0,1024
    80006d38:	00061463          	bnez	a2,80006d40 <_etoa+0x94>
    80006d3c:	00600713          	li	a4,6
    80006d40:	0346d793          	srli	a5,a3,0x34
    80006d44:	7ff7f793          	andi	a5,a5,2047
    80006d48:	00001597          	auipc	a1,0x1
    80006d4c:	0d05b687          	fld	fa3,208(a1) # 80007e18 <pow10.0+0x98>
    80006d50:	00001597          	auipc	a1,0x1
    80006d54:	0d05b707          	fld	fa4,208(a1) # 80007e20 <pow10.0+0xa0>
    80006d58:	c017879b          	addiw	a5,a5,-1023
    80006d5c:	d2078653          	fcvt.d.w	fa2,a5
    80006d60:	3ff00593          	li	a1,1023
    80006d64:	00c69793          	slli	a5,a3,0xc
    80006d68:	03459593          	slli	a1,a1,0x34
    80006d6c:	00c7d793          	srli	a5,a5,0xc
    80006d70:	00b7e7b3          	or	a5,a5,a1
    80006d74:	72d67643          	fmadd.d	fa2,fa2,fa3,fa4
    80006d78:	f2078753          	fmv.d.x	fa4,a5
    80006d7c:	00001597          	auipc	a1,0x1
    80006d80:	0ac5b787          	fld	fa5,172(a1) # 80007e28 <pow10.0+0xa8>
    80006d84:	00001797          	auipc	a5,0x1
    80006d88:	0ac7b587          	fld	fa1,172(a5) # 80007e30 <pow10.0+0xb0>
    80006d8c:	0af777d3          	fsub.d	fa5,fa4,fa5
    80006d90:	00001797          	auipc	a5,0x1
    80006d94:	0a87b687          	fld	fa3,168(a5) # 80007e38 <pow10.0+0xb8>
    80006d98:	00001797          	auipc	a5,0x1
    80006d9c:	0787b207          	fld	ft4,120(a5) # 80007e10 <pow10.0+0x90>
    80006da0:	00001797          	auipc	a5,0x1
    80006da4:	0a07b187          	fld	ft3,160(a5) # 80007e40 <pow10.0+0xc0>
    80006da8:	00001797          	auipc	a5,0x1
    80006dac:	0a07b107          	fld	ft2,160(a5) # 80007e48 <pow10.0+0xc8>
    80006db0:	00001797          	auipc	a5,0x1
    80006db4:	0a07b707          	fld	fa4,160(a5) # 80007e50 <pow10.0+0xd0>
    80006db8:	00001797          	auipc	a5,0x1
    80006dbc:	0a87b087          	fld	ft1,168(a5) # 80007e60 <pow10.0+0xe0>
    80006dc0:	62b7f7c3          	fmadd.d	fa5,fa5,fa1,fa2
    80006dc4:	00001797          	auipc	a5,0x1
    80006dc8:	0ac7b007          	fld	ft0,172(a5) # 80007e70 <pow10.0+0xf0>
    80006dcc:	00001797          	auipc	a5,0x1
    80006dd0:	08c7b587          	fld	fa1,140(a5) # 80007e58 <pow10.0+0xd8>
    80006dd4:	00001797          	auipc	a5,0x1
    80006dd8:	0947b607          	fld	fa2,148(a5) # 80007e68 <pow10.0+0xe8>
    80006ddc:	c20795d3          	fcvt.w.d	a1,fa5,rtz
    80006de0:	d20587d3          	fcvt.d.w	fa5,a1
    80006de4:	00058c1b          	sext.w	s8,a1
    80006de8:	22d7f6c3          	fmadd.d	fa3,fa5,fa3,ft4
    80006dec:	c20697d3          	fcvt.w.d	a5,fa3,rtz
    80006df0:	d20786d3          	fcvt.d.w	fa3,a5
    80006df4:	3ff7879b          	addiw	a5,a5,1023
    80006df8:	03479793          	slli	a5,a5,0x34
    80006dfc:	1236f6d3          	fmul.d	fa3,fa3,ft3
    80006e00:	6a27f7c7          	fmsub.d	fa5,fa5,ft2,fa3
    80006e04:	12f7f6d3          	fmul.d	fa3,fa5,fa5
    80006e08:	0af67653          	fsub.d	fa2,fa2,fa5
    80006e0c:	02f7f7d3          	fadd.d	fa5,fa5,fa5
    80006e10:	1ae6f753          	fdiv.d	fa4,fa3,fa4
    80006e14:	02b77753          	fadd.d	fa4,fa4,fa1
    80006e18:	1ae6f753          	fdiv.d	fa4,fa3,fa4
    80006e1c:	02177753          	fadd.d	fa4,fa4,ft1
    80006e20:	1ae6f6d3          	fdiv.d	fa3,fa3,fa4
    80006e24:	f2078753          	fmv.d.x	fa4,a5
    80006e28:	02c6f6d3          	fadd.d	fa3,fa3,fa2
    80006e2c:	1ad7f7d3          	fdiv.d	fa5,fa5,fa3
    80006e30:	0207f7d3          	fadd.d	fa5,fa5,ft0
    80006e34:	12e7f7d3          	fmul.d	fa5,fa5,fa4
    80006e38:	f2068753          	fmv.d.x	fa4,a3
    80006e3c:	a2f717d3          	flt.d	a5,fa4,fa5
    80006e40:	00078663          	beqz	a5,80006e4c <_etoa+0x1a0>
    80006e44:	1ab7f7d3          	fdiv.d	fa5,fa5,fa1
    80006e48:	fff58c1b          	addiw	s8,a1,-1
    80006e4c:	063c0c9b          	addiw	s9,s8,99
    80006e50:	00b45793          	srli	a5,s0,0xb
    80006e54:	0c600593          	li	a1,198
    80006e58:	0195bcb3          	sltu	s9,a1,s9
    80006e5c:	0017f793          	andi	a5,a5,1
    80006e60:	004c8c93          	addi	s9,s9,4
    80006e64:	04078463          	beqz	a5,80006eac <_etoa+0x200>
    80006e68:	f20686d3          	fmv.d.x	fa3,a3
    80006e6c:	00001797          	auipc	a5,0x1
    80006e70:	00c7b707          	fld	fa4,12(a5) # 80007e78 <pow10.0+0xf8>
    80006e74:	a2d707d3          	fle.d	a5,fa4,fa3
    80006e78:	1c078263          	beqz	a5,8000703c <_etoa+0x390>
    80006e7c:	00001797          	auipc	a5,0x1
    80006e80:	0047b707          	fld	fa4,4(a5) # 80007e80 <pow10.0+0x100>
    80006e84:	a2e697d3          	flt.d	a5,fa3,fa4
    80006e88:	1a078a63          	beqz	a5,8000703c <_etoa+0x390>
    80006e8c:	0007079b          	sext.w	a5,a4
    80006e90:	00000713          	li	a4,0
    80006e94:	00fc5663          	bge	s8,a5,80006ea0 <_etoa+0x1f4>
    80006e98:	418787bb          	subw	a5,a5,s8
    80006e9c:	fff7871b          	addiw	a4,a5,-1
    80006ea0:	40046413          	ori	s0,s0,1024
    80006ea4:	00000c93          	li	s9,0
    80006ea8:	00000c13          	li	s8,0
    80006eac:	00000793          	li	a5,0
    80006eb0:	014cf463          	bgeu	s9,s4,80006eb8 <_etoa+0x20c>
    80006eb4:	419a07bb          	subw	a5,s4,s9
    80006eb8:	00247a93          	andi	s5,s0,2
    80006ebc:	000a8863          	beqz	s5,80006ecc <_etoa+0x220>
    80006ec0:	001cb613          	seqz	a2,s9
    80006ec4:	40c00633          	neg	a2,a2
    80006ec8:	00c7f7b3          	and	a5,a5,a2
    80006ecc:	160c1063          	bnez	s8,8000702c <_etoa+0x380>
    80006ed0:	f20007d3          	fmv.d.x	fa5,zero
    80006ed4:	a2f51653          	flt.d	a2,fa0,fa5
    80006ed8:	00060863          	beqz	a2,80006ee8 <_etoa+0x23c>
    80006edc:	f20687d3          	fmv.d.x	fa5,a3
    80006ee0:	22f797d3          	fneg.d	fa5,fa5
    80006ee4:	e20786d3          	fmv.x.d	a3,fa5
    80006ee8:	f2068553          	fmv.d.x	fa0,a3
    80006eec:	fffff837          	lui	a6,0xfffff
    80006ef0:	7ff80813          	addi	a6,a6,2047 # fffffffffffff7ff <_pmem_end+0xffffffff77fff7ff>
    80006ef4:	01047833          	and	a6,s0,a6
    80006ef8:	00090693          	mv	a3,s2
    80006efc:	000b8613          	mv	a2,s7
    80006f00:	00048593          	mv	a1,s1
    80006f04:	000b0513          	mv	a0,s6
    80006f08:	99dff0ef          	jal	ra,800068a4 <_ftoa>
    80006f0c:	00050993          	mv	s3,a0
    80006f10:	080c8c63          	beqz	s9,80006fa8 <_etoa+0x2fc>
    80006f14:	02047413          	andi	s0,s0,32
    80006f18:	04500513          	li	a0,69
    80006f1c:	00041463          	bnez	s0,80006f24 <_etoa+0x278>
    80006f20:	06500513          	li	a0,101
    80006f24:	00098613          	mv	a2,s3
    80006f28:	00090693          	mv	a3,s2
    80006f2c:	00048593          	mv	a1,s1
    80006f30:	000b00e7          	jalr	s6
    80006f34:	41fc571b          	sraiw	a4,s8,0x1f
    80006f38:	00ec46b3          	xor	a3,s8,a4
    80006f3c:	00500793          	li	a5,5
    80006f40:	fffc8c9b          	addiw	s9,s9,-1
    80006f44:	00198613          	addi	a2,s3,1
    80006f48:	00f13423          	sd	a5,8(sp)
    80006f4c:	40e6873b          	subw	a4,a3,a4
    80006f50:	01913023          	sd	s9,0(sp)
    80006f54:	00000893          	li	a7,0
    80006f58:	00a00813          	li	a6,10
    80006f5c:	01fc579b          	srliw	a5,s8,0x1f
    80006f60:	00090693          	mv	a3,s2
    80006f64:	00048593          	mv	a1,s1
    80006f68:	000b0513          	mv	a0,s6
    80006f6c:	dc4ff0ef          	jal	ra,80006530 <_ntoa_long>
    80006f70:	00050993          	mv	s3,a0
    80006f74:	020a8a63          	beqz	s5,80006fa8 <_etoa+0x2fc>
    80006f78:	020a1a13          	slli	s4,s4,0x20
    80006f7c:	41750bb3          	sub	s7,a0,s7
    80006f80:	020a5a13          	srli	s4,s4,0x20
    80006f84:	034bf263          	bgeu	s7,s4,80006fa8 <_etoa+0x2fc>
    80006f88:	00098613          	mv	a2,s3
    80006f8c:	001b8b93          	addi	s7,s7,1
    80006f90:	00090693          	mv	a3,s2
    80006f94:	00048593          	mv	a1,s1
    80006f98:	02000513          	li	a0,32
    80006f9c:	00198993          	addi	s3,s3,1
    80006fa0:	000b00e7          	jalr	s6
    80006fa4:	ff4be2e3          	bltu	s7,s4,80006f88 <_etoa+0x2dc>
    80006fa8:	06813083          	ld	ra,104(sp)
    80006fac:	06013403          	ld	s0,96(sp)
    80006fb0:	05813483          	ld	s1,88(sp)
    80006fb4:	05013903          	ld	s2,80(sp)
    80006fb8:	04013a03          	ld	s4,64(sp)
    80006fbc:	03813a83          	ld	s5,56(sp)
    80006fc0:	03013b03          	ld	s6,48(sp)
    80006fc4:	02813b83          	ld	s7,40(sp)
    80006fc8:	02013c03          	ld	s8,32(sp)
    80006fcc:	01813c83          	ld	s9,24(sp)
    80006fd0:	00098513          	mv	a0,s3
    80006fd4:	04813983          	ld	s3,72(sp)
    80006fd8:	07010113          	addi	sp,sp,112
    80006fdc:	00008067          	ret
    80006fe0:	00040813          	mv	a6,s0
    80006fe4:	06013403          	ld	s0,96(sp)
    80006fe8:	06813083          	ld	ra,104(sp)
    80006fec:	04813983          	ld	s3,72(sp)
    80006ff0:	03813a83          	ld	s5,56(sp)
    80006ff4:	02013c03          	ld	s8,32(sp)
    80006ff8:	01813c83          	ld	s9,24(sp)
    80006ffc:	000a0793          	mv	a5,s4
    80007000:	00090693          	mv	a3,s2
    80007004:	04013a03          	ld	s4,64(sp)
    80007008:	05013903          	ld	s2,80(sp)
    8000700c:	000b8613          	mv	a2,s7
    80007010:	00048593          	mv	a1,s1
    80007014:	02813b83          	ld	s7,40(sp)
    80007018:	05813483          	ld	s1,88(sp)
    8000701c:	000b0513          	mv	a0,s6
    80007020:	03013b03          	ld	s6,48(sp)
    80007024:	07010113          	addi	sp,sp,112
    80007028:	87dff06f          	j	800068a4 <_ftoa>
    8000702c:	f2068753          	fmv.d.x	fa4,a3
    80007030:	1af777d3          	fdiv.d	fa5,fa4,fa5
    80007034:	e20786d3          	fmv.x.d	a3,fa5
    80007038:	e99ff06f          	j	80006ed0 <_etoa+0x224>
    8000703c:	e60708e3          	beqz	a4,80006eac <_etoa+0x200>
    80007040:	e60606e3          	beqz	a2,80006eac <_etoa+0x200>
    80007044:	fff7071b          	addiw	a4,a4,-1
    80007048:	e65ff06f          	j	80006eac <_etoa+0x200>

Disassembly of section .text._vsnprintf:

000000008000704c <_vsnprintf>:
    8000704c:	f5010113          	addi	sp,sp,-176
    80007050:	0a813023          	sd	s0,160(sp)
    80007054:	08913c23          	sd	s1,152(sp)
    80007058:	09213823          	sd	s2,144(sp)
    8000705c:	09313423          	sd	s3,136(sp)
    80007060:	09413023          	sd	s4,128(sp)
    80007064:	0a113423          	sd	ra,168(sp)
    80007068:	07513c23          	sd	s5,120(sp)
    8000706c:	07613823          	sd	s6,112(sp)
    80007070:	07713423          	sd	s7,104(sp)
    80007074:	07813023          	sd	s8,96(sp)
    80007078:	05913c23          	sd	s9,88(sp)
    8000707c:	05a13823          	sd	s10,80(sp)
    80007080:	05b13423          	sd	s11,72(sp)
    80007084:	00058993          	mv	s3,a1
    80007088:	00060913          	mv	s2,a2
    8000708c:	00068413          	mv	s0,a3
    80007090:	00070493          	mv	s1,a4
    80007094:	fffffa17          	auipc	s4,0xfffff
    80007098:	35ca0a13          	addi	s4,s4,860 # 800063f0 <_out_null>
    8000709c:	00058463          	beqz	a1,800070a4 <_vsnprintf+0x58>
    800070a0:	00050a13          	mv	s4,a0
    800070a4:	00044503          	lbu	a0,0(s0)
    800070a8:	00000c13          	li	s8,0
    800070ac:	72050c63          	beqz	a0,800077e4 <_vsnprintf+0x798>
    800070b0:	000107b7          	lui	a5,0x10
    800070b4:	fff78793          	addi	a5,a5,-1 # ffff <_start-0x7fff0001>
    800070b8:	00001b37          	lui	s6,0x1
    800070bc:	02f13023          	sd	a5,32(sp)
    800070c0:	00009ab7          	lui	s5,0x9
    800070c4:	800b0793          	addi	a5,s6,-2048 # 800 <_start-0x7ffff800>
    800070c8:	00001b97          	auipc	s7,0x1
    800070cc:	b18b8b93          	addi	s7,s7,-1256 # 80007be0 <__am_mainargs+0x23>
    800070d0:	041a8a93          	addi	s5,s5,65 # 9041 <_start-0x7fff6fbf>
    800070d4:	00f13c23          	sd	a5,24(sp)
    800070d8:	0200006f          	j	800070f8 <_vsnprintf+0xac>
    800070dc:	000c0613          	mv	a2,s8
    800070e0:	00090693          	mv	a3,s2
    800070e4:	00098593          	mv	a1,s3
    800070e8:	001c0c13          	addi	s8,s8,1
    800070ec:	000a00e7          	jalr	s4
    800070f0:	00044503          	lbu	a0,0(s0)
    800070f4:	18050863          	beqz	a0,80007284 <_vsnprintf+0x238>
    800070f8:	02500793          	li	a5,37
    800070fc:	00140413          	addi	s0,s0,1
    80007100:	fcf51ee3          	bne	a0,a5,800070dc <_vsnprintf+0x90>
    80007104:	00000813          	li	a6,0
    80007108:	01000713          	li	a4,16
    8000710c:	00044503          	lbu	a0,0(s0)
    80007110:	00140693          	addi	a3,s0,1
    80007114:	fe05079b          	addiw	a5,a0,-32
    80007118:	0ff7f793          	zext.b	a5,a5
    8000711c:	00f76c63          	bltu	a4,a5,80007134 <_vsnprintf+0xe8>
    80007120:	00279793          	slli	a5,a5,0x2
    80007124:	017787b3          	add	a5,a5,s7
    80007128:	0007a783          	lw	a5,0(a5)
    8000712c:	017787b3          	add	a5,a5,s7
    80007130:	00078067          	jr	a5
    80007134:	fd05079b          	addiw	a5,a0,-48
    80007138:	0ff7f793          	zext.b	a5,a5
    8000713c:	00900713          	li	a4,9
    80007140:	1af77263          	bgeu	a4,a5,800072e4 <_vsnprintf+0x298>
    80007144:	02a00713          	li	a4,42
    80007148:	00000b13          	li	s6,0
    8000714c:	20e50463          	beq	a0,a4,80007354 <_vsnprintf+0x308>
    80007150:	02e00713          	li	a4,46
    80007154:	00000c93          	li	s9,0
    80007158:	1ce50663          	beq	a0,a4,80007324 <_vsnprintf+0x2d8>
    8000715c:	f985071b          	addiw	a4,a0,-104
    80007160:	0ff77713          	zext.b	a4,a4
    80007164:	01200613          	li	a2,18
    80007168:	06e66463          	bltu	a2,a4,800071d0 <_vsnprintf+0x184>
    8000716c:	00001617          	auipc	a2,0x1
    80007170:	ab860613          	addi	a2,a2,-1352 # 80007c24 <__am_mainargs+0x67>
    80007174:	00271713          	slli	a4,a4,0x2
    80007178:	00c70733          	add	a4,a4,a2
    8000717c:	00072703          	lw	a4,0(a4)
    80007180:	00c70733          	add	a4,a4,a2
    80007184:	00070067          	jr	a4
    80007188:	00186813          	ori	a6,a6,1
    8000718c:	00068413          	mv	s0,a3
    80007190:	f7dff06f          	j	8000710c <_vsnprintf+0xc0>
    80007194:	00286813          	ori	a6,a6,2
    80007198:	00068413          	mv	s0,a3
    8000719c:	f71ff06f          	j	8000710c <_vsnprintf+0xc0>
    800071a0:	00486813          	ori	a6,a6,4
    800071a4:	00068413          	mv	s0,a3
    800071a8:	f65ff06f          	j	8000710c <_vsnprintf+0xc0>
    800071ac:	01086813          	ori	a6,a6,16
    800071b0:	00068413          	mv	s0,a3
    800071b4:	f59ff06f          	j	8000710c <_vsnprintf+0xc0>
    800071b8:	00886813          	ori	a6,a6,8
    800071bc:	00068413          	mv	s0,a3
    800071c0:	f4dff06f          	j	8000710c <_vsnprintf+0xc0>
    800071c4:	00144503          	lbu	a0,1(s0)
    800071c8:	10086813          	ori	a6,a6,256
    800071cc:	00168693          	addi	a3,a3,1
    800071d0:	06700713          	li	a4,103
    800071d4:	00068413          	mv	s0,a3
    800071d8:	02a76c63          	bltu	a4,a0,80007210 <_vsnprintf+0x1c4>
    800071dc:	02400713          	li	a4,36
    800071e0:	eea77ee3          	bgeu	a4,a0,800070dc <_vsnprintf+0x90>
    800071e4:	fdb5071b          	addiw	a4,a0,-37
    800071e8:	0ff77713          	zext.b	a4,a4
    800071ec:	04200693          	li	a3,66
    800071f0:	eee6e6e3          	bltu	a3,a4,800070dc <_vsnprintf+0x90>
    800071f4:	00001697          	auipc	a3,0x1
    800071f8:	a7c68693          	addi	a3,a3,-1412 # 80007c70 <__am_mainargs+0xb3>
    800071fc:	00271713          	slli	a4,a4,0x2
    80007200:	00d70733          	add	a4,a4,a3
    80007204:	00072703          	lw	a4,0(a4)
    80007208:	00d70733          	add	a4,a4,a3
    8000720c:	00070067          	jr	a4
    80007210:	f975071b          	addiw	a4,a0,-105
    80007214:	0ff77713          	zext.b	a4,a4
    80007218:	00f00693          	li	a3,15
    8000721c:	ece6e0e3          	bltu	a3,a4,800070dc <_vsnprintf+0x90>
    80007220:	00100693          	li	a3,1
    80007224:	00e696b3          	sll	a3,a3,a4
    80007228:	0156f6b3          	and	a3,a3,s5
    8000722c:	56069863          	bnez	a3,8000779c <_vsnprintf+0x750>
    80007230:	00a00693          	li	a3,10
    80007234:	24d70063          	beq	a4,a3,80007474 <_vsnprintf+0x428>
    80007238:	00700793          	li	a5,7
    8000723c:	eaf710e3          	bne	a4,a5,800070dc <_vsnprintf+0x90>
    80007240:	0004b703          	ld	a4,0(s1)
    80007244:	02186813          	ori	a6,a6,33
    80007248:	01000793          	li	a5,16
    8000724c:	000c0613          	mv	a2,s8
    80007250:	01013423          	sd	a6,8(sp)
    80007254:	00f13023          	sd	a5,0(sp)
    80007258:	000c8893          	mv	a7,s9
    8000725c:	01000813          	li	a6,16
    80007260:	00000793          	li	a5,0
    80007264:	00090693          	mv	a3,s2
    80007268:	00098593          	mv	a1,s3
    8000726c:	000a0513          	mv	a0,s4
    80007270:	ac0ff0ef          	jal	ra,80006530 <_ntoa_long>
    80007274:	00050c13          	mv	s8,a0
    80007278:	00044503          	lbu	a0,0(s0)
    8000727c:	00848493          	addi	s1,s1,8
    80007280:	e6051ce3          	bnez	a0,800070f8 <_vsnprintf+0xac>
    80007284:	000c041b          	sext.w	s0,s8
    80007288:	012c6463          	bltu	s8,s2,80007290 <_vsnprintf+0x244>
    8000728c:	fff90c13          	addi	s8,s2,-1
    80007290:	00090693          	mv	a3,s2
    80007294:	000c0613          	mv	a2,s8
    80007298:	00098593          	mv	a1,s3
    8000729c:	00000513          	li	a0,0
    800072a0:	000a00e7          	jalr	s4
    800072a4:	0a813083          	ld	ra,168(sp)
    800072a8:	00040513          	mv	a0,s0
    800072ac:	0a013403          	ld	s0,160(sp)
    800072b0:	09813483          	ld	s1,152(sp)
    800072b4:	09013903          	ld	s2,144(sp)
    800072b8:	08813983          	ld	s3,136(sp)
    800072bc:	08013a03          	ld	s4,128(sp)
    800072c0:	07813a83          	ld	s5,120(sp)
    800072c4:	07013b03          	ld	s6,112(sp)
    800072c8:	06813b83          	ld	s7,104(sp)
    800072cc:	06013c03          	ld	s8,96(sp)
    800072d0:	05813c83          	ld	s9,88(sp)
    800072d4:	05013d03          	ld	s10,80(sp)
    800072d8:	04813d83          	ld	s11,72(sp)
    800072dc:	0b010113          	addi	sp,sp,176
    800072e0:	00008067          	ret
    800072e4:	00000b13          	li	s6,0
    800072e8:	00900613          	li	a2,9
    800072ec:	002b171b          	slliw	a4,s6,0x2
    800072f0:	0167073b          	addw	a4,a4,s6
    800072f4:	0017171b          	slliw	a4,a4,0x1
    800072f8:	00a7073b          	addw	a4,a4,a0
    800072fc:	0006c503          	lbu	a0,0(a3)
    80007300:	fd070b1b          	addiw	s6,a4,-48
    80007304:	00068413          	mv	s0,a3
    80007308:	fd05071b          	addiw	a4,a0,-48
    8000730c:	0ff77713          	zext.b	a4,a4
    80007310:	00168693          	addi	a3,a3,1
    80007314:	fce67ce3          	bgeu	a2,a4,800072ec <_vsnprintf+0x2a0>
    80007318:	02e00713          	li	a4,46
    8000731c:	00000c93          	li	s9,0
    80007320:	e2e51ee3          	bne	a0,a4,8000715c <_vsnprintf+0x110>
    80007324:	00144503          	lbu	a0,1(s0)
    80007328:	00900593          	li	a1,9
    8000732c:	00068613          	mv	a2,a3
    80007330:	fd05071b          	addiw	a4,a0,-48
    80007334:	0ff77713          	zext.b	a4,a4
    80007338:	40086813          	ori	a6,a6,1024
    8000733c:	1ee5f663          	bgeu	a1,a4,80007528 <_vsnprintf+0x4dc>
    80007340:	02a00713          	li	a4,42
    80007344:	20e50e63          	beq	a0,a4,80007560 <_vsnprintf+0x514>
    80007348:	00068413          	mv	s0,a3
    8000734c:	00168693          	addi	a3,a3,1
    80007350:	e0dff06f          	j	8000715c <_vsnprintf+0x110>
    80007354:	0004a703          	lw	a4,0(s1)
    80007358:	00848493          	addi	s1,s1,8
    8000735c:	00070b1b          	sext.w	s6,a4
    80007360:	00074a63          	bltz	a4,80007374 <_vsnprintf+0x328>
    80007364:	00144503          	lbu	a0,1(s0)
    80007368:	00068413          	mv	s0,a3
    8000736c:	00168693          	addi	a3,a3,1
    80007370:	de1ff06f          	j	80007150 <_vsnprintf+0x104>
    80007374:	00144503          	lbu	a0,1(s0)
    80007378:	00286813          	ori	a6,a6,2
    8000737c:	00068413          	mv	s0,a3
    80007380:	40e00b3b          	negw	s6,a4
    80007384:	00168693          	addi	a3,a3,1
    80007388:	dc9ff06f          	j	80007150 <_vsnprintf+0x104>
    8000738c:	00144503          	lbu	a0,1(s0)
    80007390:	06c00713          	li	a4,108
    80007394:	e2e51ae3          	bne	a0,a4,800071c8 <_vsnprintf+0x17c>
    80007398:	00244503          	lbu	a0,2(s0)
    8000739c:	30086813          	ori	a6,a6,768
    800073a0:	00340693          	addi	a3,s0,3
    800073a4:	e2dff06f          	j	800071d0 <_vsnprintf+0x184>
    800073a8:	00144503          	lbu	a0,1(s0)
    800073ac:	06800713          	li	a4,104
    800073b0:	42e50263          	beq	a0,a4,800077d4 <_vsnprintf+0x788>
    800073b4:	08086813          	ori	a6,a6,128
    800073b8:	00168693          	addi	a3,a3,1
    800073bc:	e15ff06f          	j	800071d0 <_vsnprintf+0x184>
    800073c0:	04600713          	li	a4,70
    800073c4:	2ce50463          	beq	a0,a4,8000768c <_vsnprintf+0x640>
    800073c8:	0004b507          	fld	fa0,0(s1)
    800073cc:	000c0613          	mv	a2,s8
    800073d0:	000b0793          	mv	a5,s6
    800073d4:	000c8713          	mv	a4,s9
    800073d8:	00090693          	mv	a3,s2
    800073dc:	00098593          	mv	a1,s3
    800073e0:	000a0513          	mv	a0,s4
    800073e4:	cc0ff0ef          	jal	ra,800068a4 <_ftoa>
    800073e8:	00848493          	addi	s1,s1,8
    800073ec:	00050c13          	mv	s8,a0
    800073f0:	d01ff06f          	j	800070f0 <_vsnprintf+0xa4>
    800073f4:	00287813          	andi	a6,a6,2
    800073f8:	00848d13          	addi	s10,s1,8
    800073fc:	40080663          	beqz	a6,80007808 <_vsnprintf+0x7bc>
    80007400:	0004c503          	lbu	a0,0(s1)
    80007404:	00090693          	mv	a3,s2
    80007408:	000c0613          	mv	a2,s8
    8000740c:	00098593          	mv	a1,s3
    80007410:	000a00e7          	jalr	s4
    80007414:	00100713          	li	a4,1
    80007418:	001c0493          	addi	s1,s8,1
    8000741c:	51677463          	bgeu	a4,s6,80007924 <_vsnprintf+0x8d8>
    80007420:	ffeb079b          	addiw	a5,s6,-2
    80007424:	02079793          	slli	a5,a5,0x20
    80007428:	002c0e13          	addi	t3,s8,2
    8000742c:	0207d793          	srli	a5,a5,0x20
    80007430:	00fe0c33          	add	s8,t3,a5
    80007434:	00048613          	mv	a2,s1
    80007438:	00090693          	mv	a3,s2
    8000743c:	00148493          	addi	s1,s1,1
    80007440:	00098593          	mv	a1,s3
    80007444:	02000513          	li	a0,32
    80007448:	000a00e7          	jalr	s4
    8000744c:	ff8494e3          	bne	s1,s8,80007434 <_vsnprintf+0x3e8>
    80007450:	000d0493          	mv	s1,s10
    80007454:	c9dff06f          	j	800070f0 <_vsnprintf+0xa4>
    80007458:	000c0613          	mv	a2,s8
    8000745c:	00090693          	mv	a3,s2
    80007460:	00098593          	mv	a1,s3
    80007464:	02500513          	li	a0,37
    80007468:	001c0c13          	addi	s8,s8,1
    8000746c:	000a00e7          	jalr	s4
    80007470:	c81ff06f          	j	800070f0 <_vsnprintf+0xa4>
    80007474:	0004bd03          	ld	s10,0(s1)
    80007478:	00848793          	addi	a5,s1,8
    8000747c:	02f13c23          	sd	a5,56(sp)
    80007480:	000d4603          	lbu	a2,0(s10)
    80007484:	00060513          	mv	a0,a2
    80007488:	0e0c9e63          	bnez	s9,80007584 <_vsnprintf+0x538>
    8000748c:	ffe00693          	li	a3,-2
    80007490:	50060e63          	beqz	a2,800079ac <_vsnprintf+0x960>
    80007494:	00168693          	addi	a3,a3,1
    80007498:	00dd06b3          	add	a3,s10,a3
    8000749c:	000d0d93          	mv	s11,s10
    800074a0:	0080006f          	j	800074a8 <_vsnprintf+0x45c>
    800074a4:	00dd8863          	beq	s11,a3,800074b4 <_vsnprintf+0x468>
    800074a8:	001dc703          	lbu	a4,1(s11)
    800074ac:	001d8d93          	addi	s11,s11,1
    800074b0:	fe071ae3          	bnez	a4,800074a4 <_vsnprintf+0x458>
    800074b4:	41ad8dbb          	subw	s11,s11,s10
    800074b8:	40087793          	andi	a5,a6,1024
    800074bc:	02f13423          	sd	a5,40(sp)
    800074c0:	00078a63          	beqz	a5,800074d4 <_vsnprintf+0x488>
    800074c4:	000c8713          	mv	a4,s9
    800074c8:	019df463          	bgeu	s11,s9,800074d0 <_vsnprintf+0x484>
    800074cc:	000d8713          	mv	a4,s11
    800074d0:	00070d9b          	sext.w	s11,a4
    800074d4:	00287793          	andi	a5,a6,2
    800074d8:	02f13823          	sd	a5,48(sp)
    800074dc:	38078663          	beqz	a5,80007868 <_vsnprintf+0x81c>
    800074e0:	26060c63          	beqz	a2,80007758 <_vsnprintf+0x70c>
    800074e4:	02813783          	ld	a5,40(sp)
    800074e8:	22078a63          	beqz	a5,8000771c <_vsnprintf+0x6d0>
    800074ec:	020c9893          	slli	a7,s9,0x20
    800074f0:	0208d893          	srli	a7,a7,0x20
    800074f4:	01888cb3          	add	s9,a7,s8
    800074f8:	000c0613          	mv	a2,s8
    800074fc:	24cc8463          	beq	s9,a2,80007744 <_vsnprintf+0x6f8>
    80007500:	00090693          	mv	a3,s2
    80007504:	00098593          	mv	a1,s3
    80007508:	00160493          	addi	s1,a2,1
    8000750c:	000a00e7          	jalr	s4
    80007510:	41848733          	sub	a4,s1,s8
    80007514:	00ed0733          	add	a4,s10,a4
    80007518:	00074503          	lbu	a0,0(a4)
    8000751c:	2e050263          	beqz	a0,80007800 <_vsnprintf+0x7b4>
    80007520:	00048613          	mv	a2,s1
    80007524:	fd9ff06f          	j	800074fc <_vsnprintf+0x4b0>
    80007528:	00900693          	li	a3,9
    8000752c:	002c971b          	slliw	a4,s9,0x2
    80007530:	0197073b          	addw	a4,a4,s9
    80007534:	00160613          	addi	a2,a2,1
    80007538:	0017171b          	slliw	a4,a4,0x1
    8000753c:	00a7073b          	addw	a4,a4,a0
    80007540:	00064503          	lbu	a0,0(a2)
    80007544:	fd070c9b          	addiw	s9,a4,-48
    80007548:	fd05071b          	addiw	a4,a0,-48
    8000754c:	0ff77713          	zext.b	a4,a4
    80007550:	fce6fee3          	bgeu	a3,a4,8000752c <_vsnprintf+0x4e0>
    80007554:	00060413          	mv	s0,a2
    80007558:	00160693          	addi	a3,a2,1
    8000755c:	c01ff06f          	j	8000715c <_vsnprintf+0x110>
    80007560:	0004a703          	lw	a4,0(s1)
    80007564:	00244503          	lbu	a0,2(s0)
    80007568:	00240413          	addi	s0,s0,2
    8000756c:	fff74893          	not	a7,a4
    80007570:	43f8d893          	srai	a7,a7,0x3f
    80007574:	00e8fcb3          	and	s9,a7,a4
    80007578:	00848493          	addi	s1,s1,8
    8000757c:	00140693          	addi	a3,s0,1
    80007580:	bddff06f          	j	8000715c <_vsnprintf+0x110>
    80007584:	020c9693          	slli	a3,s9,0x20
    80007588:	0206d693          	srli	a3,a3,0x20
    8000758c:	42060063          	beqz	a2,800079ac <_vsnprintf+0x960>
    80007590:	fff68693          	addi	a3,a3,-1
    80007594:	f01ff06f          	j	80007494 <_vsnprintf+0x448>
    80007598:	0df57713          	andi	a4,a0,223
    8000759c:	04700693          	li	a3,71
    800075a0:	20d70c63          	beq	a4,a3,800077b8 <_vsnprintf+0x76c>
    800075a4:	04500713          	li	a4,69
    800075a8:	22e50263          	beq	a0,a4,800077cc <_vsnprintf+0x780>
    800075ac:	0004b507          	fld	fa0,0(s1)
    800075b0:	000c0613          	mv	a2,s8
    800075b4:	000b0793          	mv	a5,s6
    800075b8:	000c8713          	mv	a4,s9
    800075bc:	00090693          	mv	a3,s2
    800075c0:	00098593          	mv	a1,s3
    800075c4:	000a0513          	mv	a0,s4
    800075c8:	ee4ff0ef          	jal	ra,80006cac <_etoa>
    800075cc:	00848493          	addi	s1,s1,8
    800075d0:	00050c13          	mv	s8,a0
    800075d4:	b1dff06f          	j	800070f0 <_vsnprintf+0xa4>
    800075d8:	06200713          	li	a4,98
    800075dc:	0ae50c63          	beq	a0,a4,80007694 <_vsnprintf+0x648>
    800075e0:	06f00713          	li	a4,111
    800075e4:	2ee50063          	beq	a0,a4,800078c4 <_vsnprintf+0x878>
    800075e8:	05800713          	li	a4,88
    800075ec:	20e50263          	beq	a0,a4,800077f0 <_vsnprintf+0x7a4>
    800075f0:	fef87813          	andi	a6,a6,-17
    800075f4:	00a00593          	li	a1,10
    800075f8:	40087713          	andi	a4,a6,1024
    800075fc:	06900693          	li	a3,105
    80007600:	00070613          	mv	a2,a4
    80007604:	08d51c63          	bne	a0,a3,8000769c <_vsnprintf+0x650>
    80007608:	0a061063          	bnez	a2,800076a8 <_vsnprintf+0x65c>
    8000760c:	00080693          	mv	a3,a6
    80007610:	00848d13          	addi	s10,s1,8
    80007614:	2006f713          	andi	a4,a3,512
    80007618:	00068613          	mv	a2,a3
    8000761c:	2a071863          	bnez	a4,800078cc <_vsnprintf+0x880>
    80007620:	1006f713          	andi	a4,a3,256
    80007624:	32071663          	bnez	a4,80007950 <_vsnprintf+0x904>
    80007628:	04067713          	andi	a4,a2,64
    8000762c:	0004a503          	lw	a0,0(s1)
    80007630:	2e071063          	bnez	a4,80007910 <_vsnprintf+0x8c4>
    80007634:	08067613          	andi	a2,a2,128
    80007638:	36060263          	beqz	a2,8000799c <_vsnprintf+0x950>
    8000763c:	0105151b          	slliw	a0,a0,0x10
    80007640:	4105551b          	sraiw	a0,a0,0x10
    80007644:	40f5561b          	sraiw	a2,a0,0xf
    80007648:	00c54733          	xor	a4,a0,a2
    8000764c:	40c7073b          	subw	a4,a4,a2
    80007650:	03071713          	slli	a4,a4,0x30
    80007654:	03075713          	srli	a4,a4,0x30
    80007658:	000c0613          	mv	a2,s8
    8000765c:	00d13423          	sd	a3,8(sp)
    80007660:	01613023          	sd	s6,0(sp)
    80007664:	000c8893          	mv	a7,s9
    80007668:	00058813          	mv	a6,a1
    8000766c:	01f5579b          	srliw	a5,a0,0x1f
    80007670:	00090693          	mv	a3,s2
    80007674:	00098593          	mv	a1,s3
    80007678:	000a0513          	mv	a0,s4
    8000767c:	eb5fe0ef          	jal	ra,80006530 <_ntoa_long>
    80007680:	00050c13          	mv	s8,a0
    80007684:	000d0493          	mv	s1,s10
    80007688:	a69ff06f          	j	800070f0 <_vsnprintf+0xa4>
    8000768c:	02086813          	ori	a6,a6,32
    80007690:	d39ff06f          	j	800073c8 <_vsnprintf+0x37c>
    80007694:	00200593          	li	a1,2
    80007698:	40087713          	andi	a4,a6,1024
    8000769c:	06400693          	li	a3,100
    800076a0:	10d51663          	bne	a0,a3,800077ac <_vsnprintf+0x760>
    800076a4:	f60704e3          	beqz	a4,8000760c <_vsnprintf+0x5c0>
    800076a8:	00080693          	mv	a3,a6
    800076ac:	ffe6f813          	andi	a6,a3,-2
    800076b0:	0008069b          	sext.w	a3,a6
    800076b4:	06900713          	li	a4,105
    800076b8:	00848d13          	addi	s10,s1,8
    800076bc:	f4e50ce3          	beq	a0,a4,80007614 <_vsnprintf+0x5c8>
    800076c0:	06400713          	li	a4,100
    800076c4:	f4e508e3          	beq	a0,a4,80007614 <_vsnprintf+0x5c8>
    800076c8:	2006f713          	andi	a4,a3,512
    800076cc:	00068613          	mv	a2,a3
    800076d0:	26071063          	bnez	a4,80007930 <_vsnprintf+0x8e4>
    800076d4:	1006f713          	andi	a4,a3,256
    800076d8:	2a071263          	bnez	a4,8000797c <_vsnprintf+0x930>
    800076dc:	04067713          	andi	a4,a2,64
    800076e0:	22071e63          	bnez	a4,8000791c <_vsnprintf+0x8d0>
    800076e4:	08067613          	andi	a2,a2,128
    800076e8:	0004a703          	lw	a4,0(s1)
    800076ec:	00060663          	beqz	a2,800076f8 <_vsnprintf+0x6ac>
    800076f0:	02013783          	ld	a5,32(sp)
    800076f4:	00f77733          	and	a4,a4,a5
    800076f8:	02071713          	slli	a4,a4,0x20
    800076fc:	000c0613          	mv	a2,s8
    80007700:	00d13423          	sd	a3,8(sp)
    80007704:	01613023          	sd	s6,0(sp)
    80007708:	000c8893          	mv	a7,s9
    8000770c:	00058813          	mv	a6,a1
    80007710:	00000793          	li	a5,0
    80007714:	02075713          	srli	a4,a4,0x20
    80007718:	f59ff06f          	j	80007670 <_vsnprintf+0x624>
    8000771c:	000c0c93          	mv	s9,s8
    80007720:	000c8613          	mv	a2,s9
    80007724:	00090693          	mv	a3,s2
    80007728:	00098593          	mv	a1,s3
    8000772c:	000a00e7          	jalr	s4
    80007730:	001c8c93          	addi	s9,s9,1
    80007734:	418c8733          	sub	a4,s9,s8
    80007738:	00ed0733          	add	a4,s10,a4
    8000773c:	00074503          	lbu	a0,0(a4)
    80007740:	fe0510e3          	bnez	a0,80007720 <_vsnprintf+0x6d4>
    80007744:	000c8c13          	mv	s8,s9
    80007748:	03013783          	ld	a5,48(sp)
    8000774c:	00079663          	bnez	a5,80007758 <_vsnprintf+0x70c>
    80007750:	03813483          	ld	s1,56(sp)
    80007754:	99dff06f          	j	800070f0 <_vsnprintf+0xa4>
    80007758:	000c0493          	mv	s1,s8
    8000775c:	ff6dfae3          	bgeu	s11,s6,80007750 <_vsnprintf+0x704>
    80007760:	fffb079b          	addiw	a5,s6,-1
    80007764:	41b787bb          	subw	a5,a5,s11
    80007768:	02079793          	slli	a5,a5,0x20
    8000776c:	0207d793          	srli	a5,a5,0x20
    80007770:	001c0e13          	addi	t3,s8,1
    80007774:	01c78c33          	add	s8,a5,t3
    80007778:	00048613          	mv	a2,s1
    8000777c:	00090693          	mv	a3,s2
    80007780:	00148493          	addi	s1,s1,1
    80007784:	00098593          	mv	a1,s3
    80007788:	02000513          	li	a0,32
    8000778c:	000a00e7          	jalr	s4
    80007790:	ff8494e3          	bne	s1,s8,80007778 <_vsnprintf+0x72c>
    80007794:	03813483          	ld	s1,56(sp)
    80007798:	959ff06f          	j	800070f0 <_vsnprintf+0xa4>
    8000779c:	07800713          	li	a4,120
    800077a0:	e2e51ce3          	bne	a0,a4,800075d8 <_vsnprintf+0x58c>
    800077a4:	01000593          	li	a1,16
    800077a8:	40087713          	andi	a4,a6,1024
    800077ac:	ff387693          	andi	a3,a6,-13
    800077b0:	ee071ee3          	bnez	a4,800076ac <_vsnprintf+0x660>
    800077b4:	f01ff06f          	j	800076b4 <_vsnprintf+0x668>
    800077b8:	01813783          	ld	a5,24(sp)
    800077bc:	0fd57513          	andi	a0,a0,253
    800077c0:	04500713          	li	a4,69
    800077c4:	00f86833          	or	a6,a6,a5
    800077c8:	dee512e3          	bne	a0,a4,800075ac <_vsnprintf+0x560>
    800077cc:	02086813          	ori	a6,a6,32
    800077d0:	dddff06f          	j	800075ac <_vsnprintf+0x560>
    800077d4:	00244503          	lbu	a0,2(s0)
    800077d8:	0c086813          	ori	a6,a6,192
    800077dc:	00340693          	addi	a3,s0,3
    800077e0:	9f1ff06f          	j	800071d0 <_vsnprintf+0x184>
    800077e4:	00000413          	li	s0,0
    800077e8:	ab2c64e3          	bltu	s8,s2,80007290 <_vsnprintf+0x244>
    800077ec:	aa1ff06f          	j	8000728c <_vsnprintf+0x240>
    800077f0:	02086813          	ori	a6,a6,32
    800077f4:	01000593          	li	a1,16
    800077f8:	40087713          	andi	a4,a6,1024
    800077fc:	fb1ff06f          	j	800077ac <_vsnprintf+0x760>
    80007800:	00048c13          	mv	s8,s1
    80007804:	f45ff06f          	j	80007748 <_vsnprintf+0x6fc>
    80007808:	00100713          	li	a4,1
    8000780c:	1b677463          	bgeu	a4,s6,800079b4 <_vsnprintf+0x968>
    80007810:	ffeb0c9b          	addiw	s9,s6,-2
    80007814:	020c9c93          	slli	s9,s9,0x20
    80007818:	001c0d93          	addi	s11,s8,1
    8000781c:	020cdc93          	srli	s9,s9,0x20
    80007820:	019d8cb3          	add	s9,s11,s9
    80007824:	0080006f          	j	8000782c <_vsnprintf+0x7e0>
    80007828:	001d8d93          	addi	s11,s11,1
    8000782c:	000c0613          	mv	a2,s8
    80007830:	00090693          	mv	a3,s2
    80007834:	00098593          	mv	a1,s3
    80007838:	02000513          	li	a0,32
    8000783c:	000d8c13          	mv	s8,s11
    80007840:	000a00e7          	jalr	s4
    80007844:	ff9d92e3          	bne	s11,s9,80007828 <_vsnprintf+0x7dc>
    80007848:	0004c503          	lbu	a0,0(s1)
    8000784c:	00090693          	mv	a3,s2
    80007850:	000c8613          	mv	a2,s9
    80007854:	00098593          	mv	a1,s3
    80007858:	001c8c13          	addi	s8,s9,1
    8000785c:	000a00e7          	jalr	s4
    80007860:	000d0493          	mv	s1,s10
    80007864:	88dff06f          	j	800070f0 <_vsnprintf+0xa4>
    80007868:	001d871b          	addiw	a4,s11,1
    8000786c:	156df863          	bgeu	s11,s6,800079bc <_vsnprintf+0x970>
    80007870:	fffb071b          	addiw	a4,s6,-1
    80007874:	41b70dbb          	subw	s11,a4,s11
    80007878:	020d9793          	slli	a5,s11,0x20
    8000787c:	0207d793          	srli	a5,a5,0x20
    80007880:	001c0d93          	addi	s11,s8,1
    80007884:	01b784b3          	add	s1,a5,s11
    80007888:	0080006f          	j	80007890 <_vsnprintf+0x844>
    8000788c:	001d8d93          	addi	s11,s11,1
    80007890:	000c0613          	mv	a2,s8
    80007894:	00090693          	mv	a3,s2
    80007898:	00098593          	mv	a1,s3
    8000789c:	02000513          	li	a0,32
    800078a0:	000d8c13          	mv	s8,s11
    800078a4:	000a00e7          	jalr	s4
    800078a8:	fe9d92e3          	bne	s11,s1,8000788c <_vsnprintf+0x840>
    800078ac:	000d4603          	lbu	a2,0(s10)
    800078b0:	001b0d9b          	addiw	s11,s6,1
    800078b4:	00060513          	mv	a0,a2
    800078b8:	c20616e3          	bnez	a2,800074e4 <_vsnprintf+0x498>
    800078bc:	03813483          	ld	s1,56(sp)
    800078c0:	831ff06f          	j	800070f0 <_vsnprintf+0xa4>
    800078c4:	00800593          	li	a1,8
    800078c8:	d31ff06f          	j	800075f8 <_vsnprintf+0x5ac>
    800078cc:	0004b783          	ld	a5,0(s1)
    800078d0:	00d13423          	sd	a3,8(sp)
    800078d4:	000c0613          	mv	a2,s8
    800078d8:	43f7d713          	srai	a4,a5,0x3f
    800078dc:	00f746b3          	xor	a3,a4,a5
    800078e0:	01613023          	sd	s6,0(sp)
    800078e4:	000c8893          	mv	a7,s9
    800078e8:	00058813          	mv	a6,a1
    800078ec:	03f7d793          	srli	a5,a5,0x3f
    800078f0:	40e68733          	sub	a4,a3,a4
    800078f4:	00090693          	mv	a3,s2
    800078f8:	00098593          	mv	a1,s3
    800078fc:	000a0513          	mv	a0,s4
    80007900:	c31fe0ef          	jal	ra,80006530 <_ntoa_long>
    80007904:	00050c13          	mv	s8,a0
    80007908:	000d0493          	mv	s1,s10
    8000790c:	fe4ff06f          	j	800070f0 <_vsnprintf+0xa4>
    80007910:	0ff57513          	zext.b	a0,a0
    80007914:	00050713          	mv	a4,a0
    80007918:	d41ff06f          	j	80007658 <_vsnprintf+0x60c>
    8000791c:	0004c703          	lbu	a4,0(s1)
    80007920:	dd9ff06f          	j	800076f8 <_vsnprintf+0x6ac>
    80007924:	00048c13          	mv	s8,s1
    80007928:	000d0493          	mv	s1,s10
    8000792c:	fc4ff06f          	j	800070f0 <_vsnprintf+0xa4>
    80007930:	0004b703          	ld	a4,0(s1)
    80007934:	000c0613          	mv	a2,s8
    80007938:	00d13423          	sd	a3,8(sp)
    8000793c:	01613023          	sd	s6,0(sp)
    80007940:	000c8893          	mv	a7,s9
    80007944:	00058813          	mv	a6,a1
    80007948:	00000793          	li	a5,0
    8000794c:	fa9ff06f          	j	800078f4 <_vsnprintf+0x8a8>
    80007950:	0004b783          	ld	a5,0(s1)
    80007954:	00d13423          	sd	a3,8(sp)
    80007958:	000c0613          	mv	a2,s8
    8000795c:	43f7d713          	srai	a4,a5,0x3f
    80007960:	00f746b3          	xor	a3,a4,a5
    80007964:	01613023          	sd	s6,0(sp)
    80007968:	000c8893          	mv	a7,s9
    8000796c:	00058813          	mv	a6,a1
    80007970:	03f7d793          	srli	a5,a5,0x3f
    80007974:	40e68733          	sub	a4,a3,a4
    80007978:	cf9ff06f          	j	80007670 <_vsnprintf+0x624>
    8000797c:	0004b703          	ld	a4,0(s1)
    80007980:	000c0613          	mv	a2,s8
    80007984:	00d13423          	sd	a3,8(sp)
    80007988:	01613023          	sd	s6,0(sp)
    8000798c:	000c8893          	mv	a7,s9
    80007990:	00058813          	mv	a6,a1
    80007994:	00000793          	li	a5,0
    80007998:	cd9ff06f          	j	80007670 <_vsnprintf+0x624>
    8000799c:	41f5561b          	sraiw	a2,a0,0x1f
    800079a0:	00c54733          	xor	a4,a0,a2
    800079a4:	40c7073b          	subw	a4,a4,a2
    800079a8:	cb1ff06f          	j	80007658 <_vsnprintf+0x60c>
    800079ac:	00000d93          	li	s11,0
    800079b0:	b09ff06f          	j	800074b8 <_vsnprintf+0x46c>
    800079b4:	000c0c93          	mv	s9,s8
    800079b8:	e91ff06f          	j	80007848 <_vsnprintf+0x7fc>
    800079bc:	00070d93          	mv	s11,a4
    800079c0:	ef5ff06f          	j	800078b4 <_vsnprintf+0x868>

Disassembly of section .text.printf_:

00000000800079c4 <printf_>:
    800079c4:	fa010113          	addi	sp,sp,-96
    800079c8:	02810313          	addi	t1,sp,40
    800079cc:	02b13423          	sd	a1,40(sp)
    800079d0:	02c13823          	sd	a2,48(sp)
    800079d4:	02d13c23          	sd	a3,56(sp)
    800079d8:	04e13023          	sd	a4,64(sp)
    800079dc:	00050693          	mv	a3,a0
    800079e0:	00010593          	mv	a1,sp
    800079e4:	00030713          	mv	a4,t1
    800079e8:	fff00613          	li	a2,-1
    800079ec:	fffff517          	auipc	a0,0xfffff
    800079f0:	eac50513          	addi	a0,a0,-340 # 80006898 <_out_char>
    800079f4:	00113c23          	sd	ra,24(sp)
    800079f8:	04f13423          	sd	a5,72(sp)
    800079fc:	05013823          	sd	a6,80(sp)
    80007a00:	05113c23          	sd	a7,88(sp)
    80007a04:	00613423          	sd	t1,8(sp)
    80007a08:	e44ff0ef          	jal	ra,8000704c <_vsnprintf>
    80007a0c:	01813083          	ld	ra,24(sp)
    80007a10:	06010113          	addi	sp,sp,96
    80007a14:	00008067          	ret
